# ========
# captured on    : Mon Nov 26 18:02:11 2018
# header version : 1
# data offset    : 232
# data size      : 106210
# feat offset    : 106442
# missing features: TRACING_DATA BUILD_ID HOSTNAME OSRELEASE VERSION ARCH NRCPUS CPUDESC CPUID TOTAL_MEM CMDLINE EVENT_DESC CPU_TOPOLOGY NUMA_TOPOLOGY BRANCH_STACK PMU_MAPPINGS GROUP_DESC AUXTRACE STAT CACHE SAMPLE_TIME MEM_TOPOLOGY 
# ========
#
master@127.0.1.1:5050 14784 182029.119454:       5000 cycles:uh: 
	    7fa494d343b5 _ZN6google11InitVLOG3__EPPiS0_PKci+0x35 (/home/bevers/src/mesos/worktrees/state-benchmarking/build-alexr/src/.libs/libmesos-1.8.0.so)
	    7fa494cd157f _ZN7process11ProcessBase7consumeEONS_9HttpEventE+0x6af (/home/bevers/src/mesos/worktrees/state-benchmarking/build-alexr/src/.libs/libmesos-1.8.0.so)
	    7fa494ccd332 _ZN7process14ProcessManager6resumeEPNS_11ProcessBaseE+0x492 (/home/bevers/src/mesos/worktrees/state-benchmarking/build-alexr/src/.libs/libmesos-1.8.0.so)
	    7fa494cd3606 _ZNSt6thread11_State_implINS_8_InvokerISt5tupleIJZN7process14ProcessManager12init_threadsEvEUlvE_EEEEE6_M_runEv+0x46 (/home/bevers/src/mesos/worktrees/state-benchmarking/build-alexr/src/.libs/libmesos-1.8.0.so)
	    7fa491e43733 [unknown] (/usr/lib/x86_64-linux-gnu/libstdc++.so.6.0.25)

master@127.0.1.1:5050 14784 182029.119460:       5000 cycles:uh: 
	    7fa4938a5480 _ZNK7process5OwnedINS_8SequenceEE3getEv@plt+0x0 (/home/bevers/src/mesos/worktrees/state-benchmarking/build-alexr/src/.libs/libmesos-1.8.0.so)
	    7fa494ccd332 _ZN7process14ProcessManager6resumeEPNS_11ProcessBaseE+0x492 (/home/bevers/src/mesos/worktrees/state-benchmarking/build-alexr/src/.libs/libmesos-1.8.0.so)
	    7fa494cd3606 _ZNSt6thread11_State_implINS_8_InvokerISt5tupleIJZN7process14ProcessManager12init_threadsEvEUlvE_EEEEE6_M_runEv+0x46 (/home/bevers/src/mesos/worktrees/state-benchmarking/build-alexr/src/.libs/libmesos-1.8.0.so)
	    7fa491e43733 [unknown] (/usr/lib/x86_64-linux-gnu/libstdc++.so.6.0.25)

master@127.0.1.1:5050 14784 182029.119467:       5000 cycles:uh: 
	    7fa4944e1d3d _ZNK7process5OwnedINS_8SequenceEE3getEv+0x1d (/home/bevers/src/mesos/worktrees/state-benchmarking/build-alexr/src/.libs/libmesos-1.8.0.so)
	    7fa494cd1002 _ZN7process11ProcessBase7consumeEONS_9HttpEventE+0x132 (/home/bevers/src/mesos/worktrees/state-benchmarking/build-alexr/src/.libs/libmesos-1.8.0.so)
	    7fa494ccd332 _ZN7process14ProcessManager6resumeEPNS_11ProcessBaseE+0x492 (/home/bevers/src/mesos/worktrees/state-benchmarking/build-alexr/src/.libs/libmesos-1.8.0.so)
	    7fa494cd3606 _ZNSt6thread11_State_implINS_8_InvokerISt5tupleIJZN7process14ProcessManager12init_threadsEvEUlvE_EEEEE6_M_runEv+0x46 (/home/bevers/src/mesos/worktrees/state-benchmarking/build-alexr/src/.libs/libmesos-1.8.0.so)
	    7fa491e43733 [unknown] (/usr/lib/x86_64-linux-gnu/libstdc++.so.6.0.25)

master@127.0.1.1:5050 14784 182029.119470:       5000 cycles:uh: 
	    7fa491e0e660 _Znwm@plt+0x0 (/usr/lib/x86_64-linux-gnu/libstdc++.so.6.0.25)
	    7fa494cd1436 _ZN7process11ProcessBase7consumeEONS_9HttpEventE+0x566 (/home/bevers/src/mesos/worktrees/state-benchmarking/build-alexr/src/.libs/libmesos-1.8.0.so)
	    7fa494ccd332 _ZN7process14ProcessManager6resumeEPNS_11ProcessBaseE+0x492 (/home/bevers/src/mesos/worktrees/state-benchmarking/build-alexr/src/.libs/libmesos-1.8.0.so)
	    7fa494cd3606 _ZNSt6thread11_State_implINS_8_InvokerISt5tupleIJZN7process14ProcessManager12init_threadsEvEUlvE_EEEEE6_M_runEv+0x46 (/home/bevers/src/mesos/worktrees/state-benchmarking/build-alexr/src/.libs/libmesos-1.8.0.so)
	    7fa491e43733 [unknown] (/usr/lib/x86_64-linux-gnu/libstdc++.so.6.0.25)

master@127.0.1.1:5050 14784 182029.119474:       5000 cycles:uh: 
	    7fa491903b22 __memmove_avx_unaligned_erms+0x52 (/lib/x86_64-linux-gnu/libc-2.27.so)
	    7fa494cd1436 _ZN7process11ProcessBase7consumeEONS_9HttpEventE+0x566 (/home/bevers/src/mesos/worktrees/state-benchmarking/build-alexr/src/.libs/libmesos-1.8.0.so)
	    7fa494ccd332 _ZN7process14ProcessManager6resumeEPNS_11ProcessBaseE+0x492 (/home/bevers/src/mesos/worktrees/state-benchmarking/build-alexr/src/.libs/libmesos-1.8.0.so)
	    7fa494cd3606 _ZNSt6thread11_State_implINS_8_InvokerISt5tupleIJZN7process14ProcessManager12init_threadsEvEUlvE_EEEEE6_M_runEv+0x46 (/home/bevers/src/mesos/worktrees/state-benchmarking/build-alexr/src/.libs/libmesos-1.8.0.so)
	    7fa491e43733 [unknown] (/usr/lib/x86_64-linux-gnu/libstdc++.so.6.0.25)

master@127.0.1.1:5050 14784 182029.119479:       5000 cycles:uh: 
	    7fa49180c20a malloc+0x19a (/lib/x86_64-linux-gnu/libc-2.27.so)

master@127.0.1.1:5050 14784 182029.119481:       5000 cycles:uh: 
	    7fa494cbf7fb _ZN7process2ID8generateERKNSt7__cxx1112basic_stringIcSt11char_traitsIcESaIcEEE+0x6b (/home/bevers/src/mesos/worktrees/state-benchmarking/build-alexr/src/.libs/libmesos-1.8.0.so)
	    7fa494cd146a _ZN7process11ProcessBase7consumeEONS_9HttpEventE+0x59a (/home/bevers/src/mesos/worktrees/state-benchmarking/build-alexr/src/.libs/libmesos-1.8.0.so)
	    7fa494ccd332 _ZN7process14ProcessManager6resumeEPNS_11ProcessBaseE+0x492 (/home/bevers/src/mesos/worktrees/state-benchmarking/build-alexr/src/.libs/libmesos-1.8.0.so)
	    7fa494cd3606 _ZNSt6thread11_State_implINS_8_InvokerISt5tupleIJZN7process14ProcessManager12init_threadsEvEUlvE_EEEEE6_M_runEv+0x46 (/home/bevers/src/mesos/worktrees/state-benchmarking/build-alexr/src/.libs/libmesos-1.8.0.so)
	    7fa491e43733 [unknown] (/usr/lib/x86_64-linux-gnu/libstdc++.so.6.0.25)

master@127.0.1.1:5050 14784 182029.119484:       5000 cycles:uh: 
	    7fa491eafe50 _ZNKSt7__cxx1112basic_stringIcSt11char_traitsIcESaIcEE7compareERKS4_+0x0 (/usr/lib/x86_64-linux-gnu/libstdc++.so.6.0.25)
	    7fa494cd146a _ZN7process11ProcessBase7consumeEONS_9HttpEventE+0x59a (/home/bevers/src/mesos/worktrees/state-benchmarking/build-alexr/src/.libs/libmesos-1.8.0.so)
	    7fa494ccd332 _ZN7process14ProcessManager6resumeEPNS_11ProcessBaseE+0x492 (/home/bevers/src/mesos/worktrees/state-benchmarking/build-alexr/src/.libs/libmesos-1.8.0.so)
	    7fa494cd3606 _ZNSt6thread11_State_implINS_8_InvokerISt5tupleIJZN7process14ProcessManager12init_threadsEvEUlvE_EEEEE6_M_runEv+0x46 (/home/bevers/src/mesos/worktrees/state-benchmarking/build-alexr/src/.libs/libmesos-1.8.0.so)
	    7fa491e43733 [unknown] (/usr/lib/x86_64-linux-gnu/libstdc++.so.6.0.25)

master@127.0.1.1:5050 14784 182029.119487:       5000 cycles:uh: 
	    7fa491b717a0 __pthread_mutex_unlock+0x0 (/lib/x86_64-linux-gnu/libpthread-2.27.so)
	    7fa494cd146a _ZN7process11ProcessBase7consumeEONS_9HttpEventE+0x59a (/home/bevers/src/mesos/worktrees/state-benchmarking/build-alexr/src/.libs/libmesos-1.8.0.so)
	    7fa494ccd332 _ZN7process14ProcessManager6resumeEPNS_11ProcessBaseE+0x492 (/home/bevers/src/mesos/worktrees/state-benchmarking/build-alexr/src/.libs/libmesos-1.8.0.so)
	    7fa494cd3606 _ZNSt6thread11_State_implINS_8_InvokerISt5tupleIJZN7process14ProcessManager12init_threadsEvEUlvE_EEEEE6_M_runEv+0x46 (/home/bevers/src/mesos/worktrees/state-benchmarking/build-alexr/src/.libs/libmesos-1.8.0.so)
	    7fa491e43733 [unknown] (/usr/lib/x86_64-linux-gnu/libstdc++.so.6.0.25)

master@127.0.1.1:5050 14784 182029.119490:       5000 cycles:uh: 
	    7fa49395172c _Z9stringifyIiENSt7__cxx1112basic_stringIcSt11char_traitsIcESaIcEEERKT_+0x8c (/home/bevers/src/mesos/worktrees/state-benchmarking/build-alexr/src/.libs/libmesos-1.8.0.so)
	    7fa494cbf8a8 _ZN7process2ID8generateERKNSt7__cxx1112basic_stringIcSt11char_traitsIcESaIcEEE+0x118 (/home/bevers/src/mesos/worktrees/state-benchmarking/build-alexr/src/.libs/libmesos-1.8.0.so)
	    7fa494cd146a _ZN7process11ProcessBase7consumeEONS_9HttpEventE+0x59a (/home/bevers/src/mesos/worktrees/state-benchmarking/build-alexr/src/.libs/libmesos-1.8.0.so)
	    7fa494ccd332 _ZN7process14ProcessManager6resumeEPNS_11ProcessBaseE+0x492 (/home/bevers/src/mesos/worktrees/state-benchmarking/build-alexr/src/.libs/libmesos-1.8.0.so)
	    7fa494cd3606 _ZNSt6thread11_State_implINS_8_InvokerISt5tupleIJZN7process14ProcessManager12init_threadsEvEUlvE_EEEEE6_M_runEv+0x46 (/home/bevers/src/mesos/worktrees/state-benchmarking/build-alexr/src/.libs/libmesos-1.8.0.so)
	    7fa491e43733 [unknown] (/usr/lib/x86_64-linux-gnu/libstdc++.so.6.0.25)

master@127.0.1.1:5050 14784 182029.119493:       5000 cycles:uh: 
	    7fa491e8e7ca _ZSt9has_facetISt5ctypeIcEEbRKSt6locale+0x2a (/usr/lib/x86_64-linux-gnu/libstdc++.so.6.0.25)
	               6 [unknown] ([unknown])
	               0 [unknown] ([unknown])

master@127.0.1.1:5050 14784 182029.119496:       5000 cycles:uh: 
	    7fa491e2a277 _ZNKSt6locale2id5_M_idEv+0x7 (/usr/lib/x86_64-linux-gnu/libstdc++.so.6.0.25)
	               6 [unknown] ([unknown])
	               0 [unknown] ([unknown])

master@127.0.1.1:5050 14784 182029.119499:       5000 cycles:uh: 
	    7fa491e9ce20 _ZNSolsEi+0x0 (/usr/lib/x86_64-linux-gnu/libstdc++.so.6.0.25)
	    7fa494cbf8a8 _ZN7process2ID8generateERKNSt7__cxx1112basic_stringIcSt11char_traitsIcESaIcEEE+0x118 (/home/bevers/src/mesos/worktrees/state-benchmarking/build-alexr/src/.libs/libmesos-1.8.0.so)
	    7fa494cd146a _ZN7process11ProcessBase7consumeEONS_9HttpEventE+0x59a (/home/bevers/src/mesos/worktrees/state-benchmarking/build-alexr/src/.libs/libmesos-1.8.0.so)
	    7fa494ccd332 _ZN7process14ProcessManager6resumeEPNS_11ProcessBaseE+0x492 (/home/bevers/src/mesos/worktrees/state-benchmarking/build-alexr/src/.libs/libmesos-1.8.0.so)
	    7fa494cd3606 _ZNSt6thread11_State_implINS_8_InvokerISt5tupleIJZN7process14ProcessManager12init_threadsEvEUlvE_EEEEE6_M_runEv+0x46 (/home/bevers/src/mesos/worktrees/state-benchmarking/build-alexr/src/.libs/libmesos-1.8.0.so)
	    7fa491e43733 [unknown] (/usr/lib/x86_64-linux-gnu/libstdc++.so.6.0.25)

master@127.0.1.1:5050 14784 182029.119502:       5000 cycles:uh: 
	    7fa491e0f630 _ZNSt7__cxx1115basic_stringbufIcSt11char_traitsIcESaIcEE8_M_pbumpEPcS5_l@plt+0x0 (/usr/lib/x86_64-linux-gnu/libstdc++.so.6.0.25)

master@127.0.1.1:5050 14784 182029.119505:       5000 cycles:uh: 
	    7fa491e424a0 _ZNSt8ios_base20_M_dispose_callbacksEv+0x0 (/usr/lib/x86_64-linux-gnu/libstdc++.so.6.0.25)
	    7fa494cbf8a8 _ZN7process2ID8generateERKNSt7__cxx1112basic_stringIcSt11char_traitsIcESaIcEEE+0x118 (/home/bevers/src/mesos/worktrees/state-benchmarking/build-alexr/src/.libs/libmesos-1.8.0.so)
	    7fa494cd146a _ZN7process11ProcessBase7consumeEONS_9HttpEventE+0x59a (/home/bevers/src/mesos/worktrees/state-benchmarking/build-alexr/src/.libs/libmesos-1.8.0.so)
	    7fa494ccd332 _ZN7process14ProcessManager6resumeEPNS_11ProcessBaseE+0x492 (/home/bevers/src/mesos/worktrees/state-benchmarking/build-alexr/src/.libs/libmesos-1.8.0.so)
	    7fa494cd3606 _ZNSt6thread11_State_implINS_8_InvokerISt5tupleIJZN7process14ProcessManager12init_threadsEvEUlvE_EEEEE6_M_runEv+0x46 (/home/bevers/src/mesos/worktrees/state-benchmarking/build-alexr/src/.libs/libmesos-1.8.0.so)
	    7fa491e43733 [unknown] (/usr/lib/x86_64-linux-gnu/libstdc++.so.6.0.25)

master@127.0.1.1:5050 14784 182029.119508:       5000 cycles:uh: 
	    55af36d507e0 _ZStplIcSt11char_traitsIcESaIcEENSt7__cxx1112basic_stringIT_T0_T1_EEOS8_S9_+0x0 (/home/bevers/src/mesos/worktrees/state-benchmarking/build-alexr/src/.libs/mesos-master)
	    7fa494cd146a _ZN7process11ProcessBase7consumeEONS_9HttpEventE+0x59a (/home/bevers/src/mesos/worktrees/state-benchmarking/build-alexr/src/.libs/libmesos-1.8.0.so)
	    7fa494ccd332 _ZN7process14ProcessManager6resumeEPNS_11ProcessBaseE+0x492 (/home/bevers/src/mesos/worktrees/state-benchmarking/build-alexr/src/.libs/libmesos-1.8.0.so)
	    7fa494cd3606 _ZNSt6thread11_State_implINS_8_InvokerISt5tupleIJZN7process14ProcessManager12init_threadsEvEUlvE_EEEEE6_M_runEv+0x46 (/home/bevers/src/mesos/worktrees/state-benchmarking/build-alexr/src/.libs/libmesos-1.8.0.so)
	    7fa491e43733 [unknown] (/usr/lib/x86_64-linux-gnu/libstdc++.so.6.0.25)

master@127.0.1.1:5050 14784 182029.119511:       5000 cycles:uh: 
	    7fa494cc8223 _ZN7process11ProcessBaseC2ERKNSt7__cxx1112basic_stringIcSt11char_traitsIcESaIcEEE+0x43 (/home/bevers/src/mesos/worktrees/state-benchmarking/build-alexr/src/.libs/libmesos-1.8.0.so)
	    7fa494cd1475 _ZN7process11ProcessBase7consumeEONS_9HttpEventE+0x5a5 (/home/bevers/src/mesos/worktrees/state-benchmarking/build-alexr/src/.libs/libmesos-1.8.0.so)
	    7fa494ccd332 _ZN7process14ProcessManager6resumeEPNS_11ProcessBaseE+0x492 (/home/bevers/src/mesos/worktrees/state-benchmarking/build-alexr/src/.libs/libmesos-1.8.0.so)
	    7fa494cd3606 _ZNSt6thread11_State_implINS_8_InvokerISt5tupleIJZN7process14ProcessManager12init_threadsEvEUlvE_EEEEE6_M_runEv+0x46 (/home/bevers/src/mesos/worktrees/state-benchmarking/build-alexr/src/.libs/libmesos-1.8.0.so)
	    7fa491e43733 [unknown] (/usr/lib/x86_64-linux-gnu/libstdc++.so.6.0.25)

master@127.0.1.1:5050 14784 182029.119514:       5000 cycles:uh: 
	    7fa494cc6c31 _ZN7process10initializeERK6OptionINSt7__cxx1112basic_stringIcSt11char_traitsIcESaIcEEEES9_S9_+0xdb1 (/home/bevers/src/mesos/worktrees/state-benchmarking/build-alexr/src/.libs/libmesos-1.8.0.so)
	    7fa494cc8544 _ZN7process11ProcessBaseC2ERKNSt7__cxx1112basic_stringIcSt11char_traitsIcESaIcEEE+0x364 (/home/bevers/src/mesos/worktrees/state-benchmarking/build-alexr/src/.libs/libmesos-1.8.0.so)
	    7fa494cd1475 _ZN7process11ProcessBase7consumeEONS_9HttpEventE+0x5a5 (/home/bevers/src/mesos/worktrees/state-benchmarking/build-alexr/src/.libs/libmesos-1.8.0.so)
	    7fa494ccd332 _ZN7process14ProcessManager6resumeEPNS_11ProcessBaseE+0x492 (/home/bevers/src/mesos/worktrees/state-benchmarking/build-alexr/src/.libs/libmesos-1.8.0.so)
	    7fa494cd3606 _ZNSt6thread11_State_implINS_8_InvokerISt5tupleIJZN7process14ProcessManager12init_threadsEvEUlvE_EEEEE6_M_runEv+0x46 (/home/bevers/src/mesos/worktrees/state-benchmarking/build-alexr/src/.libs/libmesos-1.8.0.so)
	    7fa491e43733 [unknown] (/usr/lib/x86_64-linux-gnu/libstdc++.so.6.0.25)

master@127.0.1.1:5050 14784 182029.119517:       5000 cycles:uh: 
	    7fa494bfc410 _ZN7process5Clock6pausedEv+0x0 (/home/bevers/src/mesos/worktrees/state-benchmarking/build-alexr/src/.libs/libmesos-1.8.0.so)
	    7fa494cd1475 _ZN7process11ProcessBase7consumeEONS_9HttpEventE+0x5a5 (/home/bevers/src/mesos/worktrees/state-benchmarking/build-alexr/src/.libs/libmesos-1.8.0.so)
	    7fa494ccd332 _ZN7process14ProcessManager6resumeEPNS_11ProcessBaseE+0x492 (/home/bevers/src/mesos/worktrees/state-benchmarking/build-alexr/src/.libs/libmesos-1.8.0.so)
	    7fa494cd3606 _ZNSt6thread11_State_implINS_8_InvokerISt5tupleIJZN7process14ProcessManager12init_threadsEvEUlvE_EEEEE6_M_runEv+0x46 (/home/bevers/src/mesos/worktrees/state-benchmarking/build-alexr/src/.libs/libmesos-1.8.0.so)
	    7fa491e43733 [unknown] (/usr/lib/x86_64-linux-gnu/libstdc++.so.6.0.25)

master@127.0.1.1:5050 14784 182029.119521:       5000 cycles:uh: 
	    55af36d578d0 _ZN7process8internal3runIN6lambda12CallableOnceIFvRKNS_6FutureI7NothingEEEEEJRS6_EEEvOSt6vectorIT_SaISD_EEDpOT0_+0x0 (/home/bevers/src/mesos/worktrees/state-benchmarking/build-alexr/src/.libs/mesos-master)
	    55af36d6231f _ZN7process6FutureI7NothingEC2EOS1_+0x13f (/home/bevers/src/mesos/worktrees/state-benchmarking/build-alexr/src/.libs/mesos-master)
	    7fa494cd14bf _ZN7process11ProcessBase7consumeEONS_9HttpEventE+0x5ef (/home/bevers/src/mesos/worktrees/state-benchmarking/build-alexr/src/.libs/libmesos-1.8.0.so)
	    7fa494ccd332 _ZN7process14ProcessManager6resumeEPNS_11ProcessBaseE+0x492 (/home/bevers/src/mesos/worktrees/state-benchmarking/build-alexr/src/.libs/libmesos-1.8.0.so)
	    7fa494cd3606 _ZNSt6thread11_State_implINS_8_InvokerISt5tupleIJZN7process14ProcessManager12init_threadsEvEUlvE_EEEEE6_M_runEv+0x46 (/home/bevers/src/mesos/worktrees/state-benchmarking/build-alexr/src/.libs/libmesos-1.8.0.so)
	    7fa491e43733 [unknown] (/usr/lib/x86_64-linux-gnu/libstdc++.so.6.0.25)

master@127.0.1.1:5050 14784 182029.119524:       5000 cycles:uh: 
	    7fa493ab1020 _Z11synchronizeISt15recursive_mutexE12SynchronizedIT_EPS2_+0x0 (/home/bevers/src/mesos/worktrees/state-benchmarking/build-alexr/src/.libs/libmesos-1.8.0.so)
	    7fa494cc8a4c _ZN7process5spawnEPNS_11ProcessBaseEb+0xec (/home/bevers/src/mesos/worktrees/state-benchmarking/build-alexr/src/.libs/libmesos-1.8.0.so)
	    7fa494cd14f8 _ZN7process11ProcessBase7consumeEONS_9HttpEventE+0x628 (/home/bevers/src/mesos/worktrees/state-benchmarking/build-alexr/src/.libs/libmesos-1.8.0.so)
	    7fa494ccd332 _ZN7process14ProcessManager6resumeEPNS_11ProcessBaseE+0x492 (/home/bevers/src/mesos/worktrees/state-benchmarking/build-alexr/src/.libs/libmesos-1.8.0.so)
	    7fa494cd3606 _ZNSt6thread11_State_implINS_8_InvokerISt5tupleIJZN7process14ProcessManager12init_threadsEvEUlvE_EEEEE6_M_runEv+0x46 (/home/bevers/src/mesos/worktrees/state-benchmarking/build-alexr/src/.libs/libmesos-1.8.0.so)
	    7fa491e43733 [unknown] (/usr/lib/x86_64-linux-gnu/libstdc++.so.6.0.25)

master@127.0.1.1:5050 14784 182029.119527:       5000 cycles:uh: 
	    7fa49180c20a malloc+0x19a (/lib/x86_64-linux-gnu/libc-2.27.so)

master@127.0.1.1:5050 14784 182029.119529:       5000 cycles:uh: 
	    7fa491809358 _int_malloc+0x88 (/lib/x86_64-linux-gnu/libc-2.27.so)
	               1 [unknown] ([unknown])

master@127.0.1.1:5050 14784 182029.119535:       5000 cycles:uh: 
	    7fa494cd14f8 _ZN7process11ProcessBase7consumeEONS_9HttpEventE+0x628 (/home/bevers/src/mesos/worktrees/state-benchmarking/build-alexr/src/.libs/libmesos-1.8.0.so)
	    7fa494ccd332 _ZN7process14ProcessManager6resumeEPNS_11ProcessBaseE+0x492 (/home/bevers/src/mesos/worktrees/state-benchmarking/build-alexr/src/.libs/libmesos-1.8.0.so)
	    7fa494cd3606 _ZNSt6thread11_State_implINS_8_InvokerISt5tupleIJZN7process14ProcessManager12init_threadsEvEUlvE_EEEEE6_M_runEv+0x46 (/home/bevers/src/mesos/worktrees/state-benchmarking/build-alexr/src/.libs/libmesos-1.8.0.so)
	    7fa491e43733 [unknown] (/usr/lib/x86_64-linux-gnu/libstdc++.so.6.0.25)

master@127.0.1.1:5050 14784 182029.119539:       5000 cycles:uh: 
	    7fa493aaf4f0 _ZNK7process4UPIDntEv+0x0 (/home/bevers/src/mesos/worktrees/state-benchmarking/build-alexr/src/.libs/libmesos-1.8.0.so)
	    7fa494ccd332 _ZN7process14ProcessManager6resumeEPNS_11ProcessBaseE+0x492 (/home/bevers/src/mesos/worktrees/state-benchmarking/build-alexr/src/.libs/libmesos-1.8.0.so)
	    7fa494cd3606 _ZNSt6thread11_State_implINS_8_InvokerISt5tupleIJZN7process14ProcessManager12init_threadsEvEUlvE_EEEEE6_M_runEv+0x46 (/home/bevers/src/mesos/worktrees/state-benchmarking/build-alexr/src/.libs/libmesos-1.8.0.so)
	    7fa491e43733 [unknown] (/usr/lib/x86_64-linux-gnu/libstdc++.so.6.0.25)

master@127.0.1.1:5050 14784 182029.119544:       5000 cycles:uh: 
	    7fa4938c3e40 _ZN7process5OwnedINS_8SequenceEE5resetEPS1_@plt+0x0 (/home/bevers/src/mesos/worktrees/state-benchmarking/build-alexr/src/.libs/libmesos-1.8.0.so)
	    7fa494ccd332 _ZN7process14ProcessManager6resumeEPNS_11ProcessBaseE+0x492 (/home/bevers/src/mesos/worktrees/state-benchmarking/build-alexr/src/.libs/libmesos-1.8.0.so)
	    7fa494cd3606 _ZNSt6thread11_State_implINS_8_InvokerISt5tupleIJZN7process14ProcessManager12init_threadsEvEUlvE_EEEEE6_M_runEv+0x46 (/home/bevers/src/mesos/worktrees/state-benchmarking/build-alexr/src/.libs/libmesos-1.8.0.so)
	    7fa491e43733 [unknown] (/usr/lib/x86_64-linux-gnu/libstdc++.so.6.0.25)

master@127.0.1.1:5050 14784 182029.119547:       5000 cycles:uh: 
	    7fa49180c076 malloc+0x6 (/lib/x86_64-linux-gnu/libc-2.27.so)
	    7fa494cd1542 _ZN7process11ProcessBase7consumeEONS_9HttpEventE+0x672 (/home/bevers/src/mesos/worktrees/state-benchmarking/build-alexr/src/.libs/libmesos-1.8.0.so)
	    7fa494ccd332 _ZN7process14ProcessManager6resumeEPNS_11ProcessBaseE+0x492 (/home/bevers/src/mesos/worktrees/state-benchmarking/build-alexr/src/.libs/libmesos-1.8.0.so)
	    7fa494cd3606 _ZNSt6thread11_State_implINS_8_InvokerISt5tupleIJZN7process14ProcessManager12init_threadsEvEUlvE_EEEEE6_M_runEv+0x46 (/home/bevers/src/mesos/worktrees/state-benchmarking/build-alexr/src/.libs/libmesos-1.8.0.so)
	    7fa491e43733 [unknown] (/usr/lib/x86_64-linux-gnu/libstdc++.so.6.0.25)

master@127.0.1.1:5050 14784 182029.119550:       5000 cycles:uh: 
	    7fa491903590 __strlen_avx2+0x0 (/lib/x86_64-linux-gnu/libc-2.27.so)
	    7fa494cd106a _ZN7process11ProcessBase7consumeEONS_9HttpEventE+0x19a (/home/bevers/src/mesos/worktrees/state-benchmarking/build-alexr/src/.libs/libmesos-1.8.0.so)
	    7fa494ccd332 _ZN7process14ProcessManager6resumeEPNS_11ProcessBaseE+0x492 (/home/bevers/src/mesos/worktrees/state-benchmarking/build-alexr/src/.libs/libmesos-1.8.0.so)
	    7fa494cd3606 _ZNSt6thread11_State_implINS_8_InvokerISt5tupleIJZN7process14ProcessManager12init_threadsEvEUlvE_EEEEE6_M_runEv+0x46 (/home/bevers/src/mesos/worktrees/state-benchmarking/build-alexr/src/.libs/libmesos-1.8.0.so)
	    7fa491e43733 [unknown] (/usr/lib/x86_64-linux-gnu/libstdc++.so.6.0.25)

master@127.0.1.1:5050 14784 182029.119554:       5000 cycles:uh: 
	    55af36d5320d _ZNSt6vectorINSt7__cxx1112basic_stringIcSt11char_traitsIcESaIcEEESaIS5_EE12emplace_backIJS5_EEEvDpOT_+0x24d (/home/bevers/src/mesos/worktrees/state-benchmarking/build-alexr/src/.libs/mesos-master)
	    55af36d53623 _ZN7strings8tokenizeERKNSt7__cxx1112basic_stringIcSt11char_traitsIcESaIcEEES7_RK6OptionImE+0x133 (/home/bevers/src/mesos/worktrees/state-benchmarking/build-alexr/src/.libs/mesos-master)
	    7fa494cd108d _ZN7process11ProcessBase7consumeEONS_9HttpEventE+0x1bd (/home/bevers/src/mesos/worktrees/state-benchmarking/build-alexr/src/.libs/libmesos-1.8.0.so)
	    7fa494ccd332 _ZN7process14ProcessManager6resumeEPNS_11ProcessBaseE+0x492 (/home/bevers/src/mesos/worktrees/state-benchmarking/build-alexr/src/.libs/libmesos-1.8.0.so)
	    7fa494cd3606 _ZNSt6thread11_State_implINS_8_InvokerISt5tupleIJZN7process14ProcessManager12init_threadsEvEUlvE_EEEEE6_M_runEv+0x46 (/home/bevers/src/mesos/worktrees/state-benchmarking/build-alexr/src/.libs/libmesos-1.8.0.so)
	    7fa491e43733 [unknown] (/usr/lib/x86_64-linux-gnu/libstdc++.so.6.0.25)

master@127.0.1.1:5050 14784 182029.119557:       5000 cycles:uh: 
	    7fa491ea3db0 _ZNSt7__cxx1119basic_ostringstreamIcSt11char_traitsIcESaIcEEC1ESt13_Ios_Openmode+0x0 (/usr/lib/x86_64-linux-gnu/libstdc++.so.6.0.25)
	    7fa494cd10be _ZN7process11ProcessBase7consumeEONS_9HttpEventE+0x1ee (/home/bevers/src/mesos/worktrees/state-benchmarking/build-alexr/src/.libs/libmesos-1.8.0.so)
	    7fa494ccd332 _ZN7process14ProcessManager6resumeEPNS_11ProcessBaseE+0x492 (/home/bevers/src/mesos/worktrees/state-benchmarking/build-alexr/src/.libs/libmesos-1.8.0.so)
	    7fa494cd3606 _ZNSt6thread11_State_implINS_8_InvokerISt5tupleIJZN7process14ProcessManager12init_threadsEvEUlvE_EEEEE6_M_runEv+0x46 (/home/bevers/src/mesos/worktrees/state-benchmarking/build-alexr/src/.libs/libmesos-1.8.0.so)
	    7fa491e43733 [unknown] (/usr/lib/x86_64-linux-gnu/libstdc++.so.6.0.25)

master@127.0.1.1:5050 14784 182029.119560:       5000 cycles:uh: 
	    7fa491e9c722 _ZSt16__ostream_insertIcSt11char_traitsIcEERSt13basic_ostreamIT_T0_ES6_PKS3_l+0x102 (/usr/lib/x86_64-linux-gnu/libstdc++.so.6.0.25)
	               6 [unknown] ([unknown])
	    7fa491ea0de0 _ZTv0_n24_NSt7__cxx1119basic_ostringstreamIcSt11char_traitsIcESaIcEED0Ev+0x0 (/usr/lib/x86_64-linux-gnu/libstdc++.so.6.0.25)
	2d058b48e8588b48 [unknown] ([unknown])

master@127.0.1.1:5050 14784 182029.119562:       5000 cycles:uh: 
	    55af36d4fba0 _ZN3TryINSt7__cxx1112basic_stringIcSt11char_traitsIcESaIcEEE5ErrorED2Ev+0x0 (/home/bevers/src/mesos/worktrees/state-benchmarking/build-alexr/src/.libs/mesos-master)
	    7fa494ccd332 _ZN7process14ProcessManager6resumeEPNS_11ProcessBaseE+0x492 (/home/bevers/src/mesos/worktrees/state-benchmarking/build-alexr/src/.libs/libmesos-1.8.0.so)
	    7fa494cd3606 _ZNSt6thread11_State_implINS_8_InvokerISt5tupleIJZN7process14ProcessManager12init_threadsEvEUlvE_EEEEE6_M_runEv+0x46 (/home/bevers/src/mesos/worktrees/state-benchmarking/build-alexr/src/.libs/libmesos-1.8.0.so)
	    7fa491e43733 [unknown] (/usr/lib/x86_64-linux-gnu/libstdc++.so.6.0.25)

master@127.0.1.1:5050 14784 182029.119565:       5000 cycles:uh: 
	    7fa4938b3aa0 _ZNKSt7__cxx1112basic_stringIcSt11char_traitsIcESaIcEE4findEPKcmm@plt+0x0 (/home/bevers/src/mesos/worktrees/state-benchmarking/build-alexr/src/.libs/libmesos-1.8.0.so)
	    7fa494cd11e7 _ZN7process11ProcessBase7consumeEONS_9HttpEventE+0x317 (/home/bevers/src/mesos/worktrees/state-benchmarking/build-alexr/src/.libs/libmesos-1.8.0.so)
	    7fa494ccd332 _ZN7process14ProcessManager6resumeEPNS_11ProcessBaseE+0x492 (/home/bevers/src/mesos/worktrees/state-benchmarking/build-alexr/src/.libs/libmesos-1.8.0.so)
	    7fa494cd3606 _ZNSt6thread11_State_implINS_8_InvokerISt5tupleIJZN7process14ProcessManager12init_threadsEvEUlvE_EEEEE6_M_runEv+0x46 (/home/bevers/src/mesos/worktrees/state-benchmarking/build-alexr/src/.libs/libmesos-1.8.0.so)
	    7fa491e43733 [unknown] (/usr/lib/x86_64-linux-gnu/libstdc++.so.6.0.25)

master@127.0.1.1:5050 14784 182029.119568:       5000 cycles:uh: 
	    7fa495d43106 _dl_lookup_symbol_x+0x56 (/lib/x86_64-linux-gnu/ld-2.27.so)

master@127.0.1.1:5050 14784 182029.119574:       5000 cycles:uh: 
	    7fa4938a9670 _ZNKSt7__cxx1112basic_stringIcSt11char_traitsIcESaIcEE16find_last_not_ofEPKcmm@plt+0x0 (/home/bevers/src/mesos/worktrees/state-benchmarking/build-alexr/src/.libs/libmesos-1.8.0.so)
	    7fa494cd128e _ZN7process11ProcessBase7consumeEONS_9HttpEventE+0x3be (/home/bevers/src/mesos/worktrees/state-benchmarking/build-alexr/src/.libs/libmesos-1.8.0.so)
	    7fa494ccd332 _ZN7process14ProcessManager6resumeEPNS_11ProcessBaseE+0x492 (/home/bevers/src/mesos/worktrees/state-benchmarking/build-alexr/src/.libs/libmesos-1.8.0.so)
	    7fa494cd3606 _ZNSt6thread11_State_implINS_8_InvokerISt5tupleIJZN7process14ProcessManager12init_threadsEvEUlvE_EEEEE6_M_runEv+0x46 (/home/bevers/src/mesos/worktrees/state-benchmarking/build-alexr/src/.libs/libmesos-1.8.0.so)
	    7fa491e43733 [unknown] (/usr/lib/x86_64-linux-gnu/libstdc++.so.6.0.25)

master@127.0.1.1:5050 14784 182029.119577:       5000 cycles:uh: 
	    7fa495d422fb do_lookup_x+0xbb (/lib/x86_64-linux-gnu/ld-2.27.so)

master@127.0.1.1:5050 14784 182029.119580:       5000 cycles:uh: 
	    7fa495d43106 _dl_lookup_symbol_x+0x56 (/lib/x86_64-linux-gnu/ld-2.27.so)

master@127.0.1.1:5050 14784 182029.119583:       5000 cycles:uh: 
	    7fa494cd13b8 _ZN7process11ProcessBase7consumeEONS_9HttpEventE+0x4e8 (/home/bevers/src/mesos/worktrees/state-benchmarking/build-alexr/src/.libs/libmesos-1.8.0.so)
	    7fa494ccd332 _ZN7process14ProcessManager6resumeEPNS_11ProcessBaseE+0x492 (/home/bevers/src/mesos/worktrees/state-benchmarking/build-alexr/src/.libs/libmesos-1.8.0.so)
	    7fa494cd3606 _ZNSt6thread11_State_implINS_8_InvokerISt5tupleIJZN7process14ProcessManager12init_threadsEvEUlvE_EEEEE6_M_runEv+0x46 (/home/bevers/src/mesos/worktrees/state-benchmarking/build-alexr/src/.libs/libmesos-1.8.0.so)
	    7fa491e43733 [unknown] (/usr/lib/x86_64-linux-gnu/libstdc++.so.6.0.25)

master@127.0.1.1:5050 14784 182029.119586:       5000 cycles:uh: 
	    7fa495d42709 do_lookup_x+0x4c9 (/lib/x86_64-linux-gnu/ld-2.27.so)
	               0 [unknown] ([unknown])

master@127.0.1.1:5050 14784 182029.119589:       5000 cycles:uh: 
	    7fa4938a4000 _ZNSt10_HashtableINSt7__cxx1112basic_stringIcSt11char_traitsIcESaIcEEESt4pairIKS5_S5_ESaIS8_ENSt8__detail10_Select1stESt8equal_toIS5_ESt4hashIS5_ENSA_18_Mod_range_hashingENSA_20_Default_ranged_hashENSA_20_Prime_rehash_policyENSA_17_Hashtable_traitsILb1ELb0ELb1EEEE9_M_assignIZNSL_C4ERKSL_EUlPKNSA_10_Hash_nodeIS8_Lb1EEEE_EEvSO_RKT_@plt+0x0 (/home/bevers/src/mesos/worktrees/state-benchmarking/build-alexr/src/.libs/libmesos-1.8.0.so)
	    7fa494cd1637 _ZN7process11ProcessBase7consumeEONS_9HttpEventE+0x767 (/home/bevers/src/mesos/worktrees/state-benchmarking/build-alexr/src/.libs/libmesos-1.8.0.so)
	    7fa494ccd332 _ZN7process14ProcessManager6resumeEPNS_11ProcessBaseE+0x492 (/home/bevers/src/mesos/worktrees/state-benchmarking/build-alexr/src/.libs/libmesos-1.8.0.so)
	    7fa494cd3606 _ZNSt6thread11_State_implINS_8_InvokerISt5tupleIJZN7process14ProcessManager12init_threadsEvEUlvE_EEEEE6_M_runEv+0x46 (/home/bevers/src/mesos/worktrees/state-benchmarking/build-alexr/src/.libs/libmesos-1.8.0.so)
	    7fa491e43733 [unknown] (/usr/lib/x86_64-linux-gnu/libstdc++.so.6.0.25)

master@127.0.1.1:5050 14784 182029.119592:       5000 cycles:uh: 
	    7fa491903ae7 __memmove_avx_unaligned_erms+0x17 (/lib/x86_64-linux-gnu/libc-2.27.so)
	    55af36d4e4af _ZNSt8__detail16_Hashtable_allocISaINS_10_Hash_nodeISt4pairIKNSt7__cxx1112basic_stringIcSt11char_traitsIcESaIcEEES8_ELb1EEEEE16_M_allocate_nodeIJRKSA_EEEPSB_DpOT_.isra.399+0x5f (/home/bevers/src/mesos/worktrees/state-benchmarking/build-alexr/src/.libs/mesos-master)
	    55af36d55a97 _ZNSt10_HashtableINSt7__cxx1112basic_stringIcSt11char_traitsIcESaIcEEESt4pairIKS5_S5_ESaIS8_ENSt8__detail10_Select1stEN7process4http20CaseInsensitiveEqualENSD_19CaseInsensitiveHashENSA_18_Mod_range_hashingENSA_20_Default_ranged_hashENSA_20_Prime_rehash_policyENSA_17_Hashtable_traitsILb1ELb0ELb1EEEE9_M_assignIZNSL_C4ERKSL_EUlPKNSA_10_Hash_nodeIS8_Lb1EEEE_EEvSO_RKT_+0x87 (/home/bevers/src/mesos/worktrees/state-benchmarking/build-alexr/src/.libs/mesos-master)
	    7fa493978fe7 _ZN7process4http7RequestC2ERKS1_+0x1d7 (/home/bevers/src/mesos/worktrees/state-benchmarking/build-alexr/src/.libs/libmesos-1.8.0.so)
	    7fa494cd1637 _ZN7process11ProcessBase7consumeEONS_9HttpEventE+0x767 (/home/bevers/src/mesos/worktrees/state-benchmarking/build-alexr/src/.libs/libmesos-1.8.0.so)
	    7fa494ccd332 _ZN7process14ProcessManager6resumeEPNS_11ProcessBaseE+0x492 (/home/bevers/src/mesos/worktrees/state-benchmarking/build-alexr/src/.libs/libmesos-1.8.0.so)
	    7fa494cd3606 _ZNSt6thread11_State_implINS_8_InvokerISt5tupleIJZN7process14ProcessManager12init_threadsEvEUlvE_EEEEE6_M_runEv+0x46 (/home/bevers/src/mesos/worktrees/state-benchmarking/build-alexr/src/.libs/libmesos-1.8.0.so)
	    7fa491e43733 [unknown] (/usr/lib/x86_64-linux-gnu/libstdc++.so.6.0.25)

master@127.0.1.1:5050 14784 182029.119595:       5000 cycles:uh: 
	    7fa495d47e68 _dl_fixup+0x78 (/lib/x86_64-linux-gnu/ld-2.27.so)
	    7fa494ccd332 _ZN7process14ProcessManager6resumeEPNS_11ProcessBaseE+0x492 (/home/bevers/src/mesos/worktrees/state-benchmarking/build-alexr/src/.libs/libmesos-1.8.0.so)
	    7fa494cd3606 _ZNSt6thread11_State_implINS_8_InvokerISt5tupleIJZN7process14ProcessManager12init_threadsEvEUlvE_EEEEE6_M_runEv+0x46 (/home/bevers/src/mesos/worktrees/state-benchmarking/build-alexr/src/.libs/libmesos-1.8.0.so)
	    7fa491e43733 [unknown] (/usr/lib/x86_64-linux-gnu/libstdc++.so.6.0.25)

master@127.0.1.1:5050 14784 182029.119598:       5000 cycles:uh: 
	    7fa494c663e0 _ZN6google12CheckNotNullIN7process4http7RequestEEEPT_PKciS7_S5_+0x0 (/home/bevers/src/mesos/worktrees/state-benchmarking/build-alexr/src/.libs/libmesos-1.8.0.so)
	    7fa494cd1649 _ZN7process11ProcessBase7consumeEONS_9HttpEventE+0x779 (/home/bevers/src/mesos/worktrees/state-benchmarking/build-alexr/src/.libs/libmesos-1.8.0.so)
	    7fa494ccd332 _ZN7process14ProcessManager6resumeEPNS_11ProcessBaseE+0x492 (/home/bevers/src/mesos/worktrees/state-benchmarking/build-alexr/src/.libs/libmesos-1.8.0.so)
	    7fa494cd3606 _ZNSt6thread11_State_implINS_8_InvokerISt5tupleIJZN7process14ProcessManager12init_threadsEvEUlvE_EEEEE6_M_runEv+0x46 (/home/bevers/src/mesos/worktrees/state-benchmarking/build-alexr/src/.libs/libmesos-1.8.0.so)
	    7fa491e43733 [unknown] (/usr/lib/x86_64-linux-gnu/libstdc++.so.6.0.25)

master@127.0.1.1:5050 14784 182029.119601:       5000 cycles:uh: 
	    7fa495d430cd _dl_lookup_symbol_x+0x1d (/lib/x86_64-linux-gnu/ld-2.27.so)
	    7fa494ccd332 _ZN7process14ProcessManager6resumeEPNS_11ProcessBaseE+0x492 (/home/bevers/src/mesos/worktrees/state-benchmarking/build-alexr/src/.libs/libmesos-1.8.0.so)
	    7fa494cd3606 _ZNSt6thread11_State_implINS_8_InvokerISt5tupleIJZN7process14ProcessManager12init_threadsEvEUlvE_EEEEE6_M_runEv+0x46 (/home/bevers/src/mesos/worktrees/state-benchmarking/build-alexr/src/.libs/libmesos-1.8.0.so)
	    7fa491e43733 [unknown] (/usr/lib/x86_64-linux-gnu/libstdc++.so.6.0.25)

master@127.0.1.1:5050 14784 182029.119604:       5000 cycles:uh: 
	    7fa495d4f763 _dl_runtime_resolve_xsavec+0x13 (/lib/x86_64-linux-gnu/ld-2.27.so)
	    7fa494ccd332 _ZN7process14ProcessManager6resumeEPNS_11ProcessBaseE+0x492 (/home/bevers/src/mesos/worktrees/state-benchmarking/build-alexr/src/.libs/libmesos-1.8.0.so)
	    7fa494cd3606 _ZNSt6thread11_State_implINS_8_InvokerISt5tupleIJZN7process14ProcessManager12init_threadsEvEUlvE_EEEEE6_M_runEv+0x46 (/home/bevers/src/mesos/worktrees/state-benchmarking/build-alexr/src/.libs/libmesos-1.8.0.so)
	    7fa491e43733 [unknown] (/usr/lib/x86_64-linux-gnu/libstdc++.so.6.0.25)

master@127.0.1.1:5050 14784 182029.119607:       5000 cycles:uh: 
	    7fa495d47e4b _dl_fixup+0x5b (/lib/x86_64-linux-gnu/ld-2.27.so)
	    7fa494ccd332 _ZN7process14ProcessManager6resumeEPNS_11ProcessBaseE+0x492 (/home/bevers/src/mesos/worktrees/state-benchmarking/build-alexr/src/.libs/libmesos-1.8.0.so)
	    7fa494cd3606 _ZNSt6thread11_State_implINS_8_InvokerISt5tupleIJZN7process14ProcessManager12init_threadsEvEUlvE_EEEEE6_M_runEv+0x46 (/home/bevers/src/mesos/worktrees/state-benchmarking/build-alexr/src/.libs/libmesos-1.8.0.so)
	    7fa491e43733 [unknown] (/usr/lib/x86_64-linux-gnu/libstdc++.so.6.0.25)

master@127.0.1.1:5050 14784 182029.119613:       5000 cycles:uh: 
	    7fa4938a8856 _ZN7process6FutureINSt7__cxx1112basic_stringIcSt11char_traitsIcESaIcEEEEC1Ev@plt+0x6 (/home/bevers/src/mesos/worktrees/state-benchmarking/build-alexr/src/.libs/libmesos-1.8.0.so)
	    7fa494cd1739 _ZN7process11ProcessBase7consumeEONS_9HttpEventE+0x869 (/home/bevers/src/mesos/worktrees/state-benchmarking/build-alexr/src/.libs/libmesos-1.8.0.so)
	    7fa494ccd332 _ZN7process14ProcessManager6resumeEPNS_11ProcessBaseE+0x492 (/home/bevers/src/mesos/worktrees/state-benchmarking/build-alexr/src/.libs/libmesos-1.8.0.so)
	    7fa494cd3606 _ZNSt6thread11_State_implINS_8_InvokerISt5tupleIJZN7process14ProcessManager12init_threadsEvEUlvE_EEEEE6_M_runEv+0x46 (/home/bevers/src/mesos/worktrees/state-benchmarking/build-alexr/src/.libs/libmesos-1.8.0.so)
	    7fa491e43733 [unknown] (/usr/lib/x86_64-linux-gnu/libstdc++.so.6.0.25)

master@127.0.1.1:5050 14784 182029.119616:       5000 cycles:uh: 
	    7fa495d47e4b _dl_fixup+0x5b (/lib/x86_64-linux-gnu/ld-2.27.so)
	    7fa494cd1739 _ZN7process11ProcessBase7consumeEONS_9HttpEventE+0x869 (/home/bevers/src/mesos/worktrees/state-benchmarking/build-alexr/src/.libs/libmesos-1.8.0.so)
	    7fa494ccd332 _ZN7process14ProcessManager6resumeEPNS_11ProcessBaseE+0x492 (/home/bevers/src/mesos/worktrees/state-benchmarking/build-alexr/src/.libs/libmesos-1.8.0.so)
	    7fa494cd3606 _ZNSt6thread11_State_implINS_8_InvokerISt5tupleIJZN7process14ProcessManager12init_threadsEvEUlvE_EEEEE6_M_runEv+0x46 (/home/bevers/src/mesos/worktrees/state-benchmarking/build-alexr/src/.libs/libmesos-1.8.0.so)
	    7fa491e43733 [unknown] (/usr/lib/x86_64-linux-gnu/libstdc++.so.6.0.25)

master@127.0.1.1:5050 14784 182029.119619:       5000 cycles:uh: 
	    7fa495d47e1d _dl_fixup+0x2d (/lib/x86_64-linux-gnu/ld-2.27.so)
	    7fa494cd1739 _ZN7process11ProcessBase7consumeEONS_9HttpEventE+0x869 (/home/bevers/src/mesos/worktrees/state-benchmarking/build-alexr/src/.libs/libmesos-1.8.0.so)
	    7fa494ccd332 _ZN7process14ProcessManager6resumeEPNS_11ProcessBaseE+0x492 (/home/bevers/src/mesos/worktrees/state-benchmarking/build-alexr/src/.libs/libmesos-1.8.0.so)
	    7fa494cd3606 _ZNSt6thread11_State_implINS_8_InvokerISt5tupleIJZN7process14ProcessManager12init_threadsEvEUlvE_EEEEE6_M_runEv+0x46 (/home/bevers/src/mesos/worktrees/state-benchmarking/build-alexr/src/.libs/libmesos-1.8.0.so)
	    7fa491e43733 [unknown] (/usr/lib/x86_64-linux-gnu/libstdc++.so.6.0.25)

master@127.0.1.1:5050 14784 182029.119621:       5000 cycles:uh: 
	    7fa495d43106 _dl_lookup_symbol_x+0x56 (/lib/x86_64-linux-gnu/ld-2.27.so)

master@127.0.1.1:5050 14784 182029.119624:       5000 cycles:uh: 
	    7fa491e18534 _Znwm+0x4 (/usr/lib/x86_64-linux-gnu/libstdc++.so.6.0.25)
	    7fa494c2b948 _ZN7process4http4Pipe6Reader7readAllB5cxx11Ev+0x538 (/home/bevers/src/mesos/worktrees/state-benchmarking/build-alexr/src/.libs/libmesos-1.8.0.so)
	    7fa494cd1739 _ZN7process11ProcessBase7consumeEONS_9HttpEventE+0x869 (/home/bevers/src/mesos/worktrees/state-benchmarking/build-alexr/src/.libs/libmesos-1.8.0.so)
	    7fa494ccd332 _ZN7process14ProcessManager6resumeEPNS_11ProcessBaseE+0x492 (/home/bevers/src/mesos/worktrees/state-benchmarking/build-alexr/src/.libs/libmesos-1.8.0.so)
	    7fa494cd3606 _ZNSt6thread11_State_implINS_8_InvokerISt5tupleIJZN7process14ProcessManager12init_threadsEvEUlvE_EEEEE6_M_runEv+0x46 (/home/bevers/src/mesos/worktrees/state-benchmarking/build-alexr/src/.libs/libmesos-1.8.0.so)
	    7fa491e43733 [unknown] (/usr/lib/x86_64-linux-gnu/libstdc++.so.6.0.25)

master@127.0.1.1:5050 14784 182029.119627:       5000 cycles:uh: 
	    7fa49390e956 _ZN7process6FutureINSt7__cxx1112basic_stringIcSt11char_traitsIcESaIcEEEEC1IA1_cEERKT_@plt+0x6 (/home/bevers/src/mesos/worktrees/state-benchmarking/build-alexr/src/.libs/libmesos-1.8.0.so)
	    7fa494c2b711 _ZN7process4http4Pipe6Reader7readAllB5cxx11Ev+0x301 (/home/bevers/src/mesos/worktrees/state-benchmarking/build-alexr/src/.libs/libmesos-1.8.0.so)
	    7fa494cd1739 _ZN7process11ProcessBase7consumeEONS_9HttpEventE+0x869 (/home/bevers/src/mesos/worktrees/state-benchmarking/build-alexr/src/.libs/libmesos-1.8.0.so)
	    7fa494ccd332 _ZN7process14ProcessManager6resumeEPNS_11ProcessBaseE+0x492 (/home/bevers/src/mesos/worktrees/state-benchmarking/build-alexr/src/.libs/libmesos-1.8.0.so)
	    7fa494cd3606 _ZNSt6thread11_State_implINS_8_InvokerISt5tupleIJZN7process14ProcessManager12init_threadsEvEUlvE_EEEEE6_M_runEv+0x46 (/home/bevers/src/mesos/worktrees/state-benchmarking/build-alexr/src/.libs/libmesos-1.8.0.so)
	    7fa491e43733 [unknown] (/usr/lib/x86_64-linux-gnu/libstdc++.so.6.0.25)

master@127.0.1.1:5050 14784 182029.119630:       5000 cycles:uh: 
	    7fa4938a2b06 _ZN7process6FutureINSt7__cxx1112basic_stringIcSt11char_traitsIcESaIcEEEE4_setIS6_EEbOT_@plt+0x6 (/home/bevers/src/mesos/worktrees/state-benchmarking/build-alexr/src/.libs/libmesos-1.8.0.so)
	    7fa494c1a20f _ZN7process4http4Pipe6Reader4readB5cxx11Ev+0x2ef (/home/bevers/src/mesos/worktrees/state-benchmarking/build-alexr/src/.libs/libmesos-1.8.0.so)
	    7fa494c2b711 _ZN7process4http4Pipe6Reader7readAllB5cxx11Ev+0x301 (/home/bevers/src/mesos/worktrees/state-benchmarking/build-alexr/src/.libs/libmesos-1.8.0.so)
	    7fa494cd1739 _ZN7process11ProcessBase7consumeEONS_9HttpEventE+0x869 (/home/bevers/src/mesos/worktrees/state-benchmarking/build-alexr/src/.libs/libmesos-1.8.0.so)
	    7fa494ccd332 _ZN7process14ProcessManager6resumeEPNS_11ProcessBaseE+0x492 (/home/bevers/src/mesos/worktrees/state-benchmarking/build-alexr/src/.libs/libmesos-1.8.0.so)
	    7fa494cd3606 _ZNSt6thread11_State_implINS_8_InvokerISt5tupleIJZN7process14ProcessManager12init_threadsEvEUlvE_EEEEE6_M_runEv+0x46 (/home/bevers/src/mesos/worktrees/state-benchmarking/build-alexr/src/.libs/libmesos-1.8.0.so)
	    7fa491e43733 [unknown] (/usr/lib/x86_64-linux-gnu/libstdc++.so.6.0.25)

master@127.0.1.1:5050 14784 182029.119636:       5000 cycles:uh: 
	    7fa495d4f7bd _dl_runtime_resolve_xsavec+0x6d (/lib/x86_64-linux-gnu/ld-2.27.so)
	    7fa494c4611d _ZN7process6FutureINSt7__cxx1112basic_stringIcSt11char_traitsIcESaIcEEEEC2IA1_cEERKT_+0x16d (/home/bevers/src/mesos/worktrees/state-benchmarking/build-alexr/src/.libs/libmesos-1.8.0.so)
	    7fa494c1a20f _ZN7process4http4Pipe6Reader4readB5cxx11Ev+0x2ef (/home/bevers/src/mesos/worktrees/state-benchmarking/build-alexr/src/.libs/libmesos-1.8.0.so)
	    7fa494c2b711 _ZN7process4http4Pipe6Reader7readAllB5cxx11Ev+0x301 (/home/bevers/src/mesos/worktrees/state-benchmarking/build-alexr/src/.libs/libmesos-1.8.0.so)
	    7fa494cd1739 _ZN7process11ProcessBase7consumeEONS_9HttpEventE+0x869 (/home/bevers/src/mesos/worktrees/state-benchmarking/build-alexr/src/.libs/libmesos-1.8.0.so)
	    7fa494ccd332 _ZN7process14ProcessManager6resumeEPNS_11ProcessBaseE+0x492 (/home/bevers/src/mesos/worktrees/state-benchmarking/build-alexr/src/.libs/libmesos-1.8.0.so)
	    7fa494cd3606 _ZNSt6thread11_State_implINS_8_InvokerISt5tupleIJZN7process14ProcessManager12init_threadsEvEUlvE_EEEEE6_M_runEv+0x46 (/home/bevers/src/mesos/worktrees/state-benchmarking/build-alexr/src/.libs/libmesos-1.8.0.so)
	    7fa491e43733 [unknown] (/usr/lib/x86_64-linux-gnu/libstdc++.so.6.0.25)

master@127.0.1.1:5050 14784 182029.119642:       5000 cycles:uh: 
	    7fa49401a1b0 _ZNSt7__cxx1112basic_stringIcSt11char_traitsIcESaIcEE12_M_constructIPKcEEvT_S8_St20forward_iterator_tag.isra.243+0x0 (/home/bevers/src/mesos/worktrees/state-benchmarking/build-alexr/src/.libs/libmesos-1.8.0.so)
	    7fa494512a4f _ZN7process6FutureINSt7__cxx1112basic_stringIcSt11char_traitsIcESaIcEEEE4_setIS6_EEbOT_+0x7f (/home/bevers/src/mesos/worktrees/state-benchmarking/build-alexr/src/.libs/libmesos-1.8.0.so)
	    7fa494c4611d _ZN7process6FutureINSt7__cxx1112basic_stringIcSt11char_traitsIcESaIcEEEEC2IA1_cEERKT_+0x16d (/home/bevers/src/mesos/worktrees/state-benchmarking/build-alexr/src/.libs/libmesos-1.8.0.so)
	    7fa494c1a20f _ZN7process4http4Pipe6Reader4readB5cxx11Ev+0x2ef (/home/bevers/src/mesos/worktrees/state-benchmarking/build-alexr/src/.libs/libmesos-1.8.0.so)
	    7fa494c2b711 _ZN7process4http4Pipe6Reader7readAllB5cxx11Ev+0x301 (/home/bevers/src/mesos/worktrees/state-benchmarking/build-alexr/src/.libs/libmesos-1.8.0.so)
	    7fa494cd1739 _ZN7process11ProcessBase7consumeEONS_9HttpEventE+0x869 (/home/bevers/src/mesos/worktrees/state-benchmarking/build-alexr/src/.libs/libmesos-1.8.0.so)
	    7fa494ccd332 _ZN7process14ProcessManager6resumeEPNS_11ProcessBaseE+0x492 (/home/bevers/src/mesos/worktrees/state-benchmarking/build-alexr/src/.libs/libmesos-1.8.0.so)
	    7fa494cd3606 _ZNSt6thread11_State_implINS_8_InvokerISt5tupleIJZN7process14ProcessManager12init_threadsEvEUlvE_EEEEE6_M_runEv+0x46 (/home/bevers/src/mesos/worktrees/state-benchmarking/build-alexr/src/.libs/libmesos-1.8.0.so)
	    7fa491e43733 [unknown] (/usr/lib/x86_64-linux-gnu/libstdc++.so.6.0.25)

master@127.0.1.1:5050 14784 182029.119645:       5000 cycles:uh: 
	    7fa4938c1916 _ZN3TryI6OptionINSt7__cxx1112basic_stringIcSt11char_traitsIcESaIcEEEE5ErrorED1Ev@plt+0x6 (/home/bevers/src/mesos/worktrees/state-benchmarking/build-alexr/src/.libs/libmesos-1.8.0.so)
	    7fa494c4611d _ZN7process6FutureINSt7__cxx1112basic_stringIcSt11char_traitsIcESaIcEEEEC2IA1_cEERKT_+0x16d (/home/bevers/src/mesos/worktrees/state-benchmarking/build-alexr/src/.libs/libmesos-1.8.0.so)
	    7fa494c1a20f _ZN7process4http4Pipe6Reader4readB5cxx11Ev+0x2ef (/home/bevers/src/mesos/worktrees/state-benchmarking/build-alexr/src/.libs/libmesos-1.8.0.so)
	    7fa494c2b711 _ZN7process4http4Pipe6Reader7readAllB5cxx11Ev+0x301 (/home/bevers/src/mesos/worktrees/state-benchmarking/build-alexr/src/.libs/libmesos-1.8.0.so)
	    7fa494cd1739 _ZN7process11ProcessBase7consumeEONS_9HttpEventE+0x869 (/home/bevers/src/mesos/worktrees/state-benchmarking/build-alexr/src/.libs/libmesos-1.8.0.so)
	    7fa494ccd332 _ZN7process14ProcessManager6resumeEPNS_11ProcessBaseE+0x492 (/home/bevers/src/mesos/worktrees/state-benchmarking/build-alexr/src/.libs/libmesos-1.8.0.so)
	    7fa494cd3606 _ZNSt6thread11_State_implINS_8_InvokerISt5tupleIJZN7process14ProcessManager12init_threadsEvEUlvE_EEEEE6_M_runEv+0x46 (/home/bevers/src/mesos/worktrees/state-benchmarking/build-alexr/src/.libs/libmesos-1.8.0.so)
	    7fa491e43733 [unknown] (/usr/lib/x86_64-linux-gnu/libstdc++.so.6.0.25)

master@127.0.1.1:5050 14784 182029.119648:       5000 cycles:uh: 
	    7fa495d430cd _dl_lookup_symbol_x+0x1d (/lib/x86_64-linux-gnu/ld-2.27.so)
	    7fa494c4611d _ZN7process6FutureINSt7__cxx1112basic_stringIcSt11char_traitsIcESaIcEEEEC2IA1_cEERKT_+0x16d (/home/bevers/src/mesos/worktrees/state-benchmarking/build-alexr/src/.libs/libmesos-1.8.0.so)
	    7fa494c1a20f _ZN7process4http4Pipe6Reader4readB5cxx11Ev+0x2ef (/home/bevers/src/mesos/worktrees/state-benchmarking/build-alexr/src/.libs/libmesos-1.8.0.so)
	    7fa494c2b711 _ZN7process4http4Pipe6Reader7readAllB5cxx11Ev+0x301 (/home/bevers/src/mesos/worktrees/state-benchmarking/build-alexr/src/.libs/libmesos-1.8.0.so)
	    7fa494cd1739 _ZN7process11ProcessBase7consumeEONS_9HttpEventE+0x869 (/home/bevers/src/mesos/worktrees/state-benchmarking/build-alexr/src/.libs/libmesos-1.8.0.so)
	    7fa494ccd332 _ZN7process14ProcessManager6resumeEPNS_11ProcessBaseE+0x492 (/home/bevers/src/mesos/worktrees/state-benchmarking/build-alexr/src/.libs/libmesos-1.8.0.so)
	    7fa494cd3606 _ZNSt6thread11_State_implINS_8_InvokerISt5tupleIJZN7process14ProcessManager12init_threadsEvEUlvE_EEEEE6_M_runEv+0x46 (/home/bevers/src/mesos/worktrees/state-benchmarking/build-alexr/src/.libs/libmesos-1.8.0.so)
	    7fa491e43733 [unknown] (/usr/lib/x86_64-linux-gnu/libstdc++.so.6.0.25)

master@127.0.1.1:5050 14784 182029.119651:       5000 cycles:uh: 
	    7fa4939cce20 _ZNK6ResultINSt7__cxx1112basic_stringIcSt11char_traitsIcESaIcEEEE3getEv+0x0 (/home/bevers/src/mesos/worktrees/state-benchmarking/build-alexr/src/.libs/libmesos-1.8.0.so)
	    7fa494c4611d _ZN7process6FutureINSt7__cxx1112basic_stringIcSt11char_traitsIcESaIcEEEEC2IA1_cEERKT_+0x16d (/home/bevers/src/mesos/worktrees/state-benchmarking/build-alexr/src/.libs/libmesos-1.8.0.so)
	    7fa494c1a20f _ZN7process4http4Pipe6Reader4readB5cxx11Ev+0x2ef (/home/bevers/src/mesos/worktrees/state-benchmarking/build-alexr/src/.libs/libmesos-1.8.0.so)
	    7fa494c2b711 _ZN7process4http4Pipe6Reader7readAllB5cxx11Ev+0x301 (/home/bevers/src/mesos/worktrees/state-benchmarking/build-alexr/src/.libs/libmesos-1.8.0.so)
	    7fa494cd1739 _ZN7process11ProcessBase7consumeEONS_9HttpEventE+0x869 (/home/bevers/src/mesos/worktrees/state-benchmarking/build-alexr/src/.libs/libmesos-1.8.0.so)
	    7fa494ccd332 _ZN7process14ProcessManager6resumeEPNS_11ProcessBaseE+0x492 (/home/bevers/src/mesos/worktrees/state-benchmarking/build-alexr/src/.libs/libmesos-1.8.0.so)
	    7fa494cd3606 _ZNSt6thread11_State_implINS_8_InvokerISt5tupleIJZN7process14ProcessManager12init_threadsEvEUlvE_EEEEE6_M_runEv+0x46 (/home/bevers/src/mesos/worktrees/state-benchmarking/build-alexr/src/.libs/libmesos-1.8.0.so)
	    7fa491e43733 [unknown] (/usr/lib/x86_64-linux-gnu/libstdc++.so.6.0.25)

master@127.0.1.1:5050 14784 182029.119654:       5000 cycles:uh: 
	    7fa495d430cd _dl_lookup_symbol_x+0x1d (/lib/x86_64-linux-gnu/ld-2.27.so)
	    7fa494c4611d _ZN7process6FutureINSt7__cxx1112basic_stringIcSt11char_traitsIcESaIcEEEEC2IA1_cEERKT_+0x16d (/home/bevers/src/mesos/worktrees/state-benchmarking/build-alexr/src/.libs/libmesos-1.8.0.so)
	    7fa494c1a20f _ZN7process4http4Pipe6Reader4readB5cxx11Ev+0x2ef (/home/bevers/src/mesos/worktrees/state-benchmarking/build-alexr/src/.libs/libmesos-1.8.0.so)
	    7fa494c2b711 _ZN7process4http4Pipe6Reader7readAllB5cxx11Ev+0x301 (/home/bevers/src/mesos/worktrees/state-benchmarking/build-alexr/src/.libs/libmesos-1.8.0.so)
	    7fa494cd1739 _ZN7process11ProcessBase7consumeEONS_9HttpEventE+0x869 (/home/bevers/src/mesos/worktrees/state-benchmarking/build-alexr/src/.libs/libmesos-1.8.0.so)
	    7fa494ccd332 _ZN7process14ProcessManager6resumeEPNS_11ProcessBaseE+0x492 (/home/bevers/src/mesos/worktrees/state-benchmarking/build-alexr/src/.libs/libmesos-1.8.0.so)
	    7fa494cd3606 _ZNSt6thread11_State_implINS_8_InvokerISt5tupleIJZN7process14ProcessManager12init_threadsEvEUlvE_EEEEE6_M_runEv+0x46 (/home/bevers/src/mesos/worktrees/state-benchmarking/build-alexr/src/.libs/libmesos-1.8.0.so)
	    7fa491e43733 [unknown] (/usr/lib/x86_64-linux-gnu/libstdc++.so.6.0.25)

master@127.0.1.1:5050 14784 182029.119657:       5000 cycles:uh: 
	    7fa4939fa930 _ZN7process8internal3runIN6lambda12CallableOnceIFvRKNS_6FutureINSt7__cxx1112basic_stringIcSt11char_traitsIcESaIcEEEEEEEEJRSB_EEEvOSt6vectorIT_SaISI_EEDpOT0_+0xa0 (/home/bevers/src/mesos/worktrees/state-benchmarking/build-alexr/src/.libs/libmesos-1.8.0.so)
	    7fa494512ad1 _ZN7process6FutureINSt7__cxx1112basic_stringIcSt11char_traitsIcESaIcEEEE4_setIS6_EEbOT_+0x101 (/home/bevers/src/mesos/worktrees/state-benchmarking/build-alexr/src/.libs/libmesos-1.8.0.so)
	    7fa494c4611d _ZN7process6FutureINSt7__cxx1112basic_stringIcSt11char_traitsIcESaIcEEEEC2IA1_cEERKT_+0x16d (/home/bevers/src/mesos/worktrees/state-benchmarking/build-alexr/src/.libs/libmesos-1.8.0.so)
	    7fa494c1a20f _ZN7process4http4Pipe6Reader4readB5cxx11Ev+0x2ef (/home/bevers/src/mesos/worktrees/state-benchmarking/build-alexr/src/.libs/libmesos-1.8.0.so)
	    7fa494c2b711 _ZN7process4http4Pipe6Reader7readAllB5cxx11Ev+0x301 (/home/bevers/src/mesos/worktrees/state-benchmarking/build-alexr/src/.libs/libmesos-1.8.0.so)
	    7fa494cd1739 _ZN7process11ProcessBase7consumeEONS_9HttpEventE+0x869 (/home/bevers/src/mesos/worktrees/state-benchmarking/build-alexr/src/.libs/libmesos-1.8.0.so)
	    7fa494ccd332 _ZN7process14ProcessManager6resumeEPNS_11ProcessBaseE+0x492 (/home/bevers/src/mesos/worktrees/state-benchmarking/build-alexr/src/.libs/libmesos-1.8.0.so)
	    7fa494cd3606 _ZNSt6thread11_State_implINS_8_InvokerISt5tupleIJZN7process14ProcessManager12init_threadsEvEUlvE_EEEEE6_M_runEv+0x46 (/home/bevers/src/mesos/worktrees/state-benchmarking/build-alexr/src/.libs/libmesos-1.8.0.so)
	    7fa491e43733 [unknown] (/usr/lib/x86_64-linux-gnu/libstdc++.so.6.0.25)

master@127.0.1.1:5050 14784 182029.119660:       5000 cycles:uh: 
	    7fa4938b9386 _ZNK7process6FutureINSt7__cxx1112basic_stringIcSt11char_traitsIcESaIcEEEE3getEv@plt+0x6 (/home/bevers/src/mesos/worktrees/state-benchmarking/build-alexr/src/.libs/libmesos-1.8.0.so)
	    7fa494c2b720 _ZN7process4http4Pipe6Reader7readAllB5cxx11Ev+0x310 (/home/bevers/src/mesos/worktrees/state-benchmarking/build-alexr/src/.libs/libmesos-1.8.0.so)
	    7fa494cd1739 _ZN7process11ProcessBase7consumeEONS_9HttpEventE+0x869 (/home/bevers/src/mesos/worktrees/state-benchmarking/build-alexr/src/.libs/libmesos-1.8.0.so)
	    7fa494ccd332 _ZN7process14ProcessManager6resumeEPNS_11ProcessBaseE+0x492 (/home/bevers/src/mesos/worktrees/state-benchmarking/build-alexr/src/.libs/libmesos-1.8.0.so)
	    7fa494cd3606 _ZNSt6thread11_State_implINS_8_InvokerISt5tupleIJZN7process14ProcessManager12init_threadsEvEUlvE_EEEEE6_M_runEv+0x46 (/home/bevers/src/mesos/worktrees/state-benchmarking/build-alexr/src/.libs/libmesos-1.8.0.so)
	    7fa491e43733 [unknown] (/usr/lib/x86_64-linux-gnu/libstdc++.so.6.0.25)

master@127.0.1.1:5050 14784 182029.119663:       5000 cycles:uh: 
	    7fa495d47e4b _dl_fixup+0x5b (/lib/x86_64-linux-gnu/ld-2.27.so)
	    7fa494c2b720 _ZN7process4http4Pipe6Reader7readAllB5cxx11Ev+0x310 (/home/bevers/src/mesos/worktrees/state-benchmarking/build-alexr/src/.libs/libmesos-1.8.0.so)
	    7fa494cd1739 _ZN7process11ProcessBase7consumeEONS_9HttpEventE+0x869 (/home/bevers/src/mesos/worktrees/state-benchmarking/build-alexr/src/.libs/libmesos-1.8.0.so)
	    7fa494ccd332 _ZN7process14ProcessManager6resumeEPNS_11ProcessBaseE+0x492 (/home/bevers/src/mesos/worktrees/state-benchmarking/build-alexr/src/.libs/libmesos-1.8.0.so)
	    7fa494cd3606 _ZNSt6thread11_State_implINS_8_InvokerISt5tupleIJZN7process14ProcessManager12init_threadsEvEUlvE_EEEEE6_M_runEv+0x46 (/home/bevers/src/mesos/worktrees/state-benchmarking/build-alexr/src/.libs/libmesos-1.8.0.so)
	    7fa491e43733 [unknown] (/usr/lib/x86_64-linux-gnu/libstdc++.so.6.0.25)

master@127.0.1.1:5050 14784 182029.119666:       5000 cycles:uh: 
	    7fa495d4f7bd _dl_runtime_resolve_xsavec+0x6d (/lib/x86_64-linux-gnu/ld-2.27.so)
	    7fa494c2a645 _ZN7process8internal4LoopIZNS_4http4Pipe6Reader7readAllEvEUlvE_ZNS4_7readAllEvEUlRKNSt7__cxx1112basic_stringIcSt11char_traitsIcESaIcEEEE0_SB_SB_E3runENS_6FutureISB_EE+0x275 (/home/bevers/src/mesos/worktrees/state-benchmarking/build-alexr/src/.libs/libmesos-1.8.0.so)
	    7fa494c2b720 _ZN7process4http4Pipe6Reader7readAllB5cxx11Ev+0x310 (/home/bevers/src/mesos/worktrees/state-benchmarking/build-alexr/src/.libs/libmesos-1.8.0.so)
	    7fa494cd1739 _ZN7process11ProcessBase7consumeEONS_9HttpEventE+0x869 (/home/bevers/src/mesos/worktrees/state-benchmarking/build-alexr/src/.libs/libmesos-1.8.0.so)
	    7fa494ccd332 _ZN7process14ProcessManager6resumeEPNS_11ProcessBaseE+0x492 (/home/bevers/src/mesos/worktrees/state-benchmarking/build-alexr/src/.libs/libmesos-1.8.0.so)
	    7fa494cd3606 _ZNSt6thread11_State_implINS_8_InvokerISt5tupleIJZN7process14ProcessManager12init_threadsEvEUlvE_EEEEE6_M_runEv+0x46 (/home/bevers/src/mesos/worktrees/state-benchmarking/build-alexr/src/.libs/libmesos-1.8.0.so)
	    7fa491e43733 [unknown] (/usr/lib/x86_64-linux-gnu/libstdc++.so.6.0.25)

master@127.0.1.1:5050 14784 182029.119669:       5000 cycles:uh: 
	    7fa495d430ff _dl_lookup_symbol_x+0x4f (/lib/x86_64-linux-gnu/ld-2.27.so)

master@127.0.1.1:5050 14784 182029.119672:       5000 cycles:uh: 
	    7fa495d430ff _dl_lookup_symbol_x+0x4f (/lib/x86_64-linux-gnu/ld-2.27.so)

master@127.0.1.1:5050 14784 182029.119675:       5000 cycles:uh: 
	    7fa495d47e1d _dl_fixup+0x2d (/lib/x86_64-linux-gnu/ld-2.27.so)
	    7fa494c52f85 _ZN7process6FutureINS_11ControlFlowINSt7__cxx1112basic_stringIcSt11char_traitsIcESaIcEEEEEEC2EOS8_+0x155 (/home/bevers/src/mesos/worktrees/state-benchmarking/build-alexr/src/.libs/libmesos-1.8.0.so)
	    7fa494c2a645 _ZN7process8internal4LoopIZNS_4http4Pipe6Reader7readAllEvEUlvE_ZNS4_7readAllEvEUlRKNSt7__cxx1112basic_stringIcSt11char_traitsIcESaIcEEEE0_SB_SB_E3runENS_6FutureISB_EE+0x275 (/home/bevers/src/mesos/worktrees/state-benchmarking/build-alexr/src/.libs/libmesos-1.8.0.so)
	    7fa494c2b720 _ZN7process4http4Pipe6Reader7readAllB5cxx11Ev+0x310 (/home/bevers/src/mesos/worktrees/state-benchmarking/build-alexr/src/.libs/libmesos-1.8.0.so)
	    7fa494cd1739 _ZN7process11ProcessBase7consumeEONS_9HttpEventE+0x869 (/home/bevers/src/mesos/worktrees/state-benchmarking/build-alexr/src/.libs/libmesos-1.8.0.so)
	    7fa494ccd332 _ZN7process14ProcessManager6resumeEPNS_11ProcessBaseE+0x492 (/home/bevers/src/mesos/worktrees/state-benchmarking/build-alexr/src/.libs/libmesos-1.8.0.so)
	    7fa494cd3606 _ZNSt6thread11_State_implINS_8_InvokerISt5tupleIJZN7process14ProcessManager12init_threadsEvEUlvE_EEEEE6_M_runEv+0x46 (/home/bevers/src/mesos/worktrees/state-benchmarking/build-alexr/src/.libs/libmesos-1.8.0.so)
	    7fa491e43733 [unknown] (/usr/lib/x86_64-linux-gnu/libstdc++.so.6.0.25)

master@127.0.1.1:5050 14784 182029.119678:       5000 cycles:uh: 
	    55af36d54980 _ZNSt16_Sp_counted_baseILN9__gnu_cxx12_Lock_policyE2EE10_M_releaseEv+0x0 (/home/bevers/src/mesos/worktrees/state-benchmarking/build-alexr/src/.libs/mesos-master)
	    7fa494c52f85 _ZN7process6FutureINS_11ControlFlowINSt7__cxx1112basic_stringIcSt11char_traitsIcESaIcEEEEEEC2EOS8_+0x155 (/home/bevers/src/mesos/worktrees/state-benchmarking/build-alexr/src/.libs/libmesos-1.8.0.so)
	    7fa494c2a645 _ZN7process8internal4LoopIZNS_4http4Pipe6Reader7readAllEvEUlvE_ZNS4_7readAllEvEUlRKNSt7__cxx1112basic_stringIcSt11char_traitsIcESaIcEEEE0_SB_SB_E3runENS_6FutureISB_EE+0x275 (/home/bevers/src/mesos/worktrees/state-benchmarking/build-alexr/src/.libs/libmesos-1.8.0.so)
	    7fa494c2b720 _ZN7process4http4Pipe6Reader7readAllB5cxx11Ev+0x310 (/home/bevers/src/mesos/worktrees/state-benchmarking/build-alexr/src/.libs/libmesos-1.8.0.so)
	    7fa494cd1739 _ZN7process11ProcessBase7consumeEONS_9HttpEventE+0x869 (/home/bevers/src/mesos/worktrees/state-benchmarking/build-alexr/src/.libs/libmesos-1.8.0.so)
	    7fa494ccd332 _ZN7process14ProcessManager6resumeEPNS_11ProcessBaseE+0x492 (/home/bevers/src/mesos/worktrees/state-benchmarking/build-alexr/src/.libs/libmesos-1.8.0.so)
	    7fa494cd3606 _ZNSt6thread11_State_implINS_8_InvokerISt5tupleIJZN7process14ProcessManager12init_threadsEvEUlvE_EEEEE6_M_runEv+0x46 (/home/bevers/src/mesos/worktrees/state-benchmarking/build-alexr/src/.libs/libmesos-1.8.0.so)
	    7fa491e43733 [unknown] (/usr/lib/x86_64-linux-gnu/libstdc++.so.6.0.25)

master@127.0.1.1:5050 14784 182029.119681:       5000 cycles:uh: 
	    7fa495d47e4b _dl_fixup+0x5b (/lib/x86_64-linux-gnu/ld-2.27.so)
	    7fa494c2b720 _ZN7process4http4Pipe6Reader7readAllB5cxx11Ev+0x310 (/home/bevers/src/mesos/worktrees/state-benchmarking/build-alexr/src/.libs/libmesos-1.8.0.so)
	    7fa494cd1739 _ZN7process11ProcessBase7consumeEONS_9HttpEventE+0x869 (/home/bevers/src/mesos/worktrees/state-benchmarking/build-alexr/src/.libs/libmesos-1.8.0.so)
	    7fa494ccd332 _ZN7process14ProcessManager6resumeEPNS_11ProcessBaseE+0x492 (/home/bevers/src/mesos/worktrees/state-benchmarking/build-alexr/src/.libs/libmesos-1.8.0.so)
	    7fa494cd3606 _ZNSt6thread11_State_implINS_8_InvokerISt5tupleIJZN7process14ProcessManager12init_threadsEvEUlvE_EEEEE6_M_runEv+0x46 (/home/bevers/src/mesos/worktrees/state-benchmarking/build-alexr/src/.libs/libmesos-1.8.0.so)
	    7fa491e43733 [unknown] (/usr/lib/x86_64-linux-gnu/libstdc++.so.6.0.25)

master@127.0.1.1:5050 14784 182029.119684:       5000 cycles:uh: 
	    7fa4939fa968 _ZN7process6FutureINSt7__cxx1112basic_stringIcSt11char_traitsIcESaIcEEEE4Data17clearAllCallbacksEv+0x8 (/home/bevers/src/mesos/worktrees/state-benchmarking/build-alexr/src/.libs/libmesos-1.8.0.so)
	    7fa4939fafdf _ZN7process6FutureINSt7__cxx1112basic_stringIcSt11char_traitsIcESaIcEEEE4_setIRKS6_EEbOT_+0x24f (/home/bevers/src/mesos/worktrees/state-benchmarking/build-alexr/src/.libs/libmesos-1.8.0.so)
	    7fa494c2aae8 _ZN7process8internal4LoopIZNS_4http4Pipe6Reader7readAllEvEUlvE_ZNS4_7readAllEvEUlRKNSt7__cxx1112basic_stringIcSt11char_traitsIcESaIcEEEE0_SB_SB_E3runENS_6FutureISB_EE+0x718 (/home/bevers/src/mesos/worktrees/state-benchmarking/build-alexr/src/.libs/libmesos-1.8.0.so)
	    7fa494c2b720 _ZN7process4http4Pipe6Reader7readAllB5cxx11Ev+0x310 (/home/bevers/src/mesos/worktrees/state-benchmarking/build-alexr/src/.libs/libmesos-1.8.0.so)
	    7fa494cd1739 _ZN7process11ProcessBase7consumeEONS_9HttpEventE+0x869 (/home/bevers/src/mesos/worktrees/state-benchmarking/build-alexr/src/.libs/libmesos-1.8.0.so)
	    7fa494ccd332 _ZN7process14ProcessManager6resumeEPNS_11ProcessBaseE+0x492 (/home/bevers/src/mesos/worktrees/state-benchmarking/build-alexr/src/.libs/libmesos-1.8.0.so)
	    7fa494cd3606 _ZNSt6thread11_State_implINS_8_InvokerISt5tupleIJZN7process14ProcessManager12init_threadsEvEUlvE_EEEEE6_M_runEv+0x46 (/home/bevers/src/mesos/worktrees/state-benchmarking/build-alexr/src/.libs/libmesos-1.8.0.so)
	    7fa491e43733 [unknown] (/usr/lib/x86_64-linux-gnu/libstdc++.so.6.0.25)

master@127.0.1.1:5050 14784 182029.119687:       5000 cycles:uh: 
	    7fa494c35020 _ZNSt15_Sp_counted_ptrIPN7process6FutureINS0_11ControlFlowINSt7__cxx1112basic_stringIcSt11char_traitsIcESaIcEEEEEE4DataELN9__gnu_cxx12_Lock_policyE2EE10_M_destroyEv+0x0 (/home/bevers/src/mesos/worktrees/state-benchmarking/build-alexr/src/.libs/libmesos-1.8.0.so)
	    7fa494c2b720 _ZN7process4http4Pipe6Reader7readAllB5cxx11Ev+0x310 (/home/bevers/src/mesos/worktrees/state-benchmarking/build-alexr/src/.libs/libmesos-1.8.0.so)
	    7fa494cd1739 _ZN7process11ProcessBase7consumeEONS_9HttpEventE+0x869 (/home/bevers/src/mesos/worktrees/state-benchmarking/build-alexr/src/.libs/libmesos-1.8.0.so)
	    7fa494ccd332 _ZN7process14ProcessManager6resumeEPNS_11ProcessBaseE+0x492 (/home/bevers/src/mesos/worktrees/state-benchmarking/build-alexr/src/.libs/libmesos-1.8.0.so)
	    7fa494cd3606 _ZNSt6thread11_State_implINS_8_InvokerISt5tupleIJZN7process14ProcessManager12init_threadsEvEUlvE_EEEEE6_M_runEv+0x46 (/home/bevers/src/mesos/worktrees/state-benchmarking/build-alexr/src/.libs/libmesos-1.8.0.so)
	    7fa491e43733 [unknown] (/usr/lib/x86_64-linux-gnu/libstdc++.so.6.0.25)

master@127.0.1.1:5050 14784 182029.119690:       5000 cycles:uh: 
	    7fa495d4f7d9 _dl_runtime_resolve_xsavec+0x89 (/lib/x86_64-linux-gnu/ld-2.27.so)
	    55af36d549d6 _ZNSt16_Sp_counted_baseILN9__gnu_cxx12_Lock_policyE2EE10_M_releaseEv+0x56 (/home/bevers/src/mesos/worktrees/state-benchmarking/build-alexr/src/.libs/mesos-master)
	    7fa494c2b765 _ZN7process4http4Pipe6Reader7readAllB5cxx11Ev+0x355 (/home/bevers/src/mesos/worktrees/state-benchmarking/build-alexr/src/.libs/libmesos-1.8.0.so)
	    7fa494cd1739 _ZN7process11ProcessBase7consumeEONS_9HttpEventE+0x869 (/home/bevers/src/mesos/worktrees/state-benchmarking/build-alexr/src/.libs/libmesos-1.8.0.so)
	    7fa494ccd332 _ZN7process14ProcessManager6resumeEPNS_11ProcessBaseE+0x492 (/home/bevers/src/mesos/worktrees/state-benchmarking/build-alexr/src/.libs/libmesos-1.8.0.so)
	    7fa494cd3606 _ZNSt6thread11_State_implINS_8_InvokerISt5tupleIJZN7process14ProcessManager12init_threadsEvEUlvE_EEEEE6_M_runEv+0x46 (/home/bevers/src/mesos/worktrees/state-benchmarking/build-alexr/src/.libs/libmesos-1.8.0.so)
	    7fa491e43733 [unknown] (/usr/lib/x86_64-linux-gnu/libstdc++.so.6.0.25)

master@127.0.1.1:5050 14784 182029.119693:       5000 cycles:uh: 
	    7fa495d42709 do_lookup_x+0x4c9 (/lib/x86_64-linux-gnu/ld-2.27.so)
	               0 [unknown] ([unknown])

master@127.0.1.1:5050 14784 182029.119696:       5000 cycles:uh: 
	    7fa49391bb60 _ZN7process6FutureINS_5OwnedINS_4http7RequestEEEEC1Ev@plt+0x0 (/home/bevers/src/mesos/worktrees/state-benchmarking/build-alexr/src/.libs/libmesos-1.8.0.so)
	    7fa494cd17a6 _ZN7process11ProcessBase7consumeEONS_9HttpEventE+0x8d6 (/home/bevers/src/mesos/worktrees/state-benchmarking/build-alexr/src/.libs/libmesos-1.8.0.so)
	    7fa494ccd332 _ZN7process14ProcessManager6resumeEPNS_11ProcessBaseE+0x492 (/home/bevers/src/mesos/worktrees/state-benchmarking/build-alexr/src/.libs/libmesos-1.8.0.so)
	    7fa494cd3606 _ZNSt6thread11_State_implINS_8_InvokerISt5tupleIJZN7process14ProcessManager12init_threadsEvEUlvE_EEEEE6_M_runEv+0x46 (/home/bevers/src/mesos/worktrees/state-benchmarking/build-alexr/src/.libs/libmesos-1.8.0.so)
	    7fa491e43733 [unknown] (/usr/lib/x86_64-linux-gnu/libstdc++.so.6.0.25)

master@127.0.1.1:5050 14784 182029.119700:       5000 cycles:uh: 
	    7fa495d47e20 _dl_fixup+0x30 (/lib/x86_64-linux-gnu/ld-2.27.so)
	    7fa494cd17a6 _ZN7process11ProcessBase7consumeEONS_9HttpEventE+0x8d6 (/home/bevers/src/mesos/worktrees/state-benchmarking/build-alexr/src/.libs/libmesos-1.8.0.so)
	    7fa494ccd332 _ZN7process14ProcessManager6resumeEPNS_11ProcessBaseE+0x492 (/home/bevers/src/mesos/worktrees/state-benchmarking/build-alexr/src/.libs/libmesos-1.8.0.so)
	    7fa494cd3606 _ZNSt6thread11_State_implINS_8_InvokerISt5tupleIJZN7process14ProcessManager12init_threadsEvEUlvE_EEEEE6_M_runEv+0x46 (/home/bevers/src/mesos/worktrees/state-benchmarking/build-alexr/src/.libs/libmesos-1.8.0.so)
	    7fa491e43733 [unknown] (/usr/lib/x86_64-linux-gnu/libstdc++.so.6.0.25)

master@127.0.1.1:5050 14784 182029.119703:       5000 cycles:uh: 
	    7fa495d422fb do_lookup_x+0xbb (/lib/x86_64-linux-gnu/ld-2.27.so)

master@127.0.1.1:5050 14784 182029.119706:       5000 cycles:uh: 
	    7fa495d47e4b _dl_fixup+0x5b (/lib/x86_64-linux-gnu/ld-2.27.so)
	    7fa494ce10c9 _ZNO6lambda12CallableOnceIFvRKN7process6FutureINSt7__cxx1112basic_stringIcSt11char_traitsIcESaIcEEEEEEE10CallableFnINS_8internal7PartialIPFvONS0_IFNS2_INS1_5OwnedINS1_4http7RequestEEEEERKS8_EEESt10unique_ptrINS1_7PromiseISK_EESt14default_deleteIST_EESB_EJSP_SW_St12_PlaceholderILi1EEEEEEclESB_+0x39 (/home/bevers/src/mesos/worktrees/state-benchmarking/build-alexr/src/.libs/libmesos-1.8.0.so)
	    7fa4939d76b4 _ZNK7process6FutureINSt7__cxx1112basic_stringIcSt11char_traitsIcESaIcEEEE5onAnyEON6lambda12CallableOnceIFvRKS7_EEE+0x54 (/home/bevers/src/mesos/worktrees/state-benchmarking/build-alexr/src/.libs/libmesos-1.8.0.so)
	    7fa494cf7d40 _ZNK7process6FutureINSt7__cxx1112basic_stringIcSt11char_traitsIcESaIcEEEE4thenINS_5OwnedINS_4http7RequestEEEEENS0_IT_EEN6lambda12CallableOnceIFSE_RKS6_EEE+0xc0 (/home/bevers/src/mesos/worktrees/state-benchmarking/build-alexr/src/.libs/libmesos-1.8.0.so)
	    7fa494cd17a6 _ZN7process11ProcessBase7consumeEONS_9HttpEventE+0x8d6 (/home/bevers/src/mesos/worktrees/state-benchmarking/build-alexr/src/.libs/libmesos-1.8.0.so)
	    7fa494ccd332 _ZN7process14ProcessManager6resumeEPNS_11ProcessBaseE+0x492 (/home/bevers/src/mesos/worktrees/state-benchmarking/build-alexr/src/.libs/libmesos-1.8.0.so)
	    7fa494cd3606 _ZNSt6thread11_State_implINS_8_InvokerISt5tupleIJZN7process14ProcessManager12init_threadsEvEUlvE_EEEEE6_M_runEv+0x46 (/home/bevers/src/mesos/worktrees/state-benchmarking/build-alexr/src/.libs/libmesos-1.8.0.so)
	    7fa491e43733 [unknown] (/usr/lib/x86_64-linux-gnu/libstdc++.so.6.0.25)

master@127.0.1.1:5050 14784 182029.119709:       5000 cycles:uh: 
	    7fa495d47f1a _dl_fixup+0x12a (/lib/x86_64-linux-gnu/ld-2.27.so)
	    7fa494d096af _ZN7process8internal5thenfINSt7__cxx1112basic_stringIcSt11char_traitsIcESaIcEEENS_5OwnedINS_4http7RequestEEEEEvON6lambda12CallableOnceIFNS_6FutureIT0_EERKT_EEESt10unique_ptrINS_7PromiseISF_EESt14default_deleteISP_EERKNSE_ISH_EE+0x10f (/home/bevers/src/mesos/worktrees/state-benchmarking/build-alexr/src/.libs/libmesos-1.8.0.so)
	    7fa494ce10c9 _ZNO6lambda12CallableOnceIFvRKN7process6FutureINSt7__cxx1112basic_stringIcSt11char_traitsIcESaIcEEEEEEE10CallableFnINS_8internal7PartialIPFvONS0_IFNS2_INS1_5OwnedINS1_4http7RequestEEEEERKS8_EEESt10unique_ptrINS1_7PromiseISK_EESt14default_deleteIST_EESB_EJSP_SW_St12_PlaceholderILi1EEEEEEclESB_+0x39 (/home/bevers/src/mesos/worktrees/state-benchmarking/build-alexr/src/.libs/libmesos-1.8.0.so)
	    7fa4939d76b4 _ZNK7process6FutureINSt7__cxx1112basic_stringIcSt11char_traitsIcESaIcEEEE5onAnyEON6lambda12CallableOnceIFvRKS7_EEE+0x54 (/home/bevers/src/mesos/worktrees/state-benchmarking/build-alexr/src/.libs/libmesos-1.8.0.so)
	    7fa494cf7d40 _ZNK7process6FutureINSt7__cxx1112basic_stringIcSt11char_traitsIcESaIcEEEE4thenINS_5OwnedINS_4http7RequestEEEEENS0_IT_EEN6lambda12CallableOnceIFSE_RKS6_EEE+0xc0 (/home/bevers/src/mesos/worktrees/state-benchmarking/build-alexr/src/.libs/libmesos-1.8.0.so)
	    7fa494cd17a6 _ZN7process11ProcessBase7consumeEONS_9HttpEventE+0x8d6 (/home/bevers/src/mesos/worktrees/state-benchmarking/build-alexr/src/.libs/libmesos-1.8.0.so)
	    7fa494ccd332 _ZN7process14ProcessManager6resumeEPNS_11ProcessBaseE+0x492 (/home/bevers/src/mesos/worktrees/state-benchmarking/build-alexr/src/.libs/libmesos-1.8.0.so)
	    7fa494cd3606 _ZNSt6thread11_State_implINS_8_InvokerISt5tupleIJZN7process14ProcessManager12init_threadsEvEUlvE_EEEEE6_M_runEv+0x46 (/home/bevers/src/mesos/worktrees/state-benchmarking/build-alexr/src/.libs/libmesos-1.8.0.so)
	    7fa491e43733 [unknown] (/usr/lib/x86_64-linux-gnu/libstdc++.so.6.0.25)

master@127.0.1.1:5050 14784 182029.119712:       5000 cycles:uh: 
	    7fa494ced9c0 _ZN6OptionIS_IN7process5OwnedINS0_4http7RequestEEEEED2Ev+0x0 (/home/bevers/src/mesos/worktrees/state-benchmarking/build-alexr/src/.libs/libmesos-1.8.0.so)
	    7fa494cfbf39 _ZN7process6FutureINS_5OwnedINS_4http7RequestEEEEC2ERKS4_+0x149 (/home/bevers/src/mesos/worktrees/state-benchmarking/build-alexr/src/.libs/libmesos-1.8.0.so)
	    7fa494d096af _ZN7process8internal5thenfINSt7__cxx1112basic_stringIcSt11char_traitsIcESaIcEEENS_5OwnedINS_4http7RequestEEEEEvON6lambda12CallableOnceIFNS_6FutureIT0_EERKT_EEESt10unique_ptrINS_7PromiseISF_EESt14default_deleteISP_EERKNSE_ISH_EE+0x10f (/home/bevers/src/mesos/worktrees/state-benchmarking/build-alexr/src/.libs/libmesos-1.8.0.so)
	    7fa494ce10c9 _ZNO6lambda12CallableOnceIFvRKN7process6FutureINSt7__cxx1112basic_stringIcSt11char_traitsIcESaIcEEEEEEE10CallableFnINS_8internal7PartialIPFvONS0_IFNS2_INS1_5OwnedINS1_4http7RequestEEEEERKS8_EEESt10unique_ptrINS1_7PromiseISK_EESt14default_deleteIST_EESB_EJSP_SW_St12_PlaceholderILi1EEEEEEclESB_+0x39 (/home/bevers/src/mesos/worktrees/state-benchmarking/build-alexr/src/.libs/libmesos-1.8.0.so)
	    7fa4939d76b4 _ZNK7process6FutureINSt7__cxx1112basic_stringIcSt11char_traitsIcESaIcEEEE5onAnyEON6lambda12CallableOnceIFvRKS7_EEE+0x54 (/home/bevers/src/mesos/worktrees/state-benchmarking/build-alexr/src/.libs/libmesos-1.8.0.so)
	    7fa494cf7d40 _ZNK7process6FutureINSt7__cxx1112basic_stringIcSt11char_traitsIcESaIcEEEE4thenINS_5OwnedINS_4http7RequestEEEEENS0_IT_EEN6lambda12CallableOnceIFSE_RKS6_EEE+0xc0 (/home/bevers/src/mesos/worktrees/state-benchmarking/build-alexr/src/.libs/libmesos-1.8.0.so)
	    7fa494cd17a6 _ZN7process11ProcessBase7consumeEONS_9HttpEventE+0x8d6 (/home/bevers/src/mesos/worktrees/state-benchmarking/build-alexr/src/.libs/libmesos-1.8.0.so)
	    7fa494ccd332 _ZN7process14ProcessManager6resumeEPNS_11ProcessBaseE+0x492 (/home/bevers/src/mesos/worktrees/state-benchmarking/build-alexr/src/.libs/libmesos-1.8.0.so)
	    7fa494cd3606 _ZNSt6thread11_State_implINS_8_InvokerISt5tupleIJZN7process14ProcessManager12init_threadsEvEUlvE_EEEEE6_M_runEv+0x46 (/home/bevers/src/mesos/worktrees/state-benchmarking/build-alexr/src/.libs/libmesos-1.8.0.so)
	    7fa491e43733 [unknown] (/usr/lib/x86_64-linux-gnu/libstdc++.so.6.0.25)

master@127.0.1.1:5050 14784 182029.119715:       5000 cycles:uh: 
	    7fa495d47f1a _dl_fixup+0x12a (/lib/x86_64-linux-gnu/ld-2.27.so)
	    7fa494cfbc45 _ZN7process6FutureINS_5OwnedINS_4http7RequestEEEE4_setIRKS4_EEbOT_+0x195 (/home/bevers/src/mesos/worktrees/state-benchmarking/build-alexr/src/.libs/libmesos-1.8.0.so)
	    7fa494cfbf39 _ZN7process6FutureINS_5OwnedINS_4http7RequestEEEEC2ERKS4_+0x149 (/home/bevers/src/mesos/worktrees/state-benchmarking/build-alexr/src/.libs/libmesos-1.8.0.so)
	    7fa494d096af _ZN7process8internal5thenfINSt7__cxx1112basic_stringIcSt11char_traitsIcESaIcEEENS_5OwnedINS_4http7RequestEEEEEvON6lambda12CallableOnceIFNS_6FutureIT0_EERKT_EEESt10unique_ptrINS_7PromiseISF_EESt14default_deleteISP_EERKNSE_ISH_EE+0x10f (/home/bevers/src/mesos/worktrees/state-benchmarking/build-alexr/src/.libs/libmesos-1.8.0.so)
	    7fa494ce10c9 _ZNO6lambda12CallableOnceIFvRKN7process6FutureINSt7__cxx1112basic_stringIcSt11char_traitsIcESaIcEEEEEEE10CallableFnINS_8internal7PartialIPFvONS0_IFNS2_INS1_5OwnedINS1_4http7RequestEEEEERKS8_EEESt10unique_ptrINS1_7PromiseISK_EESt14default_deleteIST_EESB_EJSP_SW_St12_PlaceholderILi1EEEEEEclESB_+0x39 (/home/bevers/src/mesos/worktrees/state-benchmarking/build-alexr/src/.libs/libmesos-1.8.0.so)
	    7fa4939d76b4 _ZNK7process6FutureINSt7__cxx1112basic_stringIcSt11char_traitsIcESaIcEEEE5onAnyEON6lambda12CallableOnceIFvRKS7_EEE+0x54 (/home/bevers/src/mesos/worktrees/state-benchmarking/build-alexr/src/.libs/libmesos-1.8.0.so)
	    7fa494cf7d40 _ZNK7process6FutureINSt7__cxx1112basic_stringIcSt11char_traitsIcESaIcEEEE4thenINS_5OwnedINS_4http7RequestEEEEENS0_IT_EEN6lambda12CallableOnceIFSE_RKS6_EEE+0xc0 (/home/bevers/src/mesos/worktrees/state-benchmarking/build-alexr/src/.libs/libmesos-1.8.0.so)
	    7fa494cd17a6 _ZN7process11ProcessBase7consumeEONS_9HttpEventE+0x8d6 (/home/bevers/src/mesos/worktrees/state-benchmarking/build-alexr/src/.libs/libmesos-1.8.0.so)
	    7fa494ccd332 _ZN7process14ProcessManager6resumeEPNS_11ProcessBaseE+0x492 (/home/bevers/src/mesos/worktrees/state-benchmarking/build-alexr/src/.libs/libmesos-1.8.0.so)
	    7fa494cd3606 _ZNSt6thread11_State_implINS_8_InvokerISt5tupleIJZN7process14ProcessManager12init_threadsEvEUlvE_EEEEE6_M_runEv+0x46 (/home/bevers/src/mesos/worktrees/state-benchmarking/build-alexr/src/.libs/libmesos-1.8.0.so)
	    7fa491e43733 [unknown] (/usr/lib/x86_64-linux-gnu/libstdc++.so.6.0.25)

master@127.0.1.1:5050 14784 182029.119719:       5000 cycles:uh: 
	    7fa4938a92c0 _ZN7process6FutureINS_5OwnedINS_4http7RequestEEEE4Data17clearAllCallbacksEv@plt+0x0 (/home/bevers/src/mesos/worktrees/state-benchmarking/build-alexr/src/.libs/libmesos-1.8.0.so)
	    7fa494cfbf39 _ZN7process6FutureINS_5OwnedINS_4http7RequestEEEEC2ERKS4_+0x149 (/home/bevers/src/mesos/worktrees/state-benchmarking/build-alexr/src/.libs/libmesos-1.8.0.so)
	    7fa494d096af _ZN7process8internal5thenfINSt7__cxx1112basic_stringIcSt11char_traitsIcESaIcEEENS_5OwnedINS_4http7RequestEEEEEvON6lambda12CallableOnceIFNS_6FutureIT0_EERKT_EEESt10unique_ptrINS_7PromiseISF_EESt14default_deleteISP_EERKNSE_ISH_EE+0x10f (/home/bevers/src/mesos/worktrees/state-benchmarking/build-alexr/src/.libs/libmesos-1.8.0.so)
	    7fa494ce10c9 _ZNO6lambda12CallableOnceIFvRKN7process6FutureINSt7__cxx1112basic_stringIcSt11char_traitsIcESaIcEEEEEEE10CallableFnINS_8internal7PartialIPFvONS0_IFNS2_INS1_5OwnedINS1_4http7RequestEEEEERKS8_EEESt10unique_ptrINS1_7PromiseISK_EESt14default_deleteIST_EESB_EJSP_SW_St12_PlaceholderILi1EEEEEEclESB_+0x39 (/home/bevers/src/mesos/worktrees/state-benchmarking/build-alexr/src/.libs/libmesos-1.8.0.so)
	    7fa4939d76b4 _ZNK7process6FutureINSt7__cxx1112basic_stringIcSt11char_traitsIcESaIcEEEE5onAnyEON6lambda12CallableOnceIFvRKS7_EEE+0x54 (/home/bevers/src/mesos/worktrees/state-benchmarking/build-alexr/src/.libs/libmesos-1.8.0.so)
	    7fa494cf7d40 _ZNK7process6FutureINSt7__cxx1112basic_stringIcSt11char_traitsIcESaIcEEEE4thenINS_5OwnedINS_4http7RequestEEEEENS0_IT_EEN6lambda12CallableOnceIFSE_RKS6_EEE+0xc0 (/home/bevers/src/mesos/worktrees/state-benchmarking/build-alexr/src/.libs/libmesos-1.8.0.so)
	    7fa494cd17a6 _ZN7process11ProcessBase7consumeEONS_9HttpEventE+0x8d6 (/home/bevers/src/mesos/worktrees/state-benchmarking/build-alexr/src/.libs/libmesos-1.8.0.so)
	    7fa494ccd332 _ZN7process14ProcessManager6resumeEPNS_11ProcessBaseE+0x492 (/home/bevers/src/mesos/worktrees/state-benchmarking/build-alexr/src/.libs/libmesos-1.8.0.so)
	    7fa494cd3606 _ZNSt6thread11_State_implINS_8_InvokerISt5tupleIJZN7process14ProcessManager12init_threadsEvEUlvE_EEEEE6_M_runEv+0x46 (/home/bevers/src/mesos/worktrees/state-benchmarking/build-alexr/src/.libs/libmesos-1.8.0.so)
	    7fa491e43733 [unknown] (/usr/lib/x86_64-linux-gnu/libstdc++.so.6.0.25)

master@127.0.1.1:5050 14784 182029.119722:       5000 cycles:uh: 
	    7fa495d47e4b _dl_fixup+0x5b (/lib/x86_64-linux-gnu/ld-2.27.so)
	    7fa494cfbf39 _ZN7process6FutureINS_5OwnedINS_4http7RequestEEEEC2ERKS4_+0x149 (/home/bevers/src/mesos/worktrees/state-benchmarking/build-alexr/src/.libs/libmesos-1.8.0.so)
	    7fa494d096af _ZN7process8internal5thenfINSt7__cxx1112basic_stringIcSt11char_traitsIcESaIcEEENS_5OwnedINS_4http7RequestEEEEEvON6lambda12CallableOnceIFNS_6FutureIT0_EERKT_EEESt10unique_ptrINS_7PromiseISF_EESt14default_deleteISP_EERKNSE_ISH_EE+0x10f (/home/bevers/src/mesos/worktrees/state-benchmarking/build-alexr/src/.libs/libmesos-1.8.0.so)
	    7fa494ce10c9 _ZNO6lambda12CallableOnceIFvRKN7process6FutureINSt7__cxx1112basic_stringIcSt11char_traitsIcESaIcEEEEEEE10CallableFnINS_8internal7PartialIPFvONS0_IFNS2_INS1_5OwnedINS1_4http7RequestEEEEERKS8_EEESt10unique_ptrINS1_7PromiseISK_EESt14default_deleteIST_EESB_EJSP_SW_St12_PlaceholderILi1EEEEEEclESB_+0x39 (/home/bevers/src/mesos/worktrees/state-benchmarking/build-alexr/src/.libs/libmesos-1.8.0.so)
	    7fa4939d76b4 _ZNK7process6FutureINSt7__cxx1112basic_stringIcSt11char_traitsIcESaIcEEEE5onAnyEON6lambda12CallableOnceIFvRKS7_EEE+0x54 (/home/bevers/src/mesos/worktrees/state-benchmarking/build-alexr/src/.libs/libmesos-1.8.0.so)
	    7fa494cf7d40 _ZNK7process6FutureINSt7__cxx1112basic_stringIcSt11char_traitsIcESaIcEEEE4thenINS_5OwnedINS_4http7RequestEEEEENS0_IT_EEN6lambda12CallableOnceIFSE_RKS6_EEE+0xc0 (/home/bevers/src/mesos/worktrees/state-benchmarking/build-alexr/src/.libs/libmesos-1.8.0.so)
	    7fa494cd17a6 _ZN7process11ProcessBase7consumeEONS_9HttpEventE+0x8d6 (/home/bevers/src/mesos/worktrees/state-benchmarking/build-alexr/src/.libs/libmesos-1.8.0.so)
	    7fa494ccd332 _ZN7process14ProcessManager6resumeEPNS_11ProcessBaseE+0x492 (/home/bevers/src/mesos/worktrees/state-benchmarking/build-alexr/src/.libs/libmesos-1.8.0.so)
	    7fa494cd3606 _ZNSt6thread11_State_implINS_8_InvokerISt5tupleIJZN7process14ProcessManager12init_threadsEvEUlvE_EEEEE6_M_runEv+0x46 (/home/bevers/src/mesos/worktrees/state-benchmarking/build-alexr/src/.libs/libmesos-1.8.0.so)
	    7fa491e43733 [unknown] (/usr/lib/x86_64-linux-gnu/libstdc++.so.6.0.25)

master@127.0.1.1:5050 14784 182029.119726:       5000 cycles:uh: 
	    7fa4939035a6 _ZN7process7PromiseINS_5OwnedINS_4http7RequestEEEE9associateERKNS_6FutureIS4_EE@plt+0x6 (/home/bevers/src/mesos/worktrees/state-benchmarking/build-alexr/src/.libs/libmesos-1.8.0.so)
	    7fa494ce10c9 _ZNO6lambda12CallableOnceIFvRKN7process6FutureINSt7__cxx1112basic_stringIcSt11char_traitsIcESaIcEEEEEEE10CallableFnINS_8internal7PartialIPFvONS0_IFNS2_INS1_5OwnedINS1_4http7RequestEEEEERKS8_EEESt10unique_ptrINS1_7PromiseISK_EESt14default_deleteIST_EESB_EJSP_SW_St12_PlaceholderILi1EEEEEEclESB_+0x39 (/home/bevers/src/mesos/worktrees/state-benchmarking/build-alexr/src/.libs/libmesos-1.8.0.so)
	    7fa4939d76b4 _ZNK7process6FutureINSt7__cxx1112basic_stringIcSt11char_traitsIcESaIcEEEE5onAnyEON6lambda12CallableOnceIFvRKS7_EEE+0x54 (/home/bevers/src/mesos/worktrees/state-benchmarking/build-alexr/src/.libs/libmesos-1.8.0.so)
	    7fa494cf7d40 _ZNK7process6FutureINSt7__cxx1112basic_stringIcSt11char_traitsIcESaIcEEEE4thenINS_5OwnedINS_4http7RequestEEEEENS0_IT_EEN6lambda12CallableOnceIFSE_RKS6_EEE+0xc0 (/home/bevers/src/mesos/worktrees/state-benchmarking/build-alexr/src/.libs/libmesos-1.8.0.so)
	    7fa494cd17a6 _ZN7process11ProcessBase7consumeEONS_9HttpEventE+0x8d6 (/home/bevers/src/mesos/worktrees/state-benchmarking/build-alexr/src/.libs/libmesos-1.8.0.so)
	    7fa494ccd332 _ZN7process14ProcessManager6resumeEPNS_11ProcessBaseE+0x492 (/home/bevers/src/mesos/worktrees/state-benchmarking/build-alexr/src/.libs/libmesos-1.8.0.so)
	    7fa494cd3606 _ZNSt6thread11_State_implINS_8_InvokerISt5tupleIJZN7process14ProcessManager12init_threadsEvEUlvE_EEEEE6_M_runEv+0x46 (/home/bevers/src/mesos/worktrees/state-benchmarking/build-alexr/src/.libs/libmesos-1.8.0.so)
	    7fa491e43733 [unknown] (/usr/lib/x86_64-linux-gnu/libstdc++.so.6.0.25)

master@127.0.1.1:5050 14784 182029.119728:       5000 cycles:uh: 
	    7fa494d00eb0 _ZN7process7PromiseINS_5OwnedINS_4http7RequestEEEE9associateERKNS_6FutureIS4_EE+0x0 (/home/bevers/src/mesos/worktrees/state-benchmarking/build-alexr/src/.libs/libmesos-1.8.0.so)
	    7fa494ce10c9 _ZNO6lambda12CallableOnceIFvRKN7process6FutureINSt7__cxx1112basic_stringIcSt11char_traitsIcESaIcEEEEEEE10CallableFnINS_8internal7PartialIPFvONS0_IFNS2_INS1_5OwnedINS1_4http7RequestEEEEERKS8_EEESt10unique_ptrINS1_7PromiseISK_EESt14default_deleteIST_EESB_EJSP_SW_St12_PlaceholderILi1EEEEEEclESB_+0x39 (/home/bevers/src/mesos/worktrees/state-benchmarking/build-alexr/src/.libs/libmesos-1.8.0.so)
	    7fa4939d76b4 _ZNK7process6FutureINSt7__cxx1112basic_stringIcSt11char_traitsIcESaIcEEEE5onAnyEON6lambda12CallableOnceIFvRKS7_EEE+0x54 (/home/bevers/src/mesos/worktrees/state-benchmarking/build-alexr/src/.libs/libmesos-1.8.0.so)
	    7fa494cf7d40 _ZNK7process6FutureINSt7__cxx1112basic_stringIcSt11char_traitsIcESaIcEEEE4thenINS_5OwnedINS_4http7RequestEEEEENS0_IT_EEN6lambda12CallableOnceIFSE_RKS6_EEE+0xc0 (/home/bevers/src/mesos/worktrees/state-benchmarking/build-alexr/src/.libs/libmesos-1.8.0.so)
	    7fa494cd17a6 _ZN7process11ProcessBase7consumeEONS_9HttpEventE+0x8d6 (/home/bevers/src/mesos/worktrees/state-benchmarking/build-alexr/src/.libs/libmesos-1.8.0.so)
	    7fa494ccd332 _ZN7process14ProcessManager6resumeEPNS_11ProcessBaseE+0x492 (/home/bevers/src/mesos/worktrees/state-benchmarking/build-alexr/src/.libs/libmesos-1.8.0.so)
	    7fa494cd3606 _ZNSt6thread11_State_implINS_8_InvokerISt5tupleIJZN7process14ProcessManager12init_threadsEvEUlvE_EEEEE6_M_runEv+0x46 (/home/bevers/src/mesos/worktrees/state-benchmarking/build-alexr/src/.libs/libmesos-1.8.0.so)
	    7fa491e43733 [unknown] (/usr/lib/x86_64-linux-gnu/libstdc++.so.6.0.25)

master@127.0.1.1:5050 14784 182029.119731:       5000 cycles:uh: 
	    7fa49391a44b _ZNO6lambda12CallableOnceIFvRKN7process5OwnedINS1_4http7RequestEEEEEclES7_@plt+0xb (/home/bevers/src/mesos/worktrees/state-benchmarking/build-alexr/src/.libs/libmesos-1.8.0.so)
	    7fa494d096ba _ZN7process8internal5thenfINSt7__cxx1112basic_stringIcSt11char_traitsIcESaIcEEENS_5OwnedINS_4http7RequestEEEEEvON6lambda12CallableOnceIFNS_6FutureIT0_EERKT_EEESt10unique_ptrINS_7PromiseISF_EESt14default_deleteISP_EERKNSE_ISH_EE+0x11a (/home/bevers/src/mesos/worktrees/state-benchmarking/build-alexr/src/.libs/libmesos-1.8.0.so)
	    7fa494ce10c9 _ZNO6lambda12CallableOnceIFvRKN7process6FutureINSt7__cxx1112basic_stringIcSt11char_traitsIcESaIcEEEEEEE10CallableFnINS_8internal7PartialIPFvONS0_IFNS2_INS1_5OwnedINS1_4http7RequestEEEEERKS8_EEESt10unique_ptrINS1_7PromiseISK_EESt14default_deleteIST_EESB_EJSP_SW_St12_PlaceholderILi1EEEEEEclESB_+0x39 (/home/bevers/src/mesos/worktrees/state-benchmarking/build-alexr/src/.libs/libmesos-1.8.0.so)
	    7fa4939d76b4 _ZNK7process6FutureINSt7__cxx1112basic_stringIcSt11char_traitsIcESaIcEEEE5onAnyEON6lambda12CallableOnceIFvRKS7_EEE+0x54 (/home/bevers/src/mesos/worktrees/state-benchmarking/build-alexr/src/.libs/libmesos-1.8.0.so)
	    7fa494cf7d40 _ZNK7process6FutureINSt7__cxx1112basic_stringIcSt11char_traitsIcESaIcEEEE4thenINS_5OwnedINS_4http7RequestEEEEENS0_IT_EEN6lambda12CallableOnceIFSE_RKS6_EEE+0xc0 (/home/bevers/src/mesos/worktrees/state-benchmarking/build-alexr/src/.libs/libmesos-1.8.0.so)
	    7fa494cd17a6 _ZN7process11ProcessBase7consumeEONS_9HttpEventE+0x8d6 (/home/bevers/src/mesos/worktrees/state-benchmarking/build-alexr/src/.libs/libmesos-1.8.0.so)
	    7fa494ccd332 _ZN7process14ProcessManager6resumeEPNS_11ProcessBaseE+0x492 (/home/bevers/src/mesos/worktrees/state-benchmarking/build-alexr/src/.libs/libmesos-1.8.0.so)
	    7fa494cd3606 _ZNSt6thread11_State_implINS_8_InvokerISt5tupleIJZN7process14ProcessManager12init_threadsEvEUlvE_EEEEE6_M_runEv+0x46 (/home/bevers/src/mesos/worktrees/state-benchmarking/build-alexr/src/.libs/libmesos-1.8.0.so)
	    7fa491e43733 [unknown] (/usr/lib/x86_64-linux-gnu/libstdc++.so.6.0.25)

master@127.0.1.1:5050 14784 182029.119735:       5000 cycles:uh: 
	    55af36d55838 _ZNSt16_Sp_counted_baseILN9__gnu_cxx12_Lock_policyE2EE15_M_weak_releaseEv+0x8 (/home/bevers/src/mesos/worktrees/state-benchmarking/build-alexr/src/.libs/mesos-master)
	    7fa494cf0c9e _ZN7process6FutureINS_5OwnedINS_4http7RequestEEEE4Data17clearAllCallbacksEv+0x9e (/home/bevers/src/mesos/worktrees/state-benchmarking/build-alexr/src/.libs/libmesos-1.8.0.so)
	    7fa494cfbd47 _ZN7process6FutureINS_5OwnedINS_4http7RequestEEEE4_setIRKS4_EEbOT_+0x297 (/home/bevers/src/mesos/worktrees/state-benchmarking/build-alexr/src/.libs/libmesos-1.8.0.so)
	    7fa494cf495b _ZNO6lambda12CallableOnceIFvRKN7process5OwnedINS1_4http7RequestEEEEEclES7_+0x4b (/home/bevers/src/mesos/worktrees/state-benchmarking/build-alexr/src/.libs/libmesos-1.8.0.so)
	    7fa494d0103e _ZN7process7PromiseINS_5OwnedINS_4http7RequestEEEE9associateERKNS_6FutureIS4_EE+0x18e (/home/bevers/src/mesos/worktrees/state-benchmarking/build-alexr/src/.libs/libmesos-1.8.0.so)
	    7fa494d096ba _ZN7process8internal5thenfINSt7__cxx1112basic_stringIcSt11char_traitsIcESaIcEEENS_5OwnedINS_4http7RequestEEEEEvON6lambda12CallableOnceIFNS_6FutureIT0_EERKT_EEESt10unique_ptrINS_7PromiseISF_EESt14default_deleteISP_EERKNSE_ISH_EE+0x11a (/home/bevers/src/mesos/worktrees/state-benchmarking/build-alexr/src/.libs/libmesos-1.8.0.so)
	    7fa494ce10c9 _ZNO6lambda12CallableOnceIFvRKN7process6FutureINSt7__cxx1112basic_stringIcSt11char_traitsIcESaIcEEEEEEE10CallableFnINS_8internal7PartialIPFvONS0_IFNS2_INS1_5OwnedINS1_4http7RequestEEEEERKS8_EEESt10unique_ptrINS1_7PromiseISK_EESt14default_deleteIST_EESB_EJSP_SW_St12_PlaceholderILi1EEEEEEclESB_+0x39 (/home/bevers/src/mesos/worktrees/state-benchmarking/build-alexr/src/.libs/libmesos-1.8.0.so)
	    7fa4939d76b4 _ZNK7process6FutureINSt7__cxx1112basic_stringIcSt11char_traitsIcESaIcEEEE5onAnyEON6lambda12CallableOnceIFvRKS7_EEE+0x54 (/home/bevers/src/mesos/worktrees/state-benchmarking/build-alexr/src/.libs/libmesos-1.8.0.so)
	    7fa494cf7d40 _ZNK7process6FutureINSt7__cxx1112basic_stringIcSt11char_traitsIcESaIcEEEE4thenINS_5OwnedINS_4http7RequestEEEEENS0_IT_EEN6lambda12CallableOnceIFSE_RKS6_EEE+0xc0 (/home/bevers/src/mesos/worktrees/state-benchmarking/build-alexr/src/.libs/libmesos-1.8.0.so)
	    7fa494cd17a6 _ZN7process11ProcessBase7consumeEONS_9HttpEventE+0x8d6 (/home/bevers/src/mesos/worktrees/state-benchmarking/build-alexr/src/.libs/libmesos-1.8.0.so)
	    7fa494ccd332 _ZN7process14ProcessManager6resumeEPNS_11ProcessBaseE+0x492 (/home/bevers/src/mesos/worktrees/state-benchmarking/build-alexr/src/.libs/libmesos-1.8.0.so)
	    7fa494cd3606 _ZNSt6thread11_State_implINS_8_InvokerISt5tupleIJZN7process14ProcessManager12init_threadsEvEUlvE_EEEEE6_M_runEv+0x46 (/home/bevers/src/mesos/worktrees/state-benchmarking/build-alexr/src/.libs/libmesos-1.8.0.so)
	    7fa491e43733 [unknown] (/usr/lib/x86_64-linux-gnu/libstdc++.so.6.0.25)

master@127.0.1.1:5050 14784 182029.119738:       5000 cycles:uh: 
	    7fa495d4f7d9 _dl_runtime_resolve_xsavec+0x89 (/lib/x86_64-linux-gnu/ld-2.27.so)
	    7fa494d096ba _ZN7process8internal5thenfINSt7__cxx1112basic_stringIcSt11char_traitsIcESaIcEEENS_5OwnedINS_4http7RequestEEEEEvON6lambda12CallableOnceIFNS_6FutureIT0_EERKT_EEESt10unique_ptrINS_7PromiseISF_EESt14default_deleteISP_EERKNSE_ISH_EE+0x11a (/home/bevers/src/mesos/worktrees/state-benchmarking/build-alexr/src/.libs/libmesos-1.8.0.so)
	    7fa494ce10c9 _ZNO6lambda12CallableOnceIFvRKN7process6FutureINSt7__cxx1112basic_stringIcSt11char_traitsIcESaIcEEEEEEE10CallableFnINS_8internal7PartialIPFvONS0_IFNS2_INS1_5OwnedINS1_4http7RequestEEEEERKS8_EEESt10unique_ptrINS1_7PromiseISK_EESt14default_deleteIST_EESB_EJSP_SW_St12_PlaceholderILi1EEEEEEclESB_+0x39 (/home/bevers/src/mesos/worktrees/state-benchmarking/build-alexr/src/.libs/libmesos-1.8.0.so)
	    7fa4939d76b4 _ZNK7process6FutureINSt7__cxx1112basic_stringIcSt11char_traitsIcESaIcEEEE5onAnyEON6lambda12CallableOnceIFvRKS7_EEE+0x54 (/home/bevers/src/mesos/worktrees/state-benchmarking/build-alexr/src/.libs/libmesos-1.8.0.so)
	    7fa494cf7d40 _ZNK7process6FutureINSt7__cxx1112basic_stringIcSt11char_traitsIcESaIcEEEE4thenINS_5OwnedINS_4http7RequestEEEEENS0_IT_EEN6lambda12CallableOnceIFSE_RKS6_EEE+0xc0 (/home/bevers/src/mesos/worktrees/state-benchmarking/build-alexr/src/.libs/libmesos-1.8.0.so)
	    7fa494cd17a6 _ZN7process11ProcessBase7consumeEONS_9HttpEventE+0x8d6 (/home/bevers/src/mesos/worktrees/state-benchmarking/build-alexr/src/.libs/libmesos-1.8.0.so)
	    7fa494ccd332 _ZN7process14ProcessManager6resumeEPNS_11ProcessBaseE+0x492 (/home/bevers/src/mesos/worktrees/state-benchmarking/build-alexr/src/.libs/libmesos-1.8.0.so)
	    7fa494cd3606 _ZNSt6thread11_State_implINS_8_InvokerISt5tupleIJZN7process14ProcessManager12init_threadsEvEUlvE_EEEEE6_M_runEv+0x46 (/home/bevers/src/mesos/worktrees/state-benchmarking/build-alexr/src/.libs/libmesos-1.8.0.so)
	    7fa491e43733 [unknown] (/usr/lib/x86_64-linux-gnu/libstdc++.so.6.0.25)

master@127.0.1.1:5050 14784 182029.119741:       5000 cycles:uh: 
	    7fa495d422fb do_lookup_x+0xbb (/lib/x86_64-linux-gnu/ld-2.27.so)

master@127.0.1.1:5050 14784 182029.119744:       5000 cycles:uh: 
	    7fa495d47e4b _dl_fixup+0x5b (/lib/x86_64-linux-gnu/ld-2.27.so)
	    7fa494cd17a6 _ZN7process11ProcessBase7consumeEONS_9HttpEventE+0x8d6 (/home/bevers/src/mesos/worktrees/state-benchmarking/build-alexr/src/.libs/libmesos-1.8.0.so)
	    7fa494ccd332 _ZN7process14ProcessManager6resumeEPNS_11ProcessBaseE+0x492 (/home/bevers/src/mesos/worktrees/state-benchmarking/build-alexr/src/.libs/libmesos-1.8.0.so)
	    7fa494cd3606 _ZNSt6thread11_State_implINS_8_InvokerISt5tupleIJZN7process14ProcessManager12init_threadsEvEUlvE_EEEEE6_M_runEv+0x46 (/home/bevers/src/mesos/worktrees/state-benchmarking/build-alexr/src/.libs/libmesos-1.8.0.so)
	    7fa491e43733 [unknown] (/usr/lib/x86_64-linux-gnu/libstdc++.so.6.0.25)

master@127.0.1.1:5050 14784 182029.119747:       5000 cycles:uh: 
	    7fa49180c971 cfree@GLIBC_2.2.5+0x21 (/lib/x86_64-linux-gnu/libc-2.27.so)
	    7fa494cd17c9 _ZN7process11ProcessBase7consumeEONS_9HttpEventE+0x8f9 (/home/bevers/src/mesos/worktrees/state-benchmarking/build-alexr/src/.libs/libmesos-1.8.0.so)
	    7fa494ccd332 _ZN7process14ProcessManager6resumeEPNS_11ProcessBaseE+0x492 (/home/bevers/src/mesos/worktrees/state-benchmarking/build-alexr/src/.libs/libmesos-1.8.0.so)
	    7fa494cd3606 _ZNSt6thread11_State_implINS_8_InvokerISt5tupleIJZN7process14ProcessManager12init_threadsEvEUlvE_EEEEE6_M_runEv+0x46 (/home/bevers/src/mesos/worktrees/state-benchmarking/build-alexr/src/.libs/libmesos-1.8.0.so)
	    7fa491e43733 [unknown] (/usr/lib/x86_64-linux-gnu/libstdc++.so.6.0.25)

master@127.0.1.1:5050 14784 182029.119750:       5000 cycles:uh: 
	    55af36d4db04 _ZNSt7__cxx1112basic_stringIcSt11char_traitsIcESaIcEE12_M_constructIPKcEEvT_S8_St20forward_iterator_tag.isra.409+0x84 (/home/bevers/src/mesos/worktrees/state-benchmarking/build-alexr/src/.libs/mesos-master)
	    7fa494cebc45 _ZN7process11ProcessBase12HttpEndpointC2ERKS1_+0x25 (/home/bevers/src/mesos/worktrees/state-benchmarking/build-alexr/src/.libs/libmesos-1.8.0.so)
	    7fa494cd17e3 _ZN7process11ProcessBase7consumeEONS_9HttpEventE+0x913 (/home/bevers/src/mesos/worktrees/state-benchmarking/build-alexr/src/.libs/libmesos-1.8.0.so)
	    7fa494ccd332 _ZN7process14ProcessManager6resumeEPNS_11ProcessBaseE+0x492 (/home/bevers/src/mesos/worktrees/state-benchmarking/build-alexr/src/.libs/libmesos-1.8.0.so)
	    7fa494cd3606 _ZNSt6thread11_State_implINS_8_InvokerISt5tupleIJZN7process14ProcessManager12init_threadsEvEUlvE_EEEEE6_M_runEv+0x46 (/home/bevers/src/mesos/worktrees/state-benchmarking/build-alexr/src/.libs/libmesos-1.8.0.so)
	    7fa491e43733 [unknown] (/usr/lib/x86_64-linux-gnu/libstdc++.so.6.0.25)

master@127.0.1.1:5050 14784 182029.119753:       5000 cycles:uh: 
	    7fa493bf1df1 _ZNSt14_Function_base13_Base_managerIZN5mesos8internal6master6Master10initializeEvEUlRKN7process4http7RequestERK6OptionINS6_14authentication9PrincipalEEE13_E10_M_managerERSt9_Any_dataRKSI_St18_Manager_operation+0x1 (/home/bevers/src/mesos/worktrees/state-benchmarking/build-alexr/src/.libs/libmesos-1.8.0.so)
	    7fa494cd1931 _ZN7process11ProcessBase7consumeEONS_9HttpEventE+0xa61 (/home/bevers/src/mesos/worktrees/state-benchmarking/build-alexr/src/.libs/libmesos-1.8.0.so)
	    7fa494ccd332 _ZN7process14ProcessManager6resumeEPNS_11ProcessBaseE+0x492 (/home/bevers/src/mesos/worktrees/state-benchmarking/build-alexr/src/.libs/libmesos-1.8.0.so)
	    7fa494cd3606 _ZNSt6thread11_State_implINS_8_InvokerISt5tupleIJZN7process14ProcessManager12init_threadsEvEUlvE_EEEEE6_M_runEv+0x46 (/home/bevers/src/mesos/worktrees/state-benchmarking/build-alexr/src/.libs/libmesos-1.8.0.so)
	    7fa491e43733 [unknown] (/usr/lib/x86_64-linux-gnu/libstdc++.so.6.0.25)

master@127.0.1.1:5050 14784 182029.119755:       5000 cycles:uh: 
	    7fa494cf9510 _ZNK7process6FutureINS_5OwnedINS_4http7RequestEEEE4thenINS2_8ResponseEEENS0_IT_EEN6lambda12CallableOnceIFS9_RKS4_EEE+0x0 (/home/bevers/src/mesos/worktrees/state-benchmarking/build-alexr/src/.libs/libmesos-1.8.0.so)
	    7fa494ccd332 _ZN7process14ProcessManager6resumeEPNS_11ProcessBaseE+0x492 (/home/bevers/src/mesos/worktrees/state-benchmarking/build-alexr/src/.libs/libmesos-1.8.0.so)
	    7fa494cd3606 _ZNSt6thread11_State_implINS_8_InvokerISt5tupleIJZN7process14ProcessManager12init_threadsEvEUlvE_EEEEE6_M_runEv+0x46 (/home/bevers/src/mesos/worktrees/state-benchmarking/build-alexr/src/.libs/libmesos-1.8.0.so)
	    7fa491e43733 [unknown] (/usr/lib/x86_64-linux-gnu/libstdc++.so.6.0.25)

master@127.0.1.1:5050 14784 182029.119758:       5000 cycles:uh: 
	    7fa495d42709 do_lookup_x+0x4c9 (/lib/x86_64-linux-gnu/ld-2.27.so)
	               0 [unknown] ([unknown])

master@127.0.1.1:5050 14784 182029.119761:       5000 cycles:uh: 
	    7fa495d430cd _dl_lookup_symbol_x+0x1d (/lib/x86_64-linux-gnu/ld-2.27.so)
	    7fa494d094d0 _ZN7process8internal5thenfINS_5OwnedINS_4http7RequestEEENS3_8ResponseEEEvON6lambda12CallableOnceIFNS_6FutureIT0_EERKT_EEESt10unique_ptrINS_7PromiseISA_EESt14default_deleteISK_EERKNS9_ISC_EE+0x80 (/home/bevers/src/mesos/worktrees/state-benchmarking/build-alexr/src/.libs/libmesos-1.8.0.so)
	    7fa494ce0f49 _ZNO6lambda12CallableOnceIFvRKN7process6FutureINS1_5OwnedINS1_4http7RequestEEEEEEE10CallableFnINS_8internal7PartialIPFvONS0_IFNS2_INS4_8ResponseEEERKS6_EEESt10unique_ptrINS1_7PromiseISF_EESt14default_deleteISO_EES9_EJSK_SR_St12_PlaceholderILi1EEEEEEclES9_+0x39 (/home/bevers/src/mesos/worktrees/state-benchmarking/build-alexr/src/.libs/libmesos-1.8.0.so)
	    7fa494cf95e7 _ZNK7process6FutureINS_5OwnedINS_4http7RequestEEEE4thenINS2_8ResponseEEENS0_IT_EEN6lambda12CallableOnceIFS9_RKS4_EEE+0xd7 (/home/bevers/src/mesos/worktrees/state-benchmarking/build-alexr/src/.libs/libmesos-1.8.0.so)
	    7fa494cd197a _ZN7process11ProcessBase7consumeEONS_9HttpEventE+0xaaa (/home/bevers/src/mesos/worktrees/state-benchmarking/build-alexr/src/.libs/libmesos-1.8.0.so)
	    7fa494ccd332 _ZN7process14ProcessManager6resumeEPNS_11ProcessBaseE+0x492 (/home/bevers/src/mesos/worktrees/state-benchmarking/build-alexr/src/.libs/libmesos-1.8.0.so)
	    7fa494cd3606 _ZNSt6thread11_State_implINS_8_InvokerISt5tupleIJZN7process14ProcessManager12init_threadsEvEUlvE_EEEEE6_M_runEv+0x46 (/home/bevers/src/mesos/worktrees/state-benchmarking/build-alexr/src/.libs/libmesos-1.8.0.so)
	    7fa491e43733 [unknown] (/usr/lib/x86_64-linux-gnu/libstdc++.so.6.0.25)

master@127.0.1.1:5050 14784 182029.119764:       5000 cycles:uh: 
	    7fa495d51a05 __tls_get_addr+0x15 (/lib/x86_64-linux-gnu/ld-2.27.so)
	    7fa493af4331 _ZN7process8internal8DispatchINS_6FutureINS_4http8ResponseEEEEclIN6lambda12CallableOnceIFS5_vEEEEES5_RKNS_4UPIDEOT_+0xd1 (/home/bevers/src/mesos/worktrees/state-benchmarking/build-alexr/src/.libs/libmesos-1.8.0.so)
	    7fa494cc9cf5 _ZNO6lambda12CallableOnceIFN7process6FutureINS1_4http8ResponseEEERKNS1_5OwnedINS3_7RequestEEEEE10CallableFnINS_8internal7PartialIZNOS1_9_DeferredIZNS1_11ProcessBase7consumeEONS1_9HttpEventEEUlSA_E_EcvNS0_IFT_T0_EEEIS5_SA_EEvEUlOSK_SA_E_JSK_St12_PlaceholderILi1EEEEEEclESA_+0x215 (/home/bevers/src/mesos/worktrees/state-benchmarking/build-alexr/src/.libs/libmesos-1.8.0.so)
	    7fa494d094d0 _ZN7process8internal5thenfINS_5OwnedINS_4http7RequestEEENS3_8ResponseEEEvON6lambda12CallableOnceIFNS_6FutureIT0_EERKT_EEESt10unique_ptrINS_7PromiseISA_EESt14default_deleteISK_EERKNS9_ISC_EE+0x80 (/home/bevers/src/mesos/worktrees/state-benchmarking/build-alexr/src/.libs/libmesos-1.8.0.so)
	    7fa494ce0f49 _ZNO6lambda12CallableOnceIFvRKN7process6FutureINS1_5OwnedINS1_4http7RequestEEEEEEE10CallableFnINS_8internal7PartialIPFvONS0_IFNS2_INS4_8ResponseEEERKS6_EEESt10unique_ptrINS1_7PromiseISF_EESt14default_deleteISO_EES9_EJSK_SR_St12_PlaceholderILi1EEEEEEclES9_+0x39 (/home/bevers/src/mesos/worktrees/state-benchmarking/build-alexr/src/.libs/libmesos-1.8.0.so)
	    7fa494cf95e7 _ZNK7process6FutureINS_5OwnedINS_4http7RequestEEEE4thenINS2_8ResponseEEENS0_IT_EEN6lambda12CallableOnceIFS9_RKS4_EEE+0xd7 (/home/bevers/src/mesos/worktrees/state-benchmarking/build-alexr/src/.libs/libmesos-1.8.0.so)
	    7fa494cd197a _ZN7process11ProcessBase7consumeEONS_9HttpEventE+0xaaa (/home/bevers/src/mesos/worktrees/state-benchmarking/build-alexr/src/.libs/libmesos-1.8.0.so)
	    7fa494ccd332 _ZN7process14ProcessManager6resumeEPNS_11ProcessBaseE+0x492 (/home/bevers/src/mesos/worktrees/state-benchmarking/build-alexr/src/.libs/libmesos-1.8.0.so)
	    7fa494cd3606 _ZNSt6thread11_State_implINS_8_InvokerISt5tupleIJZN7process14ProcessManager12init_threadsEvEUlvE_EEEEE6_M_runEv+0x46 (/home/bevers/src/mesos/worktrees/state-benchmarking/build-alexr/src/.libs/libmesos-1.8.0.so)
	    7fa491e43733 [unknown] (/usr/lib/x86_64-linux-gnu/libstdc++.so.6.0.25)

master@127.0.1.1:5050 14784 182029.119767:       5000 cycles:uh: 
	    7fa494cbe240 _ZN7process14ProcessManager7deliverEPNS_11ProcessBaseEPNS_5EventES2_+0x0 (/home/bevers/src/mesos/worktrees/state-benchmarking/build-alexr/src/.libs/libmesos-1.8.0.so)
	    7fa494cc92a7 _ZN7process8internal8dispatchERKNS_4UPIDESt10unique_ptrIN6lambda12CallableOnceIFvPNS_11ProcessBaseEEEESt14default_deleteISA_EERK6OptionIPKSt9type_infoE+0x267 (/home/bevers/src/mesos/worktrees/state-benchmarking/build-alexr/src/.libs/libmesos-1.8.0.so)
	    7fa493af4331 _ZN7process8internal8DispatchINS_6FutureINS_4http8ResponseEEEEclIN6lambda12CallableOnceIFS5_vEEEEES5_RKNS_4UPIDEOT_+0xd1 (/home/bevers/src/mesos/worktrees/state-benchmarking/build-alexr/src/.libs/libmesos-1.8.0.so)
	    7fa494cc9cf5 _ZNO6lambda12CallableOnceIFN7process6FutureINS1_4http8ResponseEEERKNS1_5OwnedINS3_7RequestEEEEE10CallableFnINS_8internal7PartialIZNOS1_9_DeferredIZNS1_11ProcessBase7consumeEONS1_9HttpEventEEUlSA_E_EcvNS0_IFT_T0_EEEIS5_SA_EEvEUlOSK_SA_E_JSK_St12_PlaceholderILi1EEEEEEclESA_+0x215 (/home/bevers/src/mesos/worktrees/state-benchmarking/build-alexr/src/.libs/libmesos-1.8.0.so)
	    7fa494d094d0 _ZN7process8internal5thenfINS_5OwnedINS_4http7RequestEEENS3_8ResponseEEEvON6lambda12CallableOnceIFNS_6FutureIT0_EERKT_EEESt10unique_ptrINS_7PromiseISA_EESt14default_deleteISK_EERKNS9_ISC_EE+0x80 (/home/bevers/src/mesos/worktrees/state-benchmarking/build-alexr/src/.libs/libmesos-1.8.0.so)
	    7fa494ce0f49 _ZNO6lambda12CallableOnceIFvRKN7process6FutureINS1_5OwnedINS1_4http7RequestEEEEEEE10CallableFnINS_8internal7PartialIPFvONS0_IFNS2_INS4_8ResponseEEERKS6_EEESt10unique_ptrINS1_7PromiseISF_EESt14default_deleteISO_EES9_EJSK_SR_St12_PlaceholderILi1EEEEEEclES9_+0x39 (/home/bevers/src/mesos/worktrees/state-benchmarking/build-alexr/src/.libs/libmesos-1.8.0.so)
	    7fa494cf95e7 _ZNK7process6FutureINS_5OwnedINS_4http7RequestEEEE4thenINS2_8ResponseEEENS0_IT_EEN6lambda12CallableOnceIFS9_RKS4_EEE+0xd7 (/home/bevers/src/mesos/worktrees/state-benchmarking/build-alexr/src/.libs/libmesos-1.8.0.so)
	    7fa494cd197a _ZN7process11ProcessBase7consumeEONS_9HttpEventE+0xaaa (/home/bevers/src/mesos/worktrees/state-benchmarking/build-alexr/src/.libs/libmesos-1.8.0.so)
	    7fa494ccd332 _ZN7process14ProcessManager6resumeEPNS_11ProcessBaseE+0x492 (/home/bevers/src/mesos/worktrees/state-benchmarking/build-alexr/src/.libs/libmesos-1.8.0.so)
	    7fa494cd3606 _ZNSt6thread11_State_implINS_8_InvokerISt5tupleIJZN7process14ProcessManager12init_threadsEvEUlvE_EEEEE6_M_runEv+0x46 (/home/bevers/src/mesos/worktrees/state-benchmarking/build-alexr/src/.libs/libmesos-1.8.0.so)
	    7fa491e43733 [unknown] (/usr/lib/x86_64-linux-gnu/libstdc++.so.6.0.25)

master@127.0.1.1:5050 14784 182029.119771:       5000 cycles:uh: 
	    7fa495d47e1d _dl_fixup+0x2d (/lib/x86_64-linux-gnu/ld-2.27.so)
	    7fa494ce0f49 _ZNO6lambda12CallableOnceIFvRKN7process6FutureINS1_5OwnedINS1_4http7RequestEEEEEEE10CallableFnINS_8internal7PartialIPFvONS0_IFNS2_INS4_8ResponseEEERKS6_EEESt10unique_ptrINS1_7PromiseISF_EESt14default_deleteISO_EES9_EJSK_SR_St12_PlaceholderILi1EEEEEEclES9_+0x39 (/home/bevers/src/mesos/worktrees/state-benchmarking/build-alexr/src/.libs/libmesos-1.8.0.so)
	    7fa494cf95e7 _ZNK7process6FutureINS_5OwnedINS_4http7RequestEEEE4thenINS2_8ResponseEEENS0_IT_EEN6lambda12CallableOnceIFS9_RKS4_EEE+0xd7 (/home/bevers/src/mesos/worktrees/state-benchmarking/build-alexr/src/.libs/libmesos-1.8.0.so)
	    7fa494cd197a _ZN7process11ProcessBase7consumeEONS_9HttpEventE+0xaaa (/home/bevers/src/mesos/worktrees/state-benchmarking/build-alexr/src/.libs/libmesos-1.8.0.so)
	    7fa494ccd332 _ZN7process14ProcessManager6resumeEPNS_11ProcessBaseE+0x492 (/home/bevers/src/mesos/worktrees/state-benchmarking/build-alexr/src/.libs/libmesos-1.8.0.so)
	    7fa494cd3606 _ZNSt6thread11_State_implINS_8_InvokerISt5tupleIJZN7process14ProcessManager12init_threadsEvEUlvE_EEEEE6_M_runEv+0x46 (/home/bevers/src/mesos/worktrees/state-benchmarking/build-alexr/src/.libs/libmesos-1.8.0.so)
	    7fa491e43733 [unknown] (/usr/lib/x86_64-linux-gnu/libstdc++.so.6.0.25)

master@127.0.1.1:5050 14784 182029.119774:       5000 cycles:uh: 
	    7fa495d42709 do_lookup_x+0x4c9 (/lib/x86_64-linux-gnu/ld-2.27.so)
	               0 [unknown] ([unknown])

master@127.0.1.1:5050 14784 182029.119777:       5000 cycles:uh: 
	    7fa495d42709 do_lookup_x+0x4c9 (/lib/x86_64-linux-gnu/ld-2.27.so)
	               0 [unknown] ([unknown])

master@127.0.1.1:5050 14784 182029.119779:       5000 cycles:uh: 
	    7fa49180c2c1 malloc+0x251 (/lib/x86_64-linux-gnu/libc-2.27.so)
	               1 [unknown] ([unknown])

master@127.0.1.1:5050 14784 182029.119782:       5000 cycles:uh: 
	    55af36d63ac1 _ZNSt6vectorIN6lambda12CallableOnceIFvRKNSt7__cxx1112basic_stringIcSt11char_traitsIcESaIcEEEEEESaISB_EE17_M_realloc_insertIJSB_EEEvN9__gnu_cxx17__normal_iteratorIPSB_SD_EEDpOT_+0x1 (/home/bevers/src/mesos/worktrees/state-benchmarking/build-alexr/src/.libs/mesos-master)
	    7fa4939d6eca _ZN7process7PromiseINS_4http8ResponseEE9associateERKNS_6FutureIS2_EE+0x22a (/home/bevers/src/mesos/worktrees/state-benchmarking/build-alexr/src/.libs/libmesos-1.8.0.so)
	    7fa494d094db _ZN7process8internal5thenfINS_5OwnedINS_4http7RequestEEENS3_8ResponseEEEvON6lambda12CallableOnceIFNS_6FutureIT0_EERKT_EEESt10unique_ptrINS_7PromiseISA_EESt14default_deleteISK_EERKNS9_ISC_EE+0x8b (/home/bevers/src/mesos/worktrees/state-benchmarking/build-alexr/src/.libs/libmesos-1.8.0.so)
	    7fa494ce0f49 _ZNO6lambda12CallableOnceIFvRKN7process6FutureINS1_5OwnedINS1_4http7RequestEEEEEEE10CallableFnINS_8internal7PartialIPFvONS0_IFNS2_INS4_8ResponseEEERKS6_EEESt10unique_ptrINS1_7PromiseISF_EESt14default_deleteISO_EES9_EJSK_SR_St12_PlaceholderILi1EEEEEEclES9_+0x39 (/home/bevers/src/mesos/worktrees/state-benchmarking/build-alexr/src/.libs/libmesos-1.8.0.so)
	    7fa494cf95e7 _ZNK7process6FutureINS_5OwnedINS_4http7RequestEEEE4thenINS2_8ResponseEEENS0_IT_EEN6lambda12CallableOnceIFS9_RKS4_EEE+0xd7 (/home/bevers/src/mesos/worktrees/state-benchmarking/build-alexr/src/.libs/libmesos-1.8.0.so)
	    7fa494cd197a _ZN7process11ProcessBase7consumeEONS_9HttpEventE+0xaaa (/home/bevers/src/mesos/worktrees/state-benchmarking/build-alexr/src/.libs/libmesos-1.8.0.so)
	    7fa494ccd332 _ZN7process14ProcessManager6resumeEPNS_11ProcessBaseE+0x492 (/home/bevers/src/mesos/worktrees/state-benchmarking/build-alexr/src/.libs/libmesos-1.8.0.so)
	    7fa494cd3606 _ZNSt6thread11_State_implINS_8_InvokerISt5tupleIJZN7process14ProcessManager12init_threadsEvEUlvE_EEEEE6_M_runEv+0x46 (/home/bevers/src/mesos/worktrees/state-benchmarking/build-alexr/src/.libs/libmesos-1.8.0.so)
	    7fa491e43733 [unknown] (/usr/lib/x86_64-linux-gnu/libstdc++.so.6.0.25)

master@127.0.1.1:5050 14784 182029.119785:       5000 cycles:uh: 
	    7fa4939c7d70 _ZN7process7PromiseINS_4http8ResponseEED0Ev+0x0 (/home/bevers/src/mesos/worktrees/state-benchmarking/build-alexr/src/.libs/libmesos-1.8.0.so)
	    7fa494cf95e7 _ZNK7process6FutureINS_5OwnedINS_4http7RequestEEEE4thenINS2_8ResponseEEENS0_IT_EEN6lambda12CallableOnceIFS9_RKS4_EEE+0xd7 (/home/bevers/src/mesos/worktrees/state-benchmarking/build-alexr/src/.libs/libmesos-1.8.0.so)
	    7fa494cd197a _ZN7process11ProcessBase7consumeEONS_9HttpEventE+0xaaa (/home/bevers/src/mesos/worktrees/state-benchmarking/build-alexr/src/.libs/libmesos-1.8.0.so)
	    7fa494ccd332 _ZN7process14ProcessManager6resumeEPNS_11ProcessBaseE+0x492 (/home/bevers/src/mesos/worktrees/state-benchmarking/build-alexr/src/.libs/libmesos-1.8.0.so)
	    7fa494cd3606 _ZNSt6thread11_State_implINS_8_InvokerISt5tupleIJZN7process14ProcessManager12init_threadsEvEUlvE_EEEEE6_M_runEv+0x46 (/home/bevers/src/mesos/worktrees/state-benchmarking/build-alexr/src/.libs/libmesos-1.8.0.so)
	    7fa491e43733 [unknown] (/usr/lib/x86_64-linux-gnu/libstdc++.so.6.0.25)

master@127.0.1.1:5050 14784 182029.119788:       5000 cycles:uh: 
	    7fa494cf9691 _ZNK7process6FutureINS_5OwnedINS_4http7RequestEEEE4thenINS2_8ResponseEEENS0_IT_EEN6lambda12CallableOnceIFS9_RKS4_EEE+0x181 (/home/bevers/src/mesos/worktrees/state-benchmarking/build-alexr/src/.libs/libmesos-1.8.0.so)
	    7fa494cd197a _ZN7process11ProcessBase7consumeEONS_9HttpEventE+0xaaa (/home/bevers/src/mesos/worktrees/state-benchmarking/build-alexr/src/.libs/libmesos-1.8.0.so)
	    7fa494ccd332 _ZN7process14ProcessManager6resumeEPNS_11ProcessBaseE+0x492 (/home/bevers/src/mesos/worktrees/state-benchmarking/build-alexr/src/.libs/libmesos-1.8.0.so)
	    7fa494cd3606 _ZNSt6thread11_State_implINS_8_InvokerISt5tupleIJZN7process14ProcessManager12init_threadsEvEUlvE_EEEEE6_M_runEv+0x46 (/home/bevers/src/mesos/worktrees/state-benchmarking/build-alexr/src/.libs/libmesos-1.8.0.so)
	    7fa491e43733 [unknown] (/usr/lib/x86_64-linux-gnu/libstdc++.so.6.0.25)

master@127.0.1.1:5050 14784 182029.119791:       5000 cycles:uh: 
	    7fa494cbc2d0 _ZN6lambda12CallableOnceIFN7process6FutureINS1_4http8ResponseEEERKNS1_5OwnedINS3_7RequestEEEEE10CallableFnINS_8internal7PartialIZNOS1_9_DeferredIZNS1_11ProcessBase7consumeEONS1_9HttpEventEEUlSA_E_EcvNS0_IFT_T0_EEEIS5_SA_EEvEUlOSK_SA_E_JSK_St12_PlaceholderILi1EEEEEED0Ev+0x0 (/home/bevers/src/mesos/worktrees/state-benchmarking/build-alexr/src/.libs/libmesos-1.8.0.so)
	    7fa494cf96d8 _ZNK7process6FutureINS_5OwnedINS_4http7RequestEEEE4thenINS2_8ResponseEEENS0_IT_EEN6lambda12CallableOnceIFS9_RKS4_EEE+0x1c8 (/home/bevers/src/mesos/worktrees/state-benchmarking/build-alexr/src/.libs/libmesos-1.8.0.so)
	    7fa494cd197a _ZN7process11ProcessBase7consumeEONS_9HttpEventE+0xaaa (/home/bevers/src/mesos/worktrees/state-benchmarking/build-alexr/src/.libs/libmesos-1.8.0.so)
	    7fa494ccd332 _ZN7process14ProcessManager6resumeEPNS_11ProcessBaseE+0x492 (/home/bevers/src/mesos/worktrees/state-benchmarking/build-alexr/src/.libs/libmesos-1.8.0.so)
	    7fa494cd3606 _ZNSt6thread11_State_implINS_8_InvokerISt5tupleIJZN7process14ProcessManager12init_threadsEvEUlvE_EEEEE6_M_runEv+0x46 (/home/bevers/src/mesos/worktrees/state-benchmarking/build-alexr/src/.libs/libmesos-1.8.0.so)
	    7fa491e43733 [unknown] (/usr/lib/x86_64-linux-gnu/libstdc++.so.6.0.25)

master@127.0.1.1:5050 14784 182029.119794:       5000 cycles:uh: 
	    7fa4939d5f10 _ZNSt6vectorIN6lambda12CallableOnceIFvRKN7process6FutureINS2_4http8ResponseEEEEEESaISA_EE12emplace_backIJSA_EEEvDpOT_+0x0 (/home/bevers/src/mesos/worktrees/state-benchmarking/build-alexr/src/.libs/libmesos-1.8.0.so)
	    7fa494cd1b50 _ZN7process11ProcessBase7consumeEONS_9HttpEventE+0xc80 (/home/bevers/src/mesos/worktrees/state-benchmarking/build-alexr/src/.libs/libmesos-1.8.0.so)
	    7fa494ccd332 _ZN7process14ProcessManager6resumeEPNS_11ProcessBaseE+0x492 (/home/bevers/src/mesos/worktrees/state-benchmarking/build-alexr/src/.libs/libmesos-1.8.0.so)
	    7fa494cd3606 _ZNSt6thread11_State_implINS_8_InvokerISt5tupleIJZN7process14ProcessManager12init_threadsEvEUlvE_EEEEE6_M_runEv+0x46 (/home/bevers/src/mesos/worktrees/state-benchmarking/build-alexr/src/.libs/libmesos-1.8.0.so)
	    7fa491e43733 [unknown] (/usr/lib/x86_64-linux-gnu/libstdc++.so.6.0.25)

master@127.0.1.1:5050 14784 182029.119797:       5000 cycles:uh: 
	    55af36d5b007 _ZNSt6vectorIN6lambda12CallableOnceIFvvEEESaIS3_EE17_M_realloc_insertIJS3_EEEvN9__gnu_cxx17__normal_iteratorIPS3_S5_EEDpOT_+0x27 (/home/bevers/src/mesos/worktrees/state-benchmarking/build-alexr/src/.libs/mesos-master)
	    7fa4939d1faf _ZNK7process6FutureINS_4http8ResponseEE11onAbandonedEON6lambda12CallableOnceIFvvEEE+0x7f (/home/bevers/src/mesos/worktrees/state-benchmarking/build-alexr/src/.libs/libmesos-1.8.0.so)
	    7fa4939d7037 _ZN7process7PromiseINS_4http8ResponseEE9associateERKNS_6FutureIS2_EE+0x397 (/home/bevers/src/mesos/worktrees/state-benchmarking/build-alexr/src/.libs/libmesos-1.8.0.so)
	    7fa494cd1ba3 _ZN7process11ProcessBase7consumeEONS_9HttpEventE+0xcd3 (/home/bevers/src/mesos/worktrees/state-benchmarking/build-alexr/src/.libs/libmesos-1.8.0.so)
	    7fa494ccd332 _ZN7process14ProcessManager6resumeEPNS_11ProcessBaseE+0x492 (/home/bevers/src/mesos/worktrees/state-benchmarking/build-alexr/src/.libs/libmesos-1.8.0.so)
	    7fa494cd3606 _ZNSt6thread11_State_implINS_8_InvokerISt5tupleIJZN7process14ProcessManager12init_threadsEvEUlvE_EEEEE6_M_runEv+0x46 (/home/bevers/src/mesos/worktrees/state-benchmarking/build-alexr/src/.libs/libmesos-1.8.0.so)
	    7fa491e43733 [unknown] (/usr/lib/x86_64-linux-gnu/libstdc++.so.6.0.25)

master@127.0.1.1:5050 14784 182029.119800:       5000 cycles:uh: 
	    7fa4938e8106 _Z9stringifyIN7process4UPIDEENSt7__cxx1112basic_stringIcSt11char_traitsIcESaIcEEERKT_@plt+0x6 (/home/bevers/src/mesos/worktrees/state-benchmarking/build-alexr/src/.libs/libmesos-1.8.0.so)
	    7fa494ccd344 _ZN7process14ProcessManager6resumeEPNS_11ProcessBaseE+0x4a4 (/home/bevers/src/mesos/worktrees/state-benchmarking/build-alexr/src/.libs/libmesos-1.8.0.so)
	    7fa494cd3606 _ZNSt6thread11_State_implINS_8_InvokerISt5tupleIJZN7process14ProcessManager12init_threadsEvEUlvE_EEEEE6_M_runEv+0x46 (/home/bevers/src/mesos/worktrees/state-benchmarking/build-alexr/src/.libs/libmesos-1.8.0.so)
	    7fa491e43733 [unknown] (/usr/lib/x86_64-linux-gnu/libstdc++.so.6.0.25)

master@127.0.1.1:5050 14784 182029.119803:       5000 cycles:uh: 
	    7fa491ea3e68 _ZNSt7__cxx1119basic_ostringstreamIcSt11char_traitsIcESaIcEEC1ESt13_Ios_Openmode+0xb8 (/usr/lib/x86_64-linux-gnu/libstdc++.so.6.0.25)
	               6 [unknown] ([unknown])
	    7fa491ea0de0 _ZTv0_n24_NSt7__cxx1119basic_ostringstreamIcSt11char_traitsIcESaIcEED0Ev+0x0 (/usr/lib/x86_64-linux-gnu/libstdc++.so.6.0.25)
	2d058b48e8588b48 [unknown] ([unknown])

master@127.0.1.1:5050 14784 182029.119806:       5000 cycles:uh: 
	    7fa4917da000 sprintf+0x0 (/lib/x86_64-linux-gnu/libc-2.27.so)
	    7fa494c9dc2d _ZN7processlsERSoRKNS_4UPIDE+0x4d (/home/bevers/src/mesos/worktrees/state-benchmarking/build-alexr/src/.libs/libmesos-1.8.0.so)
	    7fa493c69564 _Z9stringifyIN7process4UPIDEENSt7__cxx1112basic_stringIcSt11char_traitsIcESaIcEEERKT_+0x44 (/home/bevers/src/mesos/worktrees/state-benchmarking/build-alexr/src/.libs/libmesos-1.8.0.so)
	    7fa494c9a8bf _ZN7process16LibprocessTracer7disableEv+0x6f (/home/bevers/src/mesos/worktrees/state-benchmarking/build-alexr/src/.libs/libmesos-1.8.0.so)
	    7fa494ccd344 _ZN7process14ProcessManager6resumeEPNS_11ProcessBaseE+0x4a4 (/home/bevers/src/mesos/worktrees/state-benchmarking/build-alexr/src/.libs/libmesos-1.8.0.so)
	    7fa494cd3606 _ZNSt6thread11_State_implINS_8_InvokerISt5tupleIJZN7process14ProcessManager12init_threadsEvEUlvE_EEEEE6_M_runEv+0x46 (/home/bevers/src/mesos/worktrees/state-benchmarking/build-alexr/src/.libs/libmesos-1.8.0.so)
	    7fa491e43733 [unknown] (/usr/lib/x86_64-linux-gnu/libstdc++.so.6.0.25)

master@127.0.1.1:5050 14784 182029.119809:       5000 cycles:uh: 
	    7fa4917d2059 vfprintf+0x1cc9 (/lib/x86_64-linux-gnu/libc-2.27.so)
	    7fa4917f66d1 _IO_vsprintf+0x81 (/lib/x86_64-linux-gnu/libc-2.27.so)
	               8 [unknown] ([unknown])

master@127.0.1.1:5050 14784 182029.119812:       5000 cycles:uh: 
	    7fa49180c306 malloc+0x296 (/lib/x86_64-linux-gnu/libc-2.27.so)
	               1 [unknown] ([unknown])

master@127.0.1.1:5050 14784 182029.119814:       5000 cycles:uh: 
	    7fa491e9bf78 _ZNSo6sentryC2ERSo+0x28 (/usr/lib/x86_64-linux-gnu/libstdc++.so.6.0.25)
	    55af36f760a0 [unknown] ([unknown])

master@127.0.1.1:5050 14784 182029.119817:       5000 cycles:uh: 
	    7fa495d422fb do_lookup_x+0xbb (/lib/x86_64-linux-gnu/ld-2.27.so)

master@127.0.1.1:5050 14784 182029.119820:       5000 cycles:uh: 
	    7fa491800930 _IO_file_xsputn@@GLIBC_2.2.5+0x0 (/lib/x86_64-linux-gnu/libc-2.27.so)

master@127.0.1.1:5050 14784 182029.119824:       5000 cycles:uh: 
	    7fa4938f7636 _ZNSo3putEc@plt+0x6 (/home/bevers/src/mesos/worktrees/state-benchmarking/build-alexr/src/.libs/libmesos-1.8.0.so)
	    7fa494ccd344 _ZN7process14ProcessManager6resumeEPNS_11ProcessBaseE+0x4a4 (/home/bevers/src/mesos/worktrees/state-benchmarking/build-alexr/src/.libs/libmesos-1.8.0.so)
	    7fa494cd3606 _ZNSt6thread11_State_implINS_8_InvokerISt5tupleIJZN7process14ProcessManager12init_threadsEvEUlvE_EEEEE6_M_runEv+0x46 (/home/bevers/src/mesos/worktrees/state-benchmarking/build-alexr/src/.libs/libmesos-1.8.0.so)
	    7fa491e43733 [unknown] (/usr/lib/x86_64-linux-gnu/libstdc++.so.6.0.25)

master@127.0.1.1:5050 14784 182029.119827:       5000 cycles:uh: 
	    7fa491e75160 _ZN9__gnu_cxx18stdio_sync_filebufIcSt11char_traitsIcEE8overflowEi+0x0 (/usr/lib/x86_64-linux-gnu/libstdc++.so.6.0.25)
	    55af36f760a0 [unknown] ([unknown])
	8000000000000000 [unknown] ([unknown])

master@127.0.1.1:5050 14784 182029.119830:       5000 cycles:uh: 
	    7fa4917fd230 _IO_putc+0x0 (/lib/x86_64-linux-gnu/libc-2.27.so)
	    55af36f760a0 [unknown] ([unknown])
	8000000000000000 [unknown] ([unknown])

master@127.0.1.1:5050 14784 182029.119839:       5000 cycles:uh: 
	    7fa495d42734 do_lookup_x+0x4f4 (/lib/x86_64-linux-gnu/ld-2.27.so)
	               0 [unknown] ([unknown])

master@127.0.1.1:5050 14784 182029.119855:       5000 cycles:uh: 
	    7fa495d42734 do_lookup_x+0x4f4 (/lib/x86_64-linux-gnu/ld-2.27.so)
	               0 [unknown] ([unknown])

master@127.0.1.1:5050 14784 182029.119859:       5000 cycles:uh: 
	    7fa495d47e4b _dl_fixup+0x5b (/lib/x86_64-linux-gnu/ld-2.27.so)
	    7fa494ccd344 _ZN7process14ProcessManager6resumeEPNS_11ProcessBaseE+0x4a4 (/home/bevers/src/mesos/worktrees/state-benchmarking/build-alexr/src/.libs/libmesos-1.8.0.so)
	    7fa494cd3606 _ZNSt6thread11_State_implINS_8_InvokerISt5tupleIJZN7process14ProcessManager12init_threadsEvEUlvE_EEEEE6_M_runEv+0x46 (/home/bevers/src/mesos/worktrees/state-benchmarking/build-alexr/src/.libs/libmesos-1.8.0.so)
	    7fa491e43733 [unknown] (/usr/lib/x86_64-linux-gnu/libstdc++.so.6.0.25)

master@127.0.1.1:5050 14784 182029.121417:       5000 cycles:uh: 
	    7fa494ccd319 _ZN7process14ProcessManager6resumeEPNS_11ProcessBaseE+0x479 (/home/bevers/src/mesos/worktrees/state-benchmarking/build-alexr/src/.libs/libmesos-1.8.0.so)
	    7fa494cd3606 _ZNSt6thread11_State_implINS_8_InvokerISt5tupleIJZN7process14ProcessManager12init_threadsEvEUlvE_EEEEE6_M_runEv+0x46 (/home/bevers/src/mesos/worktrees/state-benchmarking/build-alexr/src/.libs/libmesos-1.8.0.so)
	    7fa491e43733 [unknown] (/usr/lib/x86_64-linux-gnu/libstdc++.so.6.0.25)

master@127.0.1.1:5050 14784 182029.121421:       5000 cycles:uh: 
	    7fa495d42394 do_lookup_x+0x154 (/lib/x86_64-linux-gnu/ld-2.27.so)

master@127.0.1.1:5050 14784 182029.121424:       5000 cycles:uh: 
	    7fa495d422fb do_lookup_x+0xbb (/lib/x86_64-linux-gnu/ld-2.27.so)

master@127.0.1.1:5050 14784 182029.121427:       5000 cycles:uh: 
	    7fa495d422fb do_lookup_x+0xbb (/lib/x86_64-linux-gnu/ld-2.27.so)

master@127.0.1.1:5050 14784 182029.121429:       5000 cycles:uh: 
	    7fa4938c0250 _ZN6OptionIS_IS_IN7process4http14authentication20AuthenticationResultEEEED1Ev@plt+0x0 (/home/bevers/src/mesos/worktrees/state-benchmarking/build-alexr/src/.libs/libmesos-1.8.0.so)
	    7fa494bf933b _ZN7process6FutureI6OptionINS_4http14authentication20AuthenticationResultEEEC1I4NoneEERKT_+0x17b (/home/bevers/src/mesos/worktrees/state-benchmarking/build-alexr/src/.libs/libmesos-1.8.0.so)
	    7fa494ccb711 _ZN7process11ProcessBase8_consumeERKNS0_12HttpEndpointERKNSt7__cxx1112basic_stringIcSt11char_traitsIcESaIcEEERKNS_5OwnedINS_4http7RequestEEE+0x61 (/home/bevers/src/mesos/worktrees/state-benchmarking/build-alexr/src/.libs/libmesos-1.8.0.so)
	    7fa494ccc02c _ZNO6lambda12CallableOnceIFN7process6FutureINS1_4http8ResponseEEEvEE10CallableFnINS_8internal7PartialIZNS1_11ProcessBase7consumeEONS1_9HttpEventEEUlRKNS1_5OwnedINS3_7RequestEEEE_JSG_EEEEclEv+0x3c (/home/bevers/src/mesos/worktrees/state-benchmarking/build-alexr/src/.libs/libmesos-1.8.0.so)
	    7fa4939e8599 _ZNO6lambda12CallableOnceIFvPN7process11ProcessBaseEEE10CallableFnINS_8internal7PartialIZNS1_8internal8DispatchINS1_6FutureINS1_4http8ResponseEEEEclINS0_IFSE_vEEEEESE_RKNS1_4UPIDEOT_EUlSt10unique_ptrINS1_7PromiseISD_EESt14default_deleteISQ_EEOSI_S3_E_JST_SI_St12_PlaceholderILi1EEEEEEclEOS3_+0xc9 (/home/bevers/src/mesos/worktrees/state-benchmarking/build-alexr/src/.libs/libmesos-1.8.0.so)
	    7fa494cb80e2 _ZN7process11ProcessBase7consumeEONS_13DispatchEventE+0x32 (/home/bevers/src/mesos/worktrees/state-benchmarking/build-alexr/src/.libs/libmesos-1.8.0.so)
	    7fa494ccd332 _ZN7process14ProcessManager6resumeEPNS_11ProcessBaseE+0x492 (/home/bevers/src/mesos/worktrees/state-benchmarking/build-alexr/src/.libs/libmesos-1.8.0.so)
	    7fa494cd3606 _ZNSt6thread11_State_implINS_8_InvokerISt5tupleIJZN7process14ProcessManager12init_threadsEvEUlvE_EEEEE6_M_runEv+0x46 (/home/bevers/src/mesos/worktrees/state-benchmarking/build-alexr/src/.libs/libmesos-1.8.0.so)
	    7fa491e43733 [unknown] (/usr/lib/x86_64-linux-gnu/libstdc++.so.6.0.25)

master@127.0.1.1:5050 14784 182029.121433:       5000 cycles:uh: 
	    7fa495d42709 do_lookup_x+0x4c9 (/lib/x86_64-linux-gnu/ld-2.27.so)
	               0 [unknown] ([unknown])

master@127.0.1.1:5050 14784 182029.121435:       5000 cycles:uh: 
	    7fa495d47e4b _dl_fixup+0x5b (/lib/x86_64-linux-gnu/ld-2.27.so)
	    7fa494bf933b _ZN7process6FutureI6OptionINS_4http14authentication20AuthenticationResultEEEC1I4NoneEERKT_+0x17b (/home/bevers/src/mesos/worktrees/state-benchmarking/build-alexr/src/.libs/libmesos-1.8.0.so)
	    7fa494ccb711 _ZN7process11ProcessBase8_consumeERKNS0_12HttpEndpointERKNSt7__cxx1112basic_stringIcSt11char_traitsIcESaIcEEERKNS_5OwnedINS_4http7RequestEEE+0x61 (/home/bevers/src/mesos/worktrees/state-benchmarking/build-alexr/src/.libs/libmesos-1.8.0.so)
	    7fa494ccc02c _ZNO6lambda12CallableOnceIFN7process6FutureINS1_4http8ResponseEEEvEE10CallableFnINS_8internal7PartialIZNS1_11ProcessBase7consumeEONS1_9HttpEventEEUlRKNS1_5OwnedINS3_7RequestEEEE_JSG_EEEEclEv+0x3c (/home/bevers/src/mesos/worktrees/state-benchmarking/build-alexr/src/.libs/libmesos-1.8.0.so)
	    7fa4939e8599 _ZNO6lambda12CallableOnceIFvPN7process11ProcessBaseEEE10CallableFnINS_8internal7PartialIZNS1_8internal8DispatchINS1_6FutureINS1_4http8ResponseEEEEclINS0_IFSE_vEEEEESE_RKNS1_4UPIDEOT_EUlSt10unique_ptrINS1_7PromiseISD_EESt14default_deleteISQ_EEOSI_S3_E_JST_SI_St12_PlaceholderILi1EEEEEEclEOS3_+0xc9 (/home/bevers/src/mesos/worktrees/state-benchmarking/build-alexr/src/.libs/libmesos-1.8.0.so)
	    7fa494cb80e2 _ZN7process11ProcessBase7consumeEONS_13DispatchEventE+0x32 (/home/bevers/src/mesos/worktrees/state-benchmarking/build-alexr/src/.libs/libmesos-1.8.0.so)
	    7fa494ccd332 _ZN7process14ProcessManager6resumeEPNS_11ProcessBaseE+0x492 (/home/bevers/src/mesos/worktrees/state-benchmarking/build-alexr/src/.libs/libmesos-1.8.0.so)
	    7fa494cd3606 _ZNSt6thread11_State_implINS_8_InvokerISt5tupleIJZN7process14ProcessManager12init_threadsEvEUlvE_EEEEE6_M_runEv+0x46 (/home/bevers/src/mesos/worktrees/state-benchmarking/build-alexr/src/.libs/libmesos-1.8.0.so)
	    7fa491e43733 [unknown] (/usr/lib/x86_64-linux-gnu/libstdc++.so.6.0.25)

master@127.0.1.1:5050 14784 182029.121439:       5000 cycles:uh: 
	    7fa495d47e4b _dl_fixup+0x5b (/lib/x86_64-linux-gnu/ld-2.27.so)
	    7fa494ccc02c _ZNO6lambda12CallableOnceIFN7process6FutureINS1_4http8ResponseEEEvEE10CallableFnINS_8internal7PartialIZNS1_11ProcessBase7consumeEONS1_9HttpEventEEUlRKNS1_5OwnedINS3_7RequestEEEE_JSG_EEEEclEv+0x3c (/home/bevers/src/mesos/worktrees/state-benchmarking/build-alexr/src/.libs/libmesos-1.8.0.so)
	    7fa4939e8599 _ZNO6lambda12CallableOnceIFvPN7process11ProcessBaseEEE10CallableFnINS_8internal7PartialIZNS1_8internal8DispatchINS1_6FutureINS1_4http8ResponseEEEEclINS0_IFSE_vEEEEESE_RKNS1_4UPIDEOT_EUlSt10unique_ptrINS1_7PromiseISD_EESt14default_deleteISQ_EEOSI_S3_E_JST_SI_St12_PlaceholderILi1EEEEEEclEOS3_+0xc9 (/home/bevers/src/mesos/worktrees/state-benchmarking/build-alexr/src/.libs/libmesos-1.8.0.so)
	    7fa494cb80e2 _ZN7process11ProcessBase7consumeEONS_13DispatchEventE+0x32 (/home/bevers/src/mesos/worktrees/state-benchmarking/build-alexr/src/.libs/libmesos-1.8.0.so)
	    7fa494ccd332 _ZN7process14ProcessManager6resumeEPNS_11ProcessBaseE+0x492 (/home/bevers/src/mesos/worktrees/state-benchmarking/build-alexr/src/.libs/libmesos-1.8.0.so)
	    7fa494cd3606 _ZNSt6thread11_State_implINS_8_InvokerISt5tupleIJZN7process14ProcessManager12init_threadsEvEUlvE_EEEEE6_M_runEv+0x46 (/home/bevers/src/mesos/worktrees/state-benchmarking/build-alexr/src/.libs/libmesos-1.8.0.so)
	    7fa491e43733 [unknown] (/usr/lib/x86_64-linux-gnu/libstdc++.so.6.0.25)

master@127.0.1.1:5050 14784 182029.121442:       5000 cycles:uh: 
	    7fa495d42709 do_lookup_x+0x4c9 (/lib/x86_64-linux-gnu/ld-2.27.so)
	               0 [unknown] ([unknown])

master@127.0.1.1:5050 14784 182029.121444:       5000 cycles:uh: 
	    7fa495d430cd _dl_lookup_symbol_x+0x1d (/lib/x86_64-linux-gnu/ld-2.27.so)
	    7fa494ccb742 _ZN7process11ProcessBase8_consumeERKNS0_12HttpEndpointERKNSt7__cxx1112basic_stringIcSt11char_traitsIcESaIcEEERKNS_5OwnedINS_4http7RequestEEE+0x92 (/home/bevers/src/mesos/worktrees/state-benchmarking/build-alexr/src/.libs/libmesos-1.8.0.so)
	    7fa494ccc02c _ZNO6lambda12CallableOnceIFN7process6FutureINS1_4http8ResponseEEEvEE10CallableFnINS_8internal7PartialIZNS1_11ProcessBase7consumeEONS1_9HttpEventEEUlRKNS1_5OwnedINS3_7RequestEEEE_JSG_EEEEclEv+0x3c (/home/bevers/src/mesos/worktrees/state-benchmarking/build-alexr/src/.libs/libmesos-1.8.0.so)
	    7fa4939e8599 _ZNO6lambda12CallableOnceIFvPN7process11ProcessBaseEEE10CallableFnINS_8internal7PartialIZNS1_8internal8DispatchINS1_6FutureINS1_4http8ResponseEEEEclINS0_IFSE_vEEEEESE_RKNS1_4UPIDEOT_EUlSt10unique_ptrINS1_7PromiseISD_EESt14default_deleteISQ_EEOSI_S3_E_JST_SI_St12_PlaceholderILi1EEEEEEclEOS3_+0xc9 (/home/bevers/src/mesos/worktrees/state-benchmarking/build-alexr/src/.libs/libmesos-1.8.0.so)
	    7fa494cb80e2 _ZN7process11ProcessBase7consumeEONS_13DispatchEventE+0x32 (/home/bevers/src/mesos/worktrees/state-benchmarking/build-alexr/src/.libs/libmesos-1.8.0.so)
	    7fa494ccd332 _ZN7process14ProcessManager6resumeEPNS_11ProcessBaseE+0x492 (/home/bevers/src/mesos/worktrees/state-benchmarking/build-alexr/src/.libs/libmesos-1.8.0.so)
	    7fa494cd3606 _ZNSt6thread11_State_implINS_8_InvokerISt5tupleIJZN7process14ProcessManager12init_threadsEvEUlvE_EEEEE6_M_runEv+0x46 (/home/bevers/src/mesos/worktrees/state-benchmarking/build-alexr/src/.libs/libmesos-1.8.0.so)
	    7fa491e43733 [unknown] (/usr/lib/x86_64-linux-gnu/libstdc++.so.6.0.25)

master@127.0.1.1:5050 14784 182029.121447:       5000 cycles:uh: 
	    7fa495d422fb do_lookup_x+0xbb (/lib/x86_64-linux-gnu/ld-2.27.so)

master@127.0.1.1:5050 14784 182029.121450:       5000 cycles:uh: 
	    55af36d4da86 _ZNSt7__cxx1112basic_stringIcSt11char_traitsIcESaIcEE12_M_constructIPKcEEvT_S8_St20forward_iterator_tag.isra.409+0x6 (/home/bevers/src/mesos/worktrees/state-benchmarking/build-alexr/src/.libs/mesos-master)
	    55af36d4e4af _ZNSt8__detail16_Hashtable_allocISaINS_10_Hash_nodeISt4pairIKNSt7__cxx1112basic_stringIcSt11char_traitsIcESaIcEEES8_ELb1EEEEE16_M_allocate_nodeIJRKSA_EEEPSB_DpOT_.isra.399+0x5f (/home/bevers/src/mesos/worktrees/state-benchmarking/build-alexr/src/.libs/mesos-master)
	    55af36d55a41 _ZNSt10_HashtableINSt7__cxx1112basic_stringIcSt11char_traitsIcESaIcEEESt4pairIKS5_S5_ESaIS8_ENSt8__detail10_Select1stEN7process4http20CaseInsensitiveEqualENSD_19CaseInsensitiveHashENSA_18_Mod_range_hashingENSA_20_Default_ranged_hashENSA_20_Prime_rehash_policyENSA_17_Hashtable_traitsILb1ELb0ELb1EEEE9_M_assignIZNSL_C4ERKSL_EUlPKNSA_10_Hash_nodeIS8_Lb1EEEE_EEvSO_RKT_+0x31 (/home/bevers/src/mesos/worktrees/state-benchmarking/build-alexr/src/.libs/mesos-master)
	    7fa494bfa831 _ZN7process8dispatchI6OptionINS_4http14authentication20AuthenticationResultEENS3_27AuthenticatorManagerProcessERKNS2_7RequestERKNSt7__cxx1112basic_stringIcSt11char_traitsIcESaIcEEES9_SH_EENS_6FutureIT_EERKNS_3PIDIT0_EEMSM_FSK_T1_T2_EOT3_OT4_+0x281 (/home/bevers/src/mesos/worktrees/state-benchmarking/build-alexr/src/.libs/libmesos-1.8.0.so)
	    7fa494bf5e72 _ZN7process4http14authentication20AuthenticatorManager12authenticateERKNS0_7RequestERKNSt7__cxx1112basic_stringIcSt11char_traitsIcESaIcEEE+0x62 (/home/bevers/src/mesos/worktrees/state-benchmarking/build-alexr/src/.libs/libmesos-1.8.0.so)
	    7fa494ccb742 _ZN7process11ProcessBase8_consumeERKNS0_12HttpEndpointERKNSt7__cxx1112basic_stringIcSt11char_traitsIcESaIcEEERKNS_5OwnedINS_4http7RequestEEE+0x92 (/home/bevers/src/mesos/worktrees/state-benchmarking/build-alexr/src/.libs/libmesos-1.8.0.so)
	    7fa494ccc02c _ZNO6lambda12CallableOnceIFN7process6FutureINS1_4http8ResponseEEEvEE10CallableFnINS_8internal7PartialIZNS1_11ProcessBase7consumeEONS1_9HttpEventEEUlRKNS1_5OwnedINS3_7RequestEEEE_JSG_EEEEclEv+0x3c (/home/bevers/src/mesos/worktrees/state-benchmarking/build-alexr/src/.libs/libmesos-1.8.0.so)
	    7fa4939e8599 _ZNO6lambda12CallableOnceIFvPN7process11ProcessBaseEEE10CallableFnINS_8internal7PartialIZNS1_8internal8DispatchINS1_6FutureINS1_4http8ResponseEEEEclINS0_IFSE_vEEEEESE_RKNS1_4UPIDEOT_EUlSt10unique_ptrINS1_7PromiseISD_EESt14default_deleteISQ_EEOSI_S3_E_JST_SI_St12_PlaceholderILi1EEEEEEclEOS3_+0xc9 (/home/bevers/src/mesos/worktrees/state-benchmarking/build-alexr/src/.libs/libmesos-1.8.0.so)
	    7fa494cb80e2 _ZN7process11ProcessBase7consumeEONS_13DispatchEventE+0x32 (/home/bevers/src/mesos/worktrees/state-benchmarking/build-alexr/src/.libs/libmesos-1.8.0.so)
	    7fa494ccd332 _ZN7process14ProcessManager6resumeEPNS_11ProcessBaseE+0x492 (/home/bevers/src/mesos/worktrees/state-benchmarking/build-alexr/src/.libs/libmesos-1.8.0.so)
	    7fa494cd3606 _ZNSt6thread11_State_implINS_8_InvokerISt5tupleIJZN7process14ProcessManager12init_threadsEvEUlvE_EEEEE6_M_runEv+0x46 (/home/bevers/src/mesos/worktrees/state-benchmarking/build-alexr/src/.libs/libmesos-1.8.0.so)
	    7fa491e43733 [unknown] (/usr/lib/x86_64-linux-gnu/libstdc++.so.6.0.25)

master@127.0.1.1:5050 14784 182029.121453:       5000 cycles:uh: 
	    7fa49389d500 _ZNSt10_HashtableINSt7__cxx1112basic_stringIcSt11char_traitsIcESaIcEEESt4pairIKS5_S5_ESaIS8_ENSt8__detail10_Select1stEN7process4http20CaseInsensitiveEqualENSD_19CaseInsensitiveHashENSA_18_Mod_range_hashingENSA_20_Default_ranged_hashENSA_20_Prime_rehash_policyENSA_17_Hashtable_traitsILb1ELb0ELb1EEEEC1EOSL_@plt+0x0 (/home/bevers/src/mesos/worktrees/state-benchmarking/build-alexr/src/.libs/libmesos-1.8.0.so)
	    7fa494bf5e72 _ZN7process4http14authentication20AuthenticatorManager12authenticateERKNS0_7RequestERKNSt7__cxx1112basic_stringIcSt11char_traitsIcESaIcEEE+0x62 (/home/bevers/src/mesos/worktrees/state-benchmarking/build-alexr/src/.libs/libmesos-1.8.0.so)
	    7fa494ccb742 _ZN7process11ProcessBase8_consumeERKNS0_12HttpEndpointERKNSt7__cxx1112basic_stringIcSt11char_traitsIcESaIcEEERKNS_5OwnedINS_4http7RequestEEE+0x92 (/home/bevers/src/mesos/worktrees/state-benchmarking/build-alexr/src/.libs/libmesos-1.8.0.so)
	    7fa494ccc02c _ZNO6lambda12CallableOnceIFN7process6FutureINS1_4http8ResponseEEEvEE10CallableFnINS_8internal7PartialIZNS1_11ProcessBase7consumeEONS1_9HttpEventEEUlRKNS1_5OwnedINS3_7RequestEEEE_JSG_EEEEclEv+0x3c (/home/bevers/src/mesos/worktrees/state-benchmarking/build-alexr/src/.libs/libmesos-1.8.0.so)
	    7fa4939e8599 _ZNO6lambda12CallableOnceIFvPN7process11ProcessBaseEEE10CallableFnINS_8internal7PartialIZNS1_8internal8DispatchINS1_6FutureINS1_4http8ResponseEEEEclINS0_IFSE_vEEEEESE_RKNS1_4UPIDEOT_EUlSt10unique_ptrINS1_7PromiseISD_EESt14default_deleteISQ_EEOSI_S3_E_JST_SI_St12_PlaceholderILi1EEEEEEclEOS3_+0xc9 (/home/bevers/src/mesos/worktrees/state-benchmarking/build-alexr/src/.libs/libmesos-1.8.0.so)
	    7fa494cb80e2 _ZN7process11ProcessBase7consumeEONS_13DispatchEventE+0x32 (/home/bevers/src/mesos/worktrees/state-benchmarking/build-alexr/src/.libs/libmesos-1.8.0.so)
	    7fa494ccd332 _ZN7process14ProcessManager6resumeEPNS_11ProcessBaseE+0x492 (/home/bevers/src/mesos/worktrees/state-benchmarking/build-alexr/src/.libs/libmesos-1.8.0.so)
	    7fa494cd3606 _ZNSt6thread11_State_implINS_8_InvokerISt5tupleIJZN7process14ProcessManager12init_threadsEvEUlvE_EEEEE6_M_runEv+0x46 (/home/bevers/src/mesos/worktrees/state-benchmarking/build-alexr/src/.libs/libmesos-1.8.0.so)
	    7fa491e43733 [unknown] (/usr/lib/x86_64-linux-gnu/libstdc++.so.6.0.25)

master@127.0.1.1:5050 14784 182029.121456:       5000 cycles:uh: 
	    7fa495d42709 do_lookup_x+0x4c9 (/lib/x86_64-linux-gnu/ld-2.27.so)
	               0 [unknown] ([unknown])

master@127.0.1.1:5050 14784 182029.121459:       5000 cycles:uh: 
	    7fa494cbe171 _ZN7process11ProcessBase7enqueueEPNS_5EventE+0x161 (/home/bevers/src/mesos/worktrees/state-benchmarking/build-alexr/src/.libs/libmesos-1.8.0.so)
	    7fa494cbe29d _ZN7process14ProcessManager7deliverEPNS_11ProcessBaseEPNS_5EventES2_+0x5d (/home/bevers/src/mesos/worktrees/state-benchmarking/build-alexr/src/.libs/libmesos-1.8.0.so)
	    7fa494cc07f7 _ZN7process14ProcessManager7deliverERKNS_4UPIDEPNS_5EventEPNS_11ProcessBaseE+0x67 (/home/bevers/src/mesos/worktrees/state-benchmarking/build-alexr/src/.libs/libmesos-1.8.0.so)
	    7fa494cc92a7 _ZN7process8internal8dispatchERKNS_4UPIDESt10unique_ptrIN6lambda12CallableOnceIFvPNS_11ProcessBaseEEEESt14default_deleteISA_EERK6OptionIPKSt9type_infoE+0x267 (/home/bevers/src/mesos/worktrees/state-benchmarking/build-alexr/src/.libs/libmesos-1.8.0.so)
	    7fa494bfab92 _ZN7process8dispatchI6OptionINS_4http14authentication20AuthenticationResultEENS3_27AuthenticatorManagerProcessERKNS2_7RequestERKNSt7__cxx1112basic_stringIcSt11char_traitsIcESaIcEEES9_SH_EENS_6FutureIT_EERKNS_3PIDIT0_EEMSM_FSK_T1_T2_EOT3_OT4_+0x5e2 (/home/bevers/src/mesos/worktrees/state-benchmarking/build-alexr/src/.libs/libmesos-1.8.0.so)
	    7fa494bf5e72 _ZN7process4http14authentication20AuthenticatorManager12authenticateERKNS0_7RequestERKNSt7__cxx1112basic_stringIcSt11char_traitsIcESaIcEEE+0x62 (/home/bevers/src/mesos/worktrees/state-benchmarking/build-alexr/src/.libs/libmesos-1.8.0.so)
	    7fa494ccb742 _ZN7process11ProcessBase8_consumeERKNS0_12HttpEndpointERKNSt7__cxx1112basic_stringIcSt11char_traitsIcESaIcEEERKNS_5OwnedINS_4http7RequestEEE+0x92 (/home/bevers/src/mesos/worktrees/state-benchmarking/build-alexr/src/.libs/libmesos-1.8.0.so)
	    7fa494ccc02c _ZNO6lambda12CallableOnceIFN7process6FutureINS1_4http8ResponseEEEvEE10CallableFnINS_8internal7PartialIZNS1_11ProcessBase7consumeEONS1_9HttpEventEEUlRKNS1_5OwnedINS3_7RequestEEEE_JSG_EEEEclEv+0x3c (/home/bevers/src/mesos/worktrees/state-benchmarking/build-alexr/src/.libs/libmesos-1.8.0.so)
	    7fa4939e8599 _ZNO6lambda12CallableOnceIFvPN7process11ProcessBaseEEE10CallableFnINS_8internal7PartialIZNS1_8internal8DispatchINS1_6FutureINS1_4http8ResponseEEEEclINS0_IFSE_vEEEEESE_RKNS1_4UPIDEOT_EUlSt10unique_ptrINS1_7PromiseISD_EESt14default_deleteISQ_EEOSI_S3_E_JST_SI_St12_PlaceholderILi1EEEEEEclEOS3_+0xc9 (/home/bevers/src/mesos/worktrees/state-benchmarking/build-alexr/src/.libs/libmesos-1.8.0.so)
	    7fa494cb80e2 _ZN7process11ProcessBase7consumeEONS_13DispatchEventE+0x32 (/home/bevers/src/mesos/worktrees/state-benchmarking/build-alexr/src/.libs/libmesos-1.8.0.so)
	    7fa494ccd332 _ZN7process14ProcessManager6resumeEPNS_11ProcessBaseE+0x492 (/home/bevers/src/mesos/worktrees/state-benchmarking/build-alexr/src/.libs/libmesos-1.8.0.so)
	    7fa494cd3606 _ZNSt6thread11_State_implINS_8_InvokerISt5tupleIJZN7process14ProcessManager12init_threadsEvEUlvE_EEEEE6_M_runEv+0x46 (/home/bevers/src/mesos/worktrees/state-benchmarking/build-alexr/src/.libs/libmesos-1.8.0.so)
	    7fa491e43733 [unknown] (/usr/lib/x86_64-linux-gnu/libstdc++.so.6.0.25)

master@127.0.1.1:5050 14784 182029.121463:       5000 cycles:uh: 
	    7fa491b76a80 sem_post@@GLIBC_2.2.5+0x0 (/lib/x86_64-linux-gnu/libpthread-2.27.so)
	    7fa494cbe15a _ZN7process11ProcessBase7enqueueEPNS_5EventE+0x14a (/home/bevers/src/mesos/worktrees/state-benchmarking/build-alexr/src/.libs/libmesos-1.8.0.so)
	    7fa494cbe29d _ZN7process14ProcessManager7deliverEPNS_11ProcessBaseEPNS_5EventES2_+0x5d (/home/bevers/src/mesos/worktrees/state-benchmarking/build-alexr/src/.libs/libmesos-1.8.0.so)
	    7fa494cc07f7 _ZN7process14ProcessManager7deliverERKNS_4UPIDEPNS_5EventEPNS_11ProcessBaseE+0x67 (/home/bevers/src/mesos/worktrees/state-benchmarking/build-alexr/src/.libs/libmesos-1.8.0.so)
	    7fa494cc92a7 _ZN7process8internal8dispatchERKNS_4UPIDESt10unique_ptrIN6lambda12CallableOnceIFvPNS_11ProcessBaseEEEESt14default_deleteISA_EERK6OptionIPKSt9type_infoE+0x267 (/home/bevers/src/mesos/worktrees/state-benchmarking/build-alexr/src/.libs/libmesos-1.8.0.so)
	    7fa494bfab92 _ZN7process8dispatchI6OptionINS_4http14authentication20AuthenticationResultEENS3_27AuthenticatorManagerProcessERKNS2_7RequestERKNSt7__cxx1112basic_stringIcSt11char_traitsIcESaIcEEES9_SH_EENS_6FutureIT_EERKNS_3PIDIT0_EEMSM_FSK_T1_T2_EOT3_OT4_+0x5e2 (/home/bevers/src/mesos/worktrees/state-benchmarking/build-alexr/src/.libs/libmesos-1.8.0.so)
	    7fa494bf5e72 _ZN7process4http14authentication20AuthenticatorManager12authenticateERKNS0_7RequestERKNSt7__cxx1112basic_stringIcSt11char_traitsIcESaIcEEE+0x62 (/home/bevers/src/mesos/worktrees/state-benchmarking/build-alexr/src/.libs/libmesos-1.8.0.so)
	    7fa494ccb742 _ZN7process11ProcessBase8_consumeERKNS0_12HttpEndpointERKNSt7__cxx1112basic_stringIcSt11char_traitsIcESaIcEEERKNS_5OwnedINS_4http7RequestEEE+0x92 (/home/bevers/src/mesos/worktrees/state-benchmarking/build-alexr/src/.libs/libmesos-1.8.0.so)
	    7fa494ccc02c _ZNO6lambda12CallableOnceIFN7process6FutureINS1_4http8ResponseEEEvEE10CallableFnINS_8internal7PartialIZNS1_11ProcessBase7consumeEONS1_9HttpEventEEUlRKNS1_5OwnedINS3_7RequestEEEE_JSG_EEEEclEv+0x3c (/home/bevers/src/mesos/worktrees/state-benchmarking/build-alexr/src/.libs/libmesos-1.8.0.so)
	    7fa4939e8599 _ZNO6lambda12CallableOnceIFvPN7process11ProcessBaseEEE10CallableFnINS_8internal7PartialIZNS1_8internal8DispatchINS1_6FutureINS1_4http8ResponseEEEEclINS0_IFSE_vEEEEESE_RKNS1_4UPIDEOT_EUlSt10unique_ptrINS1_7PromiseISD_EESt14default_deleteISQ_EEOSI_S3_E_JST_SI_St12_PlaceholderILi1EEEEEEclEOS3_+0xc9 (/home/bevers/src/mesos/worktrees/state-benchmarking/build-alexr/src/.libs/libmesos-1.8.0.so)
	    7fa494cb80e2 _ZN7process11ProcessBase7consumeEONS_13DispatchEventE+0x32 (/home/bevers/src/mesos/worktrees/state-benchmarking/build-alexr/src/.libs/libmesos-1.8.0.so)
	    7fa494ccd332 _ZN7process14ProcessManager6resumeEPNS_11ProcessBaseE+0x492 (/home/bevers/src/mesos/worktrees/state-benchmarking/build-alexr/src/.libs/libmesos-1.8.0.so)
	    7fa494cd3606 _ZNSt6thread11_State_implINS_8_InvokerISt5tupleIJZN7process14ProcessManager12init_threadsEvEUlvE_EEEEE6_M_runEv+0x46 (/home/bevers/src/mesos/worktrees/state-benchmarking/build-alexr/src/.libs/libmesos-1.8.0.so)
	    7fa491e43733 [unknown] (/usr/lib/x86_64-linux-gnu/libstdc++.so.6.0.25)

master@127.0.1.1:5050 14784 182029.121471:       5000 cycles:uh: 
	    7fa495d47e4b _dl_fixup+0x5b (/lib/x86_64-linux-gnu/ld-2.27.so)
	    7fa494ccc02c _ZNO6lambda12CallableOnceIFN7process6FutureINS1_4http8ResponseEEEvEE10CallableFnINS_8internal7PartialIZNS1_11ProcessBase7consumeEONS1_9HttpEventEEUlRKNS1_5OwnedINS3_7RequestEEEE_JSG_EEEEclEv+0x3c (/home/bevers/src/mesos/worktrees/state-benchmarking/build-alexr/src/.libs/libmesos-1.8.0.so)
	    7fa4939e8599 _ZNO6lambda12CallableOnceIFvPN7process11ProcessBaseEEE10CallableFnINS_8internal7PartialIZNS1_8internal8DispatchINS1_6FutureINS1_4http8ResponseEEEEclINS0_IFSE_vEEEEESE_RKNS1_4UPIDEOT_EUlSt10unique_ptrINS1_7PromiseISD_EESt14default_deleteISQ_EEOSI_S3_E_JST_SI_St12_PlaceholderILi1EEEEEEclEOS3_+0xc9 (/home/bevers/src/mesos/worktrees/state-benchmarking/build-alexr/src/.libs/libmesos-1.8.0.so)
	    7fa494cb80e2 _ZN7process11ProcessBase7consumeEONS_13DispatchEventE+0x32 (/home/bevers/src/mesos/worktrees/state-benchmarking/build-alexr/src/.libs/libmesos-1.8.0.so)
	    7fa494ccd332 _ZN7process14ProcessManager6resumeEPNS_11ProcessBaseE+0x492 (/home/bevers/src/mesos/worktrees/state-benchmarking/build-alexr/src/.libs/libmesos-1.8.0.so)
	    7fa494cd3606 _ZNSt6thread11_State_implINS_8_InvokerISt5tupleIJZN7process14ProcessManager12init_threadsEvEUlvE_EEEEE6_M_runEv+0x46 (/home/bevers/src/mesos/worktrees/state-benchmarking/build-alexr/src/.libs/libmesos-1.8.0.so)
	    7fa491e43733 [unknown] (/usr/lib/x86_64-linux-gnu/libstdc++.so.6.0.25)

master@127.0.1.1:5050 14784 182029.121474:       5000 cycles:uh: 
	    7fa495d4271d do_lookup_x+0x4dd (/lib/x86_64-linux-gnu/ld-2.27.so)
	               0 [unknown] ([unknown])

master@127.0.1.1:5050 14784 182029.121477:       5000 cycles:uh: 
	    7fa49391e400 _ZNSt8functionIFN7process6FutureI6OptionINS0_4http14authentication20AuthenticationResultEEEEvEEC1ERKS9_@plt+0x0 (/home/bevers/src/mesos/worktrees/state-benchmarking/build-alexr/src/.libs/libmesos-1.8.0.so)
	    7fa494ccb866 _ZN7process11ProcessBase8_consumeERKNS0_12HttpEndpointERKNSt7__cxx1112basic_stringIcSt11char_traitsIcESaIcEEERKNS_5OwnedINS_4http7RequestEEE+0x1b6 (/home/bevers/src/mesos/worktrees/state-benchmarking/build-alexr/src/.libs/libmesos-1.8.0.so)
	    7fa494ccc02c _ZNO6lambda12CallableOnceIFN7process6FutureINS1_4http8ResponseEEEvEE10CallableFnINS_8internal7PartialIZNS1_11ProcessBase7consumeEONS1_9HttpEventEEUlRKNS1_5OwnedINS3_7RequestEEEE_JSG_EEEEclEv+0x3c (/home/bevers/src/mesos/worktrees/state-benchmarking/build-alexr/src/.libs/libmesos-1.8.0.so)
	    7fa4939e8599 _ZNO6lambda12CallableOnceIFvPN7process11ProcessBaseEEE10CallableFnINS_8internal7PartialIZNS1_8internal8DispatchINS1_6FutureINS1_4http8ResponseEEEEclINS0_IFSE_vEEEEESE_RKNS1_4UPIDEOT_EUlSt10unique_ptrINS1_7PromiseISD_EESt14default_deleteISQ_EEOSI_S3_E_JST_SI_St12_PlaceholderILi1EEEEEEclEOS3_+0xc9 (/home/bevers/src/mesos/worktrees/state-benchmarking/build-alexr/src/.libs/libmesos-1.8.0.so)
	    7fa494cb80e2 _ZN7process11ProcessBase7consumeEONS_13DispatchEventE+0x32 (/home/bevers/src/mesos/worktrees/state-benchmarking/build-alexr/src/.libs/libmesos-1.8.0.so)
	    7fa494ccd332 _ZN7process14ProcessManager6resumeEPNS_11ProcessBaseE+0x492 (/home/bevers/src/mesos/worktrees/state-benchmarking/build-alexr/src/.libs/libmesos-1.8.0.so)
	    7fa494cd3606 _ZNSt6thread11_State_implINS_8_InvokerISt5tupleIJZN7process14ProcessManager12init_threadsEvEUlvE_EEEEE6_M_runEv+0x46 (/home/bevers/src/mesos/worktrees/state-benchmarking/build-alexr/src/.libs/libmesos-1.8.0.so)
	    7fa491e43733 [unknown] (/usr/lib/x86_64-linux-gnu/libstdc++.so.6.0.25)

master@127.0.1.1:5050 14784 182029.121480:       5000 cycles:uh: 
	    7fa494cc0790 _ZN7process14ProcessManager7deliverERKNS_4UPIDEPNS_5EventEPNS_11ProcessBaseE+0x0 (/home/bevers/src/mesos/worktrees/state-benchmarking/build-alexr/src/.libs/libmesos-1.8.0.so)
	    7fa494d06301 _ZN7process8dispatchI6OptionINS_4http14authentication20AuthenticationResultEENS_15SequenceProcessERKSt8functionIFNS_6FutureIS5_EEvEESD_EENS8_IT_EERKNS_3PIDIT0_EEMSH_FSF_T1_EOT2_+0x121 (/home/bevers/src/mesos/worktrees/state-benchmarking/build-alexr/src/.libs/libmesos-1.8.0.so)
	    7fa494ccb866 _ZN7process11ProcessBase8_consumeERKNS0_12HttpEndpointERKNSt7__cxx1112basic_stringIcSt11char_traitsIcESaIcEEERKNS_5OwnedINS_4http7RequestEEE+0x1b6 (/home/bevers/src/mesos/worktrees/state-benchmarking/build-alexr/src/.libs/libmesos-1.8.0.so)
	    7fa494ccc02c _ZNO6lambda12CallableOnceIFN7process6FutureINS1_4http8ResponseEEEvEE10CallableFnINS_8internal7PartialIZNS1_11ProcessBase7consumeEONS1_9HttpEventEEUlRKNS1_5OwnedINS3_7RequestEEEE_JSG_EEEEclEv+0x3c (/home/bevers/src/mesos/worktrees/state-benchmarking/build-alexr/src/.libs/libmesos-1.8.0.so)
	    7fa4939e8599 _ZNO6lambda12CallableOnceIFvPN7process11ProcessBaseEEE10CallableFnINS_8internal7PartialIZNS1_8internal8DispatchINS1_6FutureINS1_4http8ResponseEEEEclINS0_IFSE_vEEEEESE_RKNS1_4UPIDEOT_EUlSt10unique_ptrINS1_7PromiseISD_EESt14default_deleteISQ_EEOSI_S3_E_JST_SI_St12_PlaceholderILi1EEEEEEclEOS3_+0xc9 (/home/bevers/src/mesos/worktrees/state-benchmarking/build-alexr/src/.libs/libmesos-1.8.0.so)
	    7fa494cb80e2 _ZN7process11ProcessBase7consumeEONS_13DispatchEventE+0x32 (/home/bevers/src/mesos/worktrees/state-benchmarking/build-alexr/src/.libs/libmesos-1.8.0.so)
	    7fa494ccd332 _ZN7process14ProcessManager6resumeEPNS_11ProcessBaseE+0x492 (/home/bevers/src/mesos/worktrees/state-benchmarking/build-alexr/src/.libs/libmesos-1.8.0.so)
	    7fa494cd3606 _ZNSt6thread11_State_implINS_8_InvokerISt5tupleIJZN7process14ProcessManager12init_threadsEvEUlvE_EEEEE6_M_runEv+0x46 (/home/bevers/src/mesos/worktrees/state-benchmarking/build-alexr/src/.libs/libmesos-1.8.0.so)
	    7fa491e43733 [unknown] (/usr/lib/x86_64-linux-gnu/libstdc++.so.6.0.25)

master@127.0.1.1:5050 14784 182029.121484:       5000 cycles:uh: 
	    7fa494ccbbdf _ZN7process11ProcessBase8_consumeERKNS0_12HttpEndpointERKNSt7__cxx1112basic_stringIcSt11char_traitsIcESaIcEEERKNS_5OwnedINS_4http7RequestEEE+0x52f (/home/bevers/src/mesos/worktrees/state-benchmarking/build-alexr/src/.libs/libmesos-1.8.0.so)
	    7fa494ccc02c _ZNO6lambda12CallableOnceIFN7process6FutureINS1_4http8ResponseEEEvEE10CallableFnINS_8internal7PartialIZNS1_11ProcessBase7consumeEONS1_9HttpEventEEUlRKNS1_5OwnedINS3_7RequestEEEE_JSG_EEEEclEv+0x3c (/home/bevers/src/mesos/worktrees/state-benchmarking/build-alexr/src/.libs/libmesos-1.8.0.so)
	    7fa4939e8599 _ZNO6lambda12CallableOnceIFvPN7process11ProcessBaseEEE10CallableFnINS_8internal7PartialIZNS1_8internal8DispatchINS1_6FutureINS1_4http8ResponseEEEEclINS0_IFSE_vEEEEESE_RKNS1_4UPIDEOT_EUlSt10unique_ptrINS1_7PromiseISD_EESt14default_deleteISQ_EEOSI_S3_E_JST_SI_St12_PlaceholderILi1EEEEEEclEOS3_+0xc9 (/home/bevers/src/mesos/worktrees/state-benchmarking/build-alexr/src/.libs/libmesos-1.8.0.so)
	    7fa494cb80e2 _ZN7process11ProcessBase7consumeEONS_13DispatchEventE+0x32 (/home/bevers/src/mesos/worktrees/state-benchmarking/build-alexr/src/.libs/libmesos-1.8.0.so)
	    7fa494ccd332 _ZN7process14ProcessManager6resumeEPNS_11ProcessBaseE+0x492 (/home/bevers/src/mesos/worktrees/state-benchmarking/build-alexr/src/.libs/libmesos-1.8.0.so)
	    7fa494cd3606 _ZNSt6thread11_State_implINS_8_InvokerISt5tupleIJZN7process14ProcessManager12init_threadsEvEUlvE_EEEEE6_M_runEv+0x46 (/home/bevers/src/mesos/worktrees/state-benchmarking/build-alexr/src/.libs/libmesos-1.8.0.so)
	    7fa491e43733 [unknown] (/usr/lib/x86_64-linux-gnu/libstdc++.so.6.0.25)

master@127.0.1.1:5050 14784 182029.121500:       5000 cycles:uh: 
	    55af36d4fcd1 _ZN7process4UPIDD1Ev+0x1 (/home/bevers/src/mesos/worktrees/state-benchmarking/build-alexr/src/.libs/mesos-master)
	    7fa494ccc02c _ZNO6lambda12CallableOnceIFN7process6FutureINS1_4http8ResponseEEEvEE10CallableFnINS_8internal7PartialIZNS1_11ProcessBase7consumeEONS1_9HttpEventEEUlRKNS1_5OwnedINS3_7RequestEEEE_JSG_EEEEclEv+0x3c (/home/bevers/src/mesos/worktrees/state-benchmarking/build-alexr/src/.libs/libmesos-1.8.0.so)
	    7fa4939e8599 _ZNO6lambda12CallableOnceIFvPN7process11ProcessBaseEEE10CallableFnINS_8internal7PartialIZNS1_8internal8DispatchINS1_6FutureINS1_4http8ResponseEEEEclINS0_IFSE_vEEEEESE_RKNS1_4UPIDEOT_EUlSt10unique_ptrINS1_7PromiseISD_EESt14default_deleteISQ_EEOSI_S3_E_JST_SI_St12_PlaceholderILi1EEEEEEclEOS3_+0xc9 (/home/bevers/src/mesos/worktrees/state-benchmarking/build-alexr/src/.libs/libmesos-1.8.0.so)
	    7fa494cb80e2 _ZN7process11ProcessBase7consumeEONS_13DispatchEventE+0x32 (/home/bevers/src/mesos/worktrees/state-benchmarking/build-alexr/src/.libs/libmesos-1.8.0.so)
	    7fa494ccd332 _ZN7process14ProcessManager6resumeEPNS_11ProcessBaseE+0x492 (/home/bevers/src/mesos/worktrees/state-benchmarking/build-alexr/src/.libs/libmesos-1.8.0.so)
	    7fa494cd3606 _ZNSt6thread11_State_implINS_8_InvokerISt5tupleIJZN7process14ProcessManager12init_threadsEvEUlvE_EEEEE6_M_runEv+0x46 (/home/bevers/src/mesos/worktrees/state-benchmarking/build-alexr/src/.libs/libmesos-1.8.0.so)
	    7fa491e43733 [unknown] (/usr/lib/x86_64-linux-gnu/libstdc++.so.6.0.25)

master@127.0.1.1:5050 14784 182029.121503:       5000 cycles:uh: 
	    7fa495d47e4b _dl_fixup+0x5b (/lib/x86_64-linux-gnu/ld-2.27.so)
	    7fa494ccbaa4 _ZN7process11ProcessBase8_consumeERKNS0_12HttpEndpointERKNSt7__cxx1112basic_stringIcSt11char_traitsIcESaIcEEERKNS_5OwnedINS_4http7RequestEEE+0x3f4 (/home/bevers/src/mesos/worktrees/state-benchmarking/build-alexr/src/.libs/libmesos-1.8.0.so)
	    7fa494ccc02c _ZNO6lambda12CallableOnceIFN7process6FutureINS1_4http8ResponseEEEvEE10CallableFnINS_8internal7PartialIZNS1_11ProcessBase7consumeEONS1_9HttpEventEEUlRKNS1_5OwnedINS3_7RequestEEEE_JSG_EEEEclEv+0x3c (/home/bevers/src/mesos/worktrees/state-benchmarking/build-alexr/src/.libs/libmesos-1.8.0.so)
	    7fa4939e8599 _ZNO6lambda12CallableOnceIFvPN7process11ProcessBaseEEE10CallableFnINS_8internal7PartialIZNS1_8internal8DispatchINS1_6FutureINS1_4http8ResponseEEEEclINS0_IFSE_vEEEEESE_RKNS1_4UPIDEOT_EUlSt10unique_ptrINS1_7PromiseISD_EESt14default_deleteISQ_EEOSI_S3_E_JST_SI_St12_PlaceholderILi1EEEEEEclEOS3_+0xc9 (/home/bevers/src/mesos/worktrees/state-benchmarking/build-alexr/src/.libs/libmesos-1.8.0.so)
	    7fa494cb80e2 _ZN7process11ProcessBase7consumeEONS_13DispatchEventE+0x32 (/home/bevers/src/mesos/worktrees/state-benchmarking/build-alexr/src/.libs/libmesos-1.8.0.so)
	    7fa494ccd332 _ZN7process14ProcessManager6resumeEPNS_11ProcessBaseE+0x492 (/home/bevers/src/mesos/worktrees/state-benchmarking/build-alexr/src/.libs/libmesos-1.8.0.so)
	    7fa494cd3606 _ZNSt6thread11_State_implINS_8_InvokerISt5tupleIJZN7process14ProcessManager12init_threadsEvEUlvE_EEEEE6_M_runEv+0x46 (/home/bevers/src/mesos/worktrees/state-benchmarking/build-alexr/src/.libs/libmesos-1.8.0.so)
	    7fa491e43733 [unknown] (/usr/lib/x86_64-linux-gnu/libstdc++.so.6.0.25)

master@127.0.1.1:5050 14784 182029.121506:       5000 cycles:uh: 
	    7fa4938f5390 _ZNSt6vectorIN6lambda12CallableOnceIFvRKN7process6FutureI6OptionINS2_4http14authentication20AuthenticationResultEEEEEEESaISD_EE17_M_realloc_insertIJSD_EEEvN9__gnu_cxx17__normal_iteratorIPSD_SF_EEDpOT_@plt+0x0 (/home/bevers/src/mesos/worktrees/state-benchmarking/build-alexr/src/.libs/libmesos-1.8.0.so)
	    7fa494cf9fc8 _ZNK7process6FutureI6OptionINS_4http14authentication20AuthenticationResultEEE4thenINS2_8ResponseEEENS0_IT_EEN6lambda12CallableOnceIFSA_RKS5_EEE+0xa8 (/home/bevers/src/mesos/worktrees/state-benchmarking/build-alexr/src/.libs/libmesos-1.8.0.so)
	    7fa494ccbaa4 _ZN7process11ProcessBase8_consumeERKNS0_12HttpEndpointERKNSt7__cxx1112basic_stringIcSt11char_traitsIcESaIcEEERKNS_5OwnedINS_4http7RequestEEE+0x3f4 (/home/bevers/src/mesos/worktrees/state-benchmarking/build-alexr/src/.libs/libmesos-1.8.0.so)
	    7fa494ccc02c _ZNO6lambda12CallableOnceIFN7process6FutureINS1_4http8ResponseEEEvEE10CallableFnINS_8internal7PartialIZNS1_11ProcessBase7consumeEONS1_9HttpEventEEUlRKNS1_5OwnedINS3_7RequestEEEE_JSG_EEEEclEv+0x3c (/home/bevers/src/mesos/worktrees/state-benchmarking/build-alexr/src/.libs/libmesos-1.8.0.so)
	    7fa4939e8599 _ZNO6lambda12CallableOnceIFvPN7process11ProcessBaseEEE10CallableFnINS_8internal7PartialIZNS1_8internal8DispatchINS1_6FutureINS1_4http8ResponseEEEEclINS0_IFSE_vEEEEESE_RKNS1_4UPIDEOT_EUlSt10unique_ptrINS1_7PromiseISD_EESt14default_deleteISQ_EEOSI_S3_E_JST_SI_St12_PlaceholderILi1EEEEEEclEOS3_+0xc9 (/home/bevers/src/mesos/worktrees/state-benchmarking/build-alexr/src/.libs/libmesos-1.8.0.so)
	    7fa494cb80e2 _ZN7process11ProcessBase7consumeEONS_13DispatchEventE+0x32 (/home/bevers/src/mesos/worktrees/state-benchmarking/build-alexr/src/.libs/libmesos-1.8.0.so)
	    7fa494ccd332 _ZN7process14ProcessManager6resumeEPNS_11ProcessBaseE+0x492 (/home/bevers/src/mesos/worktrees/state-benchmarking/build-alexr/src/.libs/libmesos-1.8.0.so)
	    7fa494cd3606 _ZNSt6thread11_State_implINS_8_InvokerISt5tupleIJZN7process14ProcessManager12init_threadsEvEUlvE_EEEEE6_M_runEv+0x46 (/home/bevers/src/mesos/worktrees/state-benchmarking/build-alexr/src/.libs/libmesos-1.8.0.so)
	    7fa491e43733 [unknown] (/usr/lib/x86_64-linux-gnu/libstdc++.so.6.0.25)

master@127.0.1.1:5050 14784 182029.121509:       5000 cycles:uh: 
	    7fa495d430cd _dl_lookup_symbol_x+0x1d (/lib/x86_64-linux-gnu/ld-2.27.so)
	    7fa494ccbaa4 _ZN7process11ProcessBase8_consumeERKNS0_12HttpEndpointERKNSt7__cxx1112basic_stringIcSt11char_traitsIcESaIcEEERKNS_5OwnedINS_4http7RequestEEE+0x3f4 (/home/bevers/src/mesos/worktrees/state-benchmarking/build-alexr/src/.libs/libmesos-1.8.0.so)
	    7fa494ccc02c _ZNO6lambda12CallableOnceIFN7process6FutureINS1_4http8ResponseEEEvEE10CallableFnINS_8internal7PartialIZNS1_11ProcessBase7consumeEONS1_9HttpEventEEUlRKNS1_5OwnedINS3_7RequestEEEE_JSG_EEEEclEv+0x3c (/home/bevers/src/mesos/worktrees/state-benchmarking/build-alexr/src/.libs/libmesos-1.8.0.so)
	    7fa4939e8599 _ZNO6lambda12CallableOnceIFvPN7process11ProcessBaseEEE10CallableFnINS_8internal7PartialIZNS1_8internal8DispatchINS1_6FutureINS1_4http8ResponseEEEEclINS0_IFSE_vEEEEESE_RKNS1_4UPIDEOT_EUlSt10unique_ptrINS1_7PromiseISD_EESt14default_deleteISQ_EEOSI_S3_E_JST_SI_St12_PlaceholderILi1EEEEEEclEOS3_+0xc9 (/home/bevers/src/mesos/worktrees/state-benchmarking/build-alexr/src/.libs/libmesos-1.8.0.so)
	    7fa494cb80e2 _ZN7process11ProcessBase7consumeEONS_13DispatchEventE+0x32 (/home/bevers/src/mesos/worktrees/state-benchmarking/build-alexr/src/.libs/libmesos-1.8.0.so)
	    7fa494ccd332 _ZN7process14ProcessManager6resumeEPNS_11ProcessBaseE+0x492 (/home/bevers/src/mesos/worktrees/state-benchmarking/build-alexr/src/.libs/libmesos-1.8.0.so)
	    7fa494cd3606 _ZNSt6thread11_State_implINS_8_InvokerISt5tupleIJZN7process14ProcessManager12init_threadsEvEUlvE_EEEEE6_M_runEv+0x46 (/home/bevers/src/mesos/worktrees/state-benchmarking/build-alexr/src/.libs/libmesos-1.8.0.so)
	    7fa491e43733 [unknown] (/usr/lib/x86_64-linux-gnu/libstdc++.so.6.0.25)

master@127.0.1.1:5050 14784 182029.121512:       5000 cycles:uh: 
	    7fa4939d1e10 _ZNK7process6FutureINS_4http8ResponseEE9onDiscardISt5_BindIFPFvNS_10WeakFutureIS2_EEES7_EEEERKS3_OT_+0x0 (/home/bevers/src/mesos/worktrees/state-benchmarking/build-alexr/src/.libs/libmesos-1.8.0.so)
	    7fa4939e8558 _ZNO6lambda12CallableOnceIFvPN7process11ProcessBaseEEE10CallableFnINS_8internal7PartialIZNS1_8internal8DispatchINS1_6FutureINS1_4http8ResponseEEEEclINS0_IFSE_vEEEEESE_RKNS1_4UPIDEOT_EUlSt10unique_ptrINS1_7PromiseISD_EESt14default_deleteISQ_EEOSI_S3_E_JST_SI_St12_PlaceholderILi1EEEEEEclEOS3_+0x88 (/home/bevers/src/mesos/worktrees/state-benchmarking/build-alexr/src/.libs/libmesos-1.8.0.so)
	    7fa494cb80e2 _ZN7process11ProcessBase7consumeEONS_13DispatchEventE+0x32 (/home/bevers/src/mesos/worktrees/state-benchmarking/build-alexr/src/.libs/libmesos-1.8.0.so)
	    7fa494ccd332 _ZN7process14ProcessManager6resumeEPNS_11ProcessBaseE+0x492 (/home/bevers/src/mesos/worktrees/state-benchmarking/build-alexr/src/.libs/libmesos-1.8.0.so)
	    7fa494cd3606 _ZNSt6thread11_State_implINS_8_InvokerISt5tupleIJZN7process14ProcessManager12init_threadsEvEUlvE_EEEEE6_M_runEv+0x46 (/home/bevers/src/mesos/worktrees/state-benchmarking/build-alexr/src/.libs/libmesos-1.8.0.so)
	    7fa491e43733 [unknown] (/usr/lib/x86_64-linux-gnu/libstdc++.so.6.0.25)

master@127.0.1.1:5050 14784 182029.121515:       5000 cycles:uh: 
	    55af36d5b150 _ZNSt6vectorIN6lambda12CallableOnceIFvvEEESaIS3_EE17_M_realloc_insertIJS3_EEEvN9__gnu_cxx17__normal_iteratorIPS3_S5_EEDpOT_+0x170 (/home/bevers/src/mesos/worktrees/state-benchmarking/build-alexr/src/.libs/mesos-master)
	    7fa4939d1faf _ZNK7process6FutureINS_4http8ResponseEE11onAbandonedEON6lambda12CallableOnceIFvvEEE+0x7f (/home/bevers/src/mesos/worktrees/state-benchmarking/build-alexr/src/.libs/libmesos-1.8.0.so)
	    7fa4939d7037 _ZN7process7PromiseINS_4http8ResponseEE9associateERKNS_6FutureIS2_EE+0x397 (/home/bevers/src/mesos/worktrees/state-benchmarking/build-alexr/src/.libs/libmesos-1.8.0.so)
	    7fa4939e8558 _ZNO6lambda12CallableOnceIFvPN7process11ProcessBaseEEE10CallableFnINS_8internal7PartialIZNS1_8internal8DispatchINS1_6FutureINS1_4http8ResponseEEEEclINS0_IFSE_vEEEEESE_RKNS1_4UPIDEOT_EUlSt10unique_ptrINS1_7PromiseISD_EESt14default_deleteISQ_EEOSI_S3_E_JST_SI_St12_PlaceholderILi1EEEEEEclEOS3_+0x88 (/home/bevers/src/mesos/worktrees/state-benchmarking/build-alexr/src/.libs/libmesos-1.8.0.so)
	    7fa494cb80e2 _ZN7process11ProcessBase7consumeEONS_13DispatchEventE+0x32 (/home/bevers/src/mesos/worktrees/state-benchmarking/build-alexr/src/.libs/libmesos-1.8.0.so)
	    7fa494ccd332 _ZN7process14ProcessManager6resumeEPNS_11ProcessBaseE+0x492 (/home/bevers/src/mesos/worktrees/state-benchmarking/build-alexr/src/.libs/libmesos-1.8.0.so)
	    7fa494cd3606 _ZNSt6thread11_State_implINS_8_InvokerISt5tupleIJZN7process14ProcessManager12init_threadsEvEUlvE_EEEEE6_M_runEv+0x46 (/home/bevers/src/mesos/worktrees/state-benchmarking/build-alexr/src/.libs/libmesos-1.8.0.so)
	    7fa491e43733 [unknown] (/usr/lib/x86_64-linux-gnu/libstdc++.so.6.0.25)

master@127.0.1.1:5050 14784 182029.121518:       5000 cycles:uh: 
	    7fa491e18cfd _ZNK10__cxxabiv120__si_class_type_info12__do_dyncastElNS_17__class_type_info10__sub_kindEPKS1_PKvS4_S6_RNS1_16__dyncast_resultE+0x2d (/usr/lib/x86_64-linux-gnu/libstdc++.so.6.0.25)
	               2 [unknown] ([unknown])
	    7fa491e899d0 _ZNSt7num_getIcSt19istreambuf_iteratorIcSt11char_traitsIcEEED0Ev+0x0 (/usr/lib/x86_64-linux-gnu/libstdc++.so.6.0.25)
	4810c08348002827 [unknown] ([unknown])

master@127.0.1.1:5050 14784 182029.121521:       5000 cycles:uh: 
	    7fa4917cd875 _itoa_word+0xc5 (/lib/x86_64-linux-gnu/libc-2.27.so)
	    7fa4917f66d1 _IO_vsprintf+0x81 (/lib/x86_64-linux-gnu/libc-2.27.so)
	    7fa492672518 [unknown] (/home/bevers/src/mesos/worktrees/state-benchmarking/build-alexr/src/.libs/libmesos-1.8.0.so)

master@127.0.1.1:5050 14784 182029.121524:       5000 cycles:uh: 
	    7fa491e901f4 [unknown] (/usr/lib/x86_64-linux-gnu/libstdc++.so.6.0.25)
	    7fa491e9ced9 _ZNSo9_M_insertImEERSoT_+0x89 (/usr/lib/x86_64-linux-gnu/libstdc++.so.6.0.25)
	               6 [unknown] ([unknown])
	    7fa491ea0de0 _ZTv0_n24_NSt7__cxx1119basic_ostringstreamIcSt11char_traitsIcESaIcEED0Ev+0x0 (/usr/lib/x86_64-linux-gnu/libstdc++.so.6.0.25)
	2d058b48e8588b48 [unknown] ([unknown])

master@127.0.1.1:5050 14784 182029.121542:       5000 cycles:uh: 
	    7fa491801f54 _IO_do_write@@GLIBC_2.2.5+0xb4 (/lib/x86_64-linux-gnu/libc-2.27.so)

master@127.0.1.1:5050 14784 182029.121755:       5000 cycles:uh: 
	    7fa494c9a9f7 _ZN7process16LibprocessTracer7disableEv+0x1a7 (/home/bevers/src/mesos/worktrees/state-benchmarking/build-alexr/src/.libs/libmesos-1.8.0.so)
	    7fa494ccd344 _ZN7process14ProcessManager6resumeEPNS_11ProcessBaseE+0x4a4 (/home/bevers/src/mesos/worktrees/state-benchmarking/build-alexr/src/.libs/libmesos-1.8.0.so)
	    7fa494cd3606 _ZNSt6thread11_State_implINS_8_InvokerISt5tupleIJZN7process14ProcessManager12init_threadsEvEUlvE_EEEEE6_M_runEv+0x46 (/home/bevers/src/mesos/worktrees/state-benchmarking/build-alexr/src/.libs/libmesos-1.8.0.so)
	    7fa491e43733 [unknown] (/usr/lib/x86_64-linux-gnu/libstdc++.so.6.0.25)

__authentication_router__(1)@127.0.1.1:5050 14785 182029.121598:       5000 cycles:uh: 
	    7fa491e18c54 _ZNK10__cxxabiv120__si_class_type_info20__do_find_public_srcElPKvPKNS_17__class_type_infoES2_+0x4 (/usr/lib/x86_64-linux-gnu/libstdc++.so.6.0.25)

__authentication_router__(1)@127.0.1.1:5050 14785 182029.121601:       5000 cycles:uh: 
	    7fa495d422fb do_lookup_x+0xbb (/lib/x86_64-linux-gnu/ld-2.27.so)

__authentication_router__(1)@127.0.1.1:5050 14785 182029.121604:       5000 cycles:uh: 
	    7fa49391ca20 pthread_rwlock_unlock@plt+0x0 (/home/bevers/src/mesos/worktrees/state-benchmarking/build-alexr/src/.libs/libmesos-1.8.0.so)
	    7fa494bf60cf _ZN7process4http14authentication27AuthenticatorManagerProcess12authenticateERKNS0_7RequestERKNSt7__cxx1112basic_stringIcSt11char_traitsIcESaIcEEE+0x1ff (/home/bevers/src/mesos/worktrees/state-benchmarking/build-alexr/src/.libs/libmesos-1.8.0.so)
	    7fa494bfbec4 _ZNO6lambda12CallableOnceIFvPN7process11ProcessBaseEEE10CallableFnINS_8internal7PartialIZNS1_8dispatchI6OptionINS1_4http14authentication20AuthenticationResultEENSC_27AuthenticatorManagerProcessERKNSB_7RequestERKNSt7__cxx1112basic_stringIcSt11char_traitsIcESaIcEEESI_SQ_EENS1_6FutureIT_EERKNS1_3PIDIT0_EEMSV_FST_T1_T2_EOT3_OT4_EUlSt10unique_ptrINS1_7PromiseISE_EESt14default_deleteIS19_EEOSG_OSO_S3_E_JS1C_SG_SO_St12_PlaceholderILi1EEEEEEclEOS3_+0x84 (/home/bevers/src/mesos/worktrees/state-benchmarking/build-alexr/src/.libs/libmesos-1.8.0.so)
	    7fa494cb80e2 _ZN7process11ProcessBase7consumeEONS_13DispatchEventE+0x32 (/home/bevers/src/mesos/worktrees/state-benchmarking/build-alexr/src/.libs/libmesos-1.8.0.so)
	    7fa494ccd332 _ZN7process14ProcessManager6resumeEPNS_11ProcessBaseE+0x492 (/home/bevers/src/mesos/worktrees/state-benchmarking/build-alexr/src/.libs/libmesos-1.8.0.so)
	    7fa494cd3606 _ZNSt6thread11_State_implINS_8_InvokerISt5tupleIJZN7process14ProcessManager12init_threadsEvEUlvE_EEEEE6_M_runEv+0x46 (/home/bevers/src/mesos/worktrees/state-benchmarking/build-alexr/src/.libs/libmesos-1.8.0.so)
	    7fa491e43733 [unknown] (/usr/lib/x86_64-linux-gnu/libstdc++.so.6.0.25)

__authentication_router__(1)@127.0.1.1:5050 14785 182029.121608:       5000 cycles:uh: 
	    7fa4938bb376 _ZN7process7PromiseI6OptionINS_4http14authentication20AuthenticationResultEEE9associateERKNS_6FutureIS5_EE@plt+0x6 (/home/bevers/src/mesos/worktrees/state-benchmarking/build-alexr/src/.libs/libmesos-1.8.0.so)
	    7fa494cb80e2 _ZN7process11ProcessBase7consumeEONS_13DispatchEventE+0x32 (/home/bevers/src/mesos/worktrees/state-benchmarking/build-alexr/src/.libs/libmesos-1.8.0.so)
	    7fa494ccd332 _ZN7process14ProcessManager6resumeEPNS_11ProcessBaseE+0x492 (/home/bevers/src/mesos/worktrees/state-benchmarking/build-alexr/src/.libs/libmesos-1.8.0.so)
	    7fa494cd3606 _ZNSt6thread11_State_implINS_8_InvokerISt5tupleIJZN7process14ProcessManager12init_threadsEvEUlvE_EEEEE6_M_runEv+0x46 (/home/bevers/src/mesos/worktrees/state-benchmarking/build-alexr/src/.libs/libmesos-1.8.0.so)
	    7fa491e43733 [unknown] (/usr/lib/x86_64-linux-gnu/libstdc++.so.6.0.25)

__authentication_router__(1)@127.0.1.1:5050 14785 182029.121610:       5000 cycles:uh: 
	    7fa4918093c5 _int_malloc+0xf5 (/lib/x86_64-linux-gnu/libc-2.27.so)

__authentication_router__(1)@127.0.1.1:5050 14785 182029.121613:       5000 cycles:uh: 
	    7fa49180c20a malloc+0x19a (/lib/x86_64-linux-gnu/libc-2.27.so)

__authentication_router__(1)@127.0.1.1:5050 14785 182029.121615:       5000 cycles:uh: 
	    7fa495d47e4b _dl_fixup+0x5b (/lib/x86_64-linux-gnu/ld-2.27.so)
	    7fa494bfb86f _ZN7process7PromiseI6OptionINS_4http14authentication20AuthenticationResultEEE9associateERKNS_6FutureIS5_EE+0x1df (/home/bevers/src/mesos/worktrees/state-benchmarking/build-alexr/src/.libs/libmesos-1.8.0.so)
	    7fa494bfbecf _ZNO6lambda12CallableOnceIFvPN7process11ProcessBaseEEE10CallableFnINS_8internal7PartialIZNS1_8dispatchI6OptionINS1_4http14authentication20AuthenticationResultEENSC_27AuthenticatorManagerProcessERKNSB_7RequestERKNSt7__cxx1112basic_stringIcSt11char_traitsIcESaIcEEESI_SQ_EENS1_6FutureIT_EERKNS1_3PIDIT0_EEMSV_FST_T1_T2_EOT3_OT4_EUlSt10unique_ptrINS1_7PromiseISE_EESt14default_deleteIS19_EEOSG_OSO_S3_E_JS1C_SG_SO_St12_PlaceholderILi1EEEEEEclEOS3_+0x8f (/home/bevers/src/mesos/worktrees/state-benchmarking/build-alexr/src/.libs/libmesos-1.8.0.so)
	    7fa494cb80e2 _ZN7process11ProcessBase7consumeEONS_13DispatchEventE+0x32 (/home/bevers/src/mesos/worktrees/state-benchmarking/build-alexr/src/.libs/libmesos-1.8.0.so)
	    7fa494ccd332 _ZN7process14ProcessManager6resumeEPNS_11ProcessBaseE+0x492 (/home/bevers/src/mesos/worktrees/state-benchmarking/build-alexr/src/.libs/libmesos-1.8.0.so)
	    7fa494cd3606 _ZNSt6thread11_State_implINS_8_InvokerISt5tupleIJZN7process14ProcessManager12init_threadsEvEUlvE_EEEEE6_M_runEv+0x46 (/home/bevers/src/mesos/worktrees/state-benchmarking/build-alexr/src/.libs/libmesos-1.8.0.so)
	    7fa491e43733 [unknown] (/usr/lib/x86_64-linux-gnu/libstdc++.so.6.0.25)

__authentication_router__(1)@127.0.1.1:5050 14785 182029.121618:       5000 cycles:uh: 
	    7fa494bfb885 _ZN7process7PromiseI6OptionINS_4http14authentication20AuthenticationResultEEE9associateERKNS_6FutureIS5_EE+0x1f5 (/home/bevers/src/mesos/worktrees/state-benchmarking/build-alexr/src/.libs/libmesos-1.8.0.so)
	    7fa494bfbecf _ZNO6lambda12CallableOnceIFvPN7process11ProcessBaseEEE10CallableFnINS_8internal7PartialIZNS1_8dispatchI6OptionINS1_4http14authentication20AuthenticationResultEENSC_27AuthenticatorManagerProcessERKNSB_7RequestERKNSt7__cxx1112basic_stringIcSt11char_traitsIcESaIcEEESI_SQ_EENS1_6FutureIT_EERKNS1_3PIDIT0_EEMSV_FST_T1_T2_EOT3_OT4_EUlSt10unique_ptrINS1_7PromiseISE_EESt14default_deleteIS19_EEOSG_OSO_S3_E_JS1C_SG_SO_St12_PlaceholderILi1EEEEEEclEOS3_+0x8f (/home/bevers/src/mesos/worktrees/state-benchmarking/build-alexr/src/.libs/libmesos-1.8.0.so)
	    7fa494cb80e2 _ZN7process11ProcessBase7consumeEONS_13DispatchEventE+0x32 (/home/bevers/src/mesos/worktrees/state-benchmarking/build-alexr/src/.libs/libmesos-1.8.0.so)
	    7fa494ccd332 _ZN7process14ProcessManager6resumeEPNS_11ProcessBaseE+0x492 (/home/bevers/src/mesos/worktrees/state-benchmarking/build-alexr/src/.libs/libmesos-1.8.0.so)
	    7fa494cd3606 _ZNSt6thread11_State_implINS_8_InvokerISt5tupleIJZN7process14ProcessManager12init_threadsEvEUlvE_EEEEE6_M_runEv+0x46 (/home/bevers/src/mesos/worktrees/state-benchmarking/build-alexr/src/.libs/libmesos-1.8.0.so)
	    7fa491e43733 [unknown] (/usr/lib/x86_64-linux-gnu/libstdc++.so.6.0.25)

__authentication_router__(1)@127.0.1.1:5050 14785 182029.121621:       5000 cycles:uh: 
	    7fa4938ecf56 _ZN7process7PromiseI6OptionINS_4http14authentication20AuthenticationResultEEED1Ev@plt+0x6 (/home/bevers/src/mesos/worktrees/state-benchmarking/build-alexr/src/.libs/libmesos-1.8.0.so)
	    7fa494bfbeec _ZNO6lambda12CallableOnceIFvPN7process11ProcessBaseEEE10CallableFnINS_8internal7PartialIZNS1_8dispatchI6OptionINS1_4http14authentication20AuthenticationResultEENSC_27AuthenticatorManagerProcessERKNSB_7RequestERKNSt7__cxx1112basic_stringIcSt11char_traitsIcESaIcEEESI_SQ_EENS1_6FutureIT_EERKNS1_3PIDIT0_EEMSV_FST_T1_T2_EOT3_OT4_EUlSt10unique_ptrINS1_7PromiseISE_EESt14default_deleteIS19_EEOSG_OSO_S3_E_JS1C_SG_SO_St12_PlaceholderILi1EEEEEEclEOS3_+0xac (/home/bevers/src/mesos/worktrees/state-benchmarking/build-alexr/src/.libs/libmesos-1.8.0.so)
	    7fa494cb80e2 _ZN7process11ProcessBase7consumeEONS_13DispatchEventE+0x32 (/home/bevers/src/mesos/worktrees/state-benchmarking/build-alexr/src/.libs/libmesos-1.8.0.so)
	    7fa494ccd332 _ZN7process14ProcessManager6resumeEPNS_11ProcessBaseE+0x492 (/home/bevers/src/mesos/worktrees/state-benchmarking/build-alexr/src/.libs/libmesos-1.8.0.so)
	    7fa494cd3606 _ZNSt6thread11_State_implINS_8_InvokerISt5tupleIJZN7process14ProcessManager12init_threadsEvEUlvE_EEEEE6_M_runEv+0x46 (/home/bevers/src/mesos/worktrees/state-benchmarking/build-alexr/src/.libs/libmesos-1.8.0.so)
	    7fa491e43733 [unknown] (/usr/lib/x86_64-linux-gnu/libstdc++.so.6.0.25)

__authentication_router__(1)@127.0.1.1:5050 14785 182029.121624:       5000 cycles:uh: 
	    7fa491ea3db0 _ZNSt7__cxx1119basic_ostringstreamIcSt11char_traitsIcESaIcEEC1ESt13_Ios_Openmode+0x0 (/usr/lib/x86_64-linux-gnu/libstdc++.so.6.0.25)
	    7fa494c9a8bf _ZN7process16LibprocessTracer7disableEv+0x6f (/home/bevers/src/mesos/worktrees/state-benchmarking/build-alexr/src/.libs/libmesos-1.8.0.so)
	    7fa494ccd344 _ZN7process14ProcessManager6resumeEPNS_11ProcessBaseE+0x4a4 (/home/bevers/src/mesos/worktrees/state-benchmarking/build-alexr/src/.libs/libmesos-1.8.0.so)
	    7fa494cd3606 _ZNSt6thread11_State_implINS_8_InvokerISt5tupleIJZN7process14ProcessManager12init_threadsEvEUlvE_EEEEE6_M_runEv+0x46 (/home/bevers/src/mesos/worktrees/state-benchmarking/build-alexr/src/.libs/libmesos-1.8.0.so)
	    7fa491e43733 [unknown] (/usr/lib/x86_64-linux-gnu/libstdc++.so.6.0.25)

__authentication_router__(1)@127.0.1.1:5050 14785 182029.121627:       5000 cycles:uh: 
	    7fa491e8e90a _ZSt9has_facetISt7num_putIcSt19ostreambuf_iteratorIcSt11char_traitsIcEEEEbRKSt6locale+0x2a (/usr/lib/x86_64-linux-gnu/libstdc++.so.6.0.25)
	               6 [unknown] ([unknown])
	    7fa491ea0de0 _ZTv0_n24_NSt7__cxx1119basic_ostringstreamIcSt11char_traitsIcESaIcEED0Ev+0x0 (/usr/lib/x86_64-linux-gnu/libstdc++.so.6.0.25)
	2d058b48e8588b48 [unknown] ([unknown])

__authentication_router__(1)@127.0.1.1:5050 14785 182029.121630:       5000 cycles:uh: 
	    7fa4938a5020 inet_ntop@plt+0x0 (/home/bevers/src/mesos/worktrees/state-benchmarking/build-alexr/src/.libs/libmesos-1.8.0.so)
	    7fa494c9dc2d _ZN7processlsERSoRKNS_4UPIDE+0x4d (/home/bevers/src/mesos/worktrees/state-benchmarking/build-alexr/src/.libs/libmesos-1.8.0.so)
	    7fa493c69564 _Z9stringifyIN7process4UPIDEENSt7__cxx1112basic_stringIcSt11char_traitsIcESaIcEEERKT_+0x44 (/home/bevers/src/mesos/worktrees/state-benchmarking/build-alexr/src/.libs/libmesos-1.8.0.so)
	    7fa494c9a8bf _ZN7process16LibprocessTracer7disableEv+0x6f (/home/bevers/src/mesos/worktrees/state-benchmarking/build-alexr/src/.libs/libmesos-1.8.0.so)
	    7fa494ccd344 _ZN7process14ProcessManager6resumeEPNS_11ProcessBaseE+0x4a4 (/home/bevers/src/mesos/worktrees/state-benchmarking/build-alexr/src/.libs/libmesos-1.8.0.so)
	    7fa494cd3606 _ZNSt6thread11_State_implINS_8_InvokerISt5tupleIJZN7process14ProcessManager12init_threadsEvEUlvE_EEEEE6_M_runEv+0x46 (/home/bevers/src/mesos/worktrees/state-benchmarking/build-alexr/src/.libs/libmesos-1.8.0.so)
	    7fa491e43733 [unknown] (/usr/lib/x86_64-linux-gnu/libstdc++.so.6.0.25)

__authentication_router__(1)@127.0.1.1:5050 14785 182029.121633:       5000 cycles:uh: 
	    7fa491e9c620 _ZSt16__ostream_insertIcSt11char_traitsIcEERSt13basic_ostreamIT_T0_ES6_PKS3_l+0x0 (/usr/lib/x86_64-linux-gnu/libstdc++.so.6.0.25)
	    7fa493c69564 _Z9stringifyIN7process4UPIDEENSt7__cxx1112basic_stringIcSt11char_traitsIcESaIcEEERKT_+0x44 (/home/bevers/src/mesos/worktrees/state-benchmarking/build-alexr/src/.libs/libmesos-1.8.0.so)
	    7fa494c9a8bf _ZN7process16LibprocessTracer7disableEv+0x6f (/home/bevers/src/mesos/worktrees/state-benchmarking/build-alexr/src/.libs/libmesos-1.8.0.so)
	    7fa494ccd344 _ZN7process14ProcessManager6resumeEPNS_11ProcessBaseE+0x4a4 (/home/bevers/src/mesos/worktrees/state-benchmarking/build-alexr/src/.libs/libmesos-1.8.0.so)
	    7fa494cd3606 _ZNSt6thread11_State_implINS_8_InvokerISt5tupleIJZN7process14ProcessManager12init_threadsEvEUlvE_EEEEE6_M_runEv+0x46 (/home/bevers/src/mesos/worktrees/state-benchmarking/build-alexr/src/.libs/libmesos-1.8.0.so)
	    7fa491e43733 [unknown] (/usr/lib/x86_64-linux-gnu/libstdc++.so.6.0.25)

__authentication_router__(1)@127.0.1.1:5050 14785 182029.121636:       5000 cycles:uh: 
	    7fa4917f49a0 _IO_fwrite+0x100 (/lib/x86_64-linux-gnu/libc-2.27.so)

__authentication_router__(1)@127.0.1.1:5050 14785 182029.121643:       5000 cycles:uh: 
	    7fa491b70012 __pthread_mutex_lock+0x72 (/lib/x86_64-linux-gnu/libpthread-2.27.so)
	    7fa494ccd344 _ZN7process14ProcessManager6resumeEPNS_11ProcessBaseE+0x4a4 (/home/bevers/src/mesos/worktrees/state-benchmarking/build-alexr/src/.libs/libmesos-1.8.0.so)
	    7fa494cd3606 _ZNSt6thread11_State_implINS_8_InvokerISt5tupleIJZN7process14ProcessManager12init_threadsEvEUlvE_EEEEE6_M_runEv+0x46 (/home/bevers/src/mesos/worktrees/state-benchmarking/build-alexr/src/.libs/libmesos-1.8.0.so)
	    7fa491e43733 [unknown] (/usr/lib/x86_64-linux-gnu/libstdc++.so.6.0.25)

__auth_handlers__(1)@127.0.1.1:5050 14789 182029.121724:       5000 cycles:uh: 
	    7fa49180c1f8 malloc+0x188 (/lib/x86_64-linux-gnu/libc-2.27.so)

__auth_handlers__(1)@127.0.1.1:5050 14789 182029.121727:       5000 cycles:uh: 
	    7fa494bf85d0 _ZN7process6FutureI6OptionINS_4http14authentication20AuthenticationResultEEEC1Ev+0x0 (/home/bevers/src/mesos/worktrees/state-benchmarking/build-alexr/src/.libs/libmesos-1.8.0.so)
	    7fa494d00885 _ZNO6lambda12CallableOnceIFvPN7process11ProcessBaseEEE10CallableFnINS_8internal7PartialIZNS1_8dispatchI6OptionINS1_4http14authentication20AuthenticationResultEENS1_15SequenceProcessERKSt8functionIFNS1_6FutureISE_EEvEESM_EENSH_IT_EERKNS1_3PIDIT0_EEMSQ_FSO_T1_EOT2_EUlSt10unique_ptrINS1_7PromiseISE_EESt14default_deleteIS11_EEOSK_S3_E_JS14_SK_St12_PlaceholderILi1EEEEEEclEOS3_+0x75 (/home/bevers/src/mesos/worktrees/state-benchmarking/build-alexr/src/.libs/libmesos-1.8.0.so)
	    7fa494cb80e2 _ZN7process11ProcessBase7consumeEONS_13DispatchEventE+0x32 (/home/bevers/src/mesos/worktrees/state-benchmarking/build-alexr/src/.libs/libmesos-1.8.0.so)
	    7fa494ccd332 _ZN7process14ProcessManager6resumeEPNS_11ProcessBaseE+0x492 (/home/bevers/src/mesos/worktrees/state-benchmarking/build-alexr/src/.libs/libmesos-1.8.0.so)
	    7fa494cd3606 _ZNSt6thread11_State_implINS_8_InvokerISt5tupleIJZN7process14ProcessManager12init_threadsEvEUlvE_EEEEE6_M_runEv+0x46 (/home/bevers/src/mesos/worktrees/state-benchmarking/build-alexr/src/.libs/libmesos-1.8.0.so)
	    7fa491e43733 [unknown] (/usr/lib/x86_64-linux-gnu/libstdc++.so.6.0.25)

__auth_handlers__(1)@127.0.1.1:5050 14789 182029.121731:       5000 cycles:uh: 
	    7fa495d47e1d _dl_fixup+0x2d (/lib/x86_64-linux-gnu/ld-2.27.so)
	    7fa494d00885 _ZNO6lambda12CallableOnceIFvPN7process11ProcessBaseEEE10CallableFnINS_8internal7PartialIZNS1_8dispatchI6OptionINS1_4http14authentication20AuthenticationResultEENS1_15SequenceProcessERKSt8functionIFNS1_6FutureISE_EEvEESM_EENSH_IT_EERKNS1_3PIDIT0_EEMSQ_FSO_T1_EOT2_EUlSt10unique_ptrINS1_7PromiseISE_EESt14default_deleteIS11_EEOSK_S3_E_JS14_SK_St12_PlaceholderILi1EEEEEEclEOS3_+0x75 (/home/bevers/src/mesos/worktrees/state-benchmarking/build-alexr/src/.libs/libmesos-1.8.0.so)
	    7fa494cb80e2 _ZN7process11ProcessBase7consumeEONS_13DispatchEventE+0x32 (/home/bevers/src/mesos/worktrees/state-benchmarking/build-alexr/src/.libs/libmesos-1.8.0.so)
	    7fa494ccd332 _ZN7process14ProcessManager6resumeEPNS_11ProcessBaseE+0x492 (/home/bevers/src/mesos/worktrees/state-benchmarking/build-alexr/src/.libs/libmesos-1.8.0.so)
	    7fa494cd3606 _ZNSt6thread11_State_implINS_8_InvokerISt5tupleIJZN7process14ProcessManager12init_threadsEvEUlvE_EEEEE6_M_runEv+0x46 (/home/bevers/src/mesos/worktrees/state-benchmarking/build-alexr/src/.libs/libmesos-1.8.0.so)
	    7fa491e43733 [unknown] (/usr/lib/x86_64-linux-gnu/libstdc++.so.6.0.25)

__auth_handlers__(1)@127.0.1.1:5050 14789 182029.121734:       5000 cycles:uh: 
	    7fa495d43109 _dl_lookup_symbol_x+0x59 (/lib/x86_64-linux-gnu/ld-2.27.so)

__auth_handlers__(1)@127.0.1.1:5050 14789 182029.121738:       5000 cycles:uh: 
	    7fa4938ec690 _ZNK7process5OwnedINS_7PromiseI6OptionINS_4http14authentication20AuthenticationResultEEEEEptEv@plt+0x0 (/home/bevers/src/mesos/worktrees/state-benchmarking/build-alexr/src/.libs/libmesos-1.8.0.so)
	    7fa494d00885 _ZNO6lambda12CallableOnceIFvPN7process11ProcessBaseEEE10CallableFnINS_8internal7PartialIZNS1_8dispatchI6OptionINS1_4http14authentication20AuthenticationResultEENS1_15SequenceProcessERKSt8functionIFNS1_6FutureISE_EEvEESM_EENSH_IT_EERKNS1_3PIDIT0_EEMSQ_FSO_T1_EOT2_EUlSt10unique_ptrINS1_7PromiseISE_EESt14default_deleteIS11_EEOSK_S3_E_JS14_SK_St12_PlaceholderILi1EEEEEEclEOS3_+0x75 (/home/bevers/src/mesos/worktrees/state-benchmarking/build-alexr/src/.libs/libmesos-1.8.0.so)
	    7fa494cb80e2 _ZN7process11ProcessBase7consumeEONS_13DispatchEventE+0x32 (/home/bevers/src/mesos/worktrees/state-benchmarking/build-alexr/src/.libs/libmesos-1.8.0.so)
	    7fa494ccd332 _ZN7process14ProcessManager6resumeEPNS_11ProcessBaseE+0x492 (/home/bevers/src/mesos/worktrees/state-benchmarking/build-alexr/src/.libs/libmesos-1.8.0.so)
	    7fa494cd3606 _ZNSt6thread11_State_implINS_8_InvokerISt5tupleIJZN7process14ProcessManager12init_threadsEvEUlvE_EEEEE6_M_runEv+0x46 (/home/bevers/src/mesos/worktrees/state-benchmarking/build-alexr/src/.libs/libmesos-1.8.0.so)
	    7fa491e43733 [unknown] (/usr/lib/x86_64-linux-gnu/libstdc++.so.6.0.25)

__auth_handlers__(1)@127.0.1.1:5050 14789 182029.121742:       5000 cycles:uh: 
	    7fa495d47e4b _dl_fixup+0x5b (/lib/x86_64-linux-gnu/ld-2.27.so)
	    7fa494d00885 _ZNO6lambda12CallableOnceIFvPN7process11ProcessBaseEEE10CallableFnINS_8internal7PartialIZNS1_8dispatchI6OptionINS1_4http14authentication20AuthenticationResultEENS1_15SequenceProcessERKSt8functionIFNS1_6FutureISE_EEvEESM_EENSH_IT_EERKNS1_3PIDIT0_EEMSQ_FSO_T1_EOT2_EUlSt10unique_ptrINS1_7PromiseISE_EESt14default_deleteIS11_EEOSK_S3_E_JS14_SK_St12_PlaceholderILi1EEEEEEclEOS3_+0x75 (/home/bevers/src/mesos/worktrees/state-benchmarking/build-alexr/src/.libs/libmesos-1.8.0.so)
	    7fa494cb80e2 _ZN7process11ProcessBase7consumeEONS_13DispatchEventE+0x32 (/home/bevers/src/mesos/worktrees/state-benchmarking/build-alexr/src/.libs/libmesos-1.8.0.so)
	    7fa494ccd332 _ZN7process14ProcessManager6resumeEPNS_11ProcessBaseE+0x492 (/home/bevers/src/mesos/worktrees/state-benchmarking/build-alexr/src/.libs/libmesos-1.8.0.so)
	    7fa494cd3606 _ZNSt6thread11_State_implINS_8_InvokerISt5tupleIJZN7process14ProcessManager12init_threadsEvEUlvE_EEEEE6_M_runEv+0x46 (/home/bevers/src/mesos/worktrees/state-benchmarking/build-alexr/src/.libs/libmesos-1.8.0.so)
	    7fa491e43733 [unknown] (/usr/lib/x86_64-linux-gnu/libstdc++.so.6.0.25)

__auth_handlers__(1)@127.0.1.1:5050 14789 182029.121744:       5000 cycles:uh: 
	    7fa495d427fd do_lookup_x+0x5bd (/lib/x86_64-linux-gnu/ld-2.27.so)
	               0 [unknown] ([unknown])

__auth_handlers__(1)@127.0.1.1:5050 14789 182029.121747:       5000 cycles:uh: 
	    55af36d54980 _ZNSt16_Sp_counted_baseILN9__gnu_cxx12_Lock_policyE2EE10_M_releaseEv+0x0 (/home/bevers/src/mesos/worktrees/state-benchmarking/build-alexr/src/.libs/mesos-master)
	    7fa494d00885 _ZNO6lambda12CallableOnceIFvPN7process11ProcessBaseEEE10CallableFnINS_8internal7PartialIZNS1_8dispatchI6OptionINS1_4http14authentication20AuthenticationResultEENS1_15SequenceProcessERKSt8functionIFNS1_6FutureISE_EEvEESM_EENSH_IT_EERKNS1_3PIDIT0_EEMSQ_FSO_T1_EOT2_EUlSt10unique_ptrINS1_7PromiseISE_EESt14default_deleteIS11_EEOSK_S3_E_JS14_SK_St12_PlaceholderILi1EEEEEEclEOS3_+0x75 (/home/bevers/src/mesos/worktrees/state-benchmarking/build-alexr/src/.libs/libmesos-1.8.0.so)
	    7fa494cb80e2 _ZN7process11ProcessBase7consumeEONS_13DispatchEventE+0x32 (/home/bevers/src/mesos/worktrees/state-benchmarking/build-alexr/src/.libs/libmesos-1.8.0.so)
	    7fa494ccd332 _ZN7process14ProcessManager6resumeEPNS_11ProcessBaseE+0x492 (/home/bevers/src/mesos/worktrees/state-benchmarking/build-alexr/src/.libs/libmesos-1.8.0.so)
	    7fa494cd3606 _ZNSt6thread11_State_implINS_8_InvokerISt5tupleIJZN7process14ProcessManager12init_threadsEvEUlvE_EEEEE6_M_runEv+0x46 (/home/bevers/src/mesos/worktrees/state-benchmarking/build-alexr/src/.libs/libmesos-1.8.0.so)
	    7fa491e43733 [unknown] (/usr/lib/x86_64-linux-gnu/libstdc++.so.6.0.25)

__auth_handlers__(1)@127.0.1.1:5050 14789 182029.121750:       5000 cycles:uh: 
	    55af36d5afe1 _ZNSt6vectorIN6lambda12CallableOnceIFvvEEESaIS3_EE17_M_realloc_insertIJS3_EEEvN9__gnu_cxx17__normal_iteratorIPS3_S5_EEDpOT_+0x1 (/home/bevers/src/mesos/worktrees/state-benchmarking/build-alexr/src/.libs/mesos-master)
	    7fa494bfb77f _ZN7process7PromiseI6OptionINS_4http14authentication20AuthenticationResultEEE9associateERKNS_6FutureIS5_EE+0xef (/home/bevers/src/mesos/worktrees/state-benchmarking/build-alexr/src/.libs/libmesos-1.8.0.so)
	    7fa494d009d6 _ZN7process15SequenceProcess8notifiedI6OptionINS_4http14authentication20AuthenticationResultEEEEvNS_5OwnedINS_7PromiseIT_EEEERKSt8functionIFNS_6FutureIS9_EEvEE+0x86 (/home/bevers/src/mesos/worktrees/state-benchmarking/build-alexr/src/.libs/libmesos-1.8.0.so)
	    7fa494ce5af9 _ZNO6lambda12CallableOnceIFvRKN7process6FutureI7NothingEEEE10CallableFnINS_8internal7PartialIZNKS4_5onAnyISt5_BindIFPFvNS1_5OwnedINS1_7PromiseI6OptionINS1_4http14authentication20AuthenticationResultEEEEEERKSt8functionIFNS2_ISK_EEvEEESM_SQ_EEvEES6_OT_NS4_6PreferEEUlOSW_S6_E_JSW_St12_PlaceholderILi1EEEEEEclES6_+0x49 (/home/bevers/src/mesos/worktrees/state-benchmarking/build-alexr/src/.libs/libmesos-1.8.0.so)
	    7fa493a90864 _ZNK7process6FutureI7NothingE5onAnyEON6lambda12CallableOnceIFvRKS2_EEE+0x54 (/home/bevers/src/mesos/worktrees/state-benchmarking/build-alexr/src/.libs/libmesos-1.8.0.so)
	    7fa494cfe87d _ZN7process15SequenceProcess3addI6OptionINS_4http14authentication20AuthenticationResultEEEENS_6FutureIT_EERKSt8functionIFS9_vEE+0x2bd (/home/bevers/src/mesos/worktrees/state-benchmarking/build-alexr/src/.libs/libmesos-1.8.0.so)
	    7fa494d00885 _ZNO6lambda12CallableOnceIFvPN7process11ProcessBaseEEE10CallableFnINS_8internal7PartialIZNS1_8dispatchI6OptionINS1_4http14authentication20AuthenticationResultEENS1_15SequenceProcessERKSt8functionIFNS1_6FutureISE_EEvEESM_EENSH_IT_EERKNS1_3PIDIT0_EEMSQ_FSO_T1_EOT2_EUlSt10unique_ptrINS1_7PromiseISE_EESt14default_deleteIS11_EEOSK_S3_E_JS14_SK_St12_PlaceholderILi1EEEEEEclEOS3_+0x75 (/home/bevers/src/mesos/worktrees/state-benchmarking/build-alexr/src/.libs/libmesos-1.8.0.so)
	    7fa494cb80e2 _ZN7process11ProcessBase7consumeEONS_13DispatchEventE+0x32 (/home/bevers/src/mesos/worktrees/state-benchmarking/build-alexr/src/.libs/libmesos-1.8.0.so)
	    7fa494ccd332 _ZN7process14ProcessManager6resumeEPNS_11ProcessBaseE+0x492 (/home/bevers/src/mesos/worktrees/state-benchmarking/build-alexr/src/.libs/libmesos-1.8.0.so)
	    7fa494cd3606 _ZNSt6thread11_State_implINS_8_InvokerISt5tupleIJZN7process14ProcessManager12init_threadsEvEUlvE_EEEEE6_M_runEv+0x46 (/home/bevers/src/mesos/worktrees/state-benchmarking/build-alexr/src/.libs/libmesos-1.8.0.so)
	    7fa491e43733 [unknown] (/usr/lib/x86_64-linux-gnu/libstdc++.so.6.0.25)

__auth_handlers__(1)@127.0.1.1:5050 14789 182029.121757:       5000 cycles:uh: 
	    7fa493fe6fc0 _ZN7process15SequenceProcess9completedENS_5OwnedINS_7PromiseI7NothingEEEE+0x0 (/home/bevers/src/mesos/worktrees/state-benchmarking/build-alexr/src/.libs/libmesos-1.8.0.so)
	    7fa494bf7842 _ZN7process8internal3runIN6lambda12CallableOnceIFvRKNS_6FutureI6OptionINS_4http14authentication20AuthenticationResultEEEEEEEJRSA_EEEvOSt6vectorIT_SaISH_EEDpOT0_+0x42 (/home/bevers/src/mesos/worktrees/state-benchmarking/build-alexr/src/.libs/libmesos-1.8.0.so)
	    7fa494bf9bf6 _ZN7process6FutureI6OptionINS_4http14authentication20AuthenticationResultEEE4_setIRKS5_EEbOT_+0x1d6 (/home/bevers/src/mesos/worktrees/state-benchmarking/build-alexr/src/.libs/libmesos-1.8.0.so)
	    7fa494bf893b _ZNO6lambda12CallableOnceIFvRK6OptionIN7process4http14authentication20AuthenticationResultEEEEclES8_+0x4b (/home/bevers/src/mesos/worktrees/state-benchmarking/build-alexr/src/.libs/libmesos-1.8.0.so)
	    7fa494bfb86f _ZN7process7PromiseI6OptionINS_4http14authentication20AuthenticationResultEEE9associateERKNS_6FutureIS5_EE+0x1df (/home/bevers/src/mesos/worktrees/state-benchmarking/build-alexr/src/.libs/libmesos-1.8.0.so)
	    7fa494d009d6 _ZN7process15SequenceProcess8notifiedI6OptionINS_4http14authentication20AuthenticationResultEEEEvNS_5OwnedINS_7PromiseIT_EEEERKSt8functionIFNS_6FutureIS9_EEvEE+0x86 (/home/bevers/src/mesos/worktrees/state-benchmarking/build-alexr/src/.libs/libmesos-1.8.0.so)
	    7fa494ce5af9 _ZNO6lambda12CallableOnceIFvRKN7process6FutureI7NothingEEEE10CallableFnINS_8internal7PartialIZNKS4_5onAnyISt5_BindIFPFvNS1_5OwnedINS1_7PromiseI6OptionINS1_4http14authentication20AuthenticationResultEEEEEERKSt8functionIFNS2_ISK_EEvEEESM_SQ_EEvEES6_OT_NS4_6PreferEEUlOSW_S6_E_JSW_St12_PlaceholderILi1EEEEEEclES6_+0x49 (/home/bevers/src/mesos/worktrees/state-benchmarking/build-alexr/src/.libs/libmesos-1.8.0.so)
	    7fa493a90864 _ZNK7process6FutureI7NothingE5onAnyEON6lambda12CallableOnceIFvRKS2_EEE+0x54 (/home/bevers/src/mesos/worktrees/state-benchmarking/build-alexr/src/.libs/libmesos-1.8.0.so)
	    7fa494cfe87d _ZN7process15SequenceProcess3addI6OptionINS_4http14authentication20AuthenticationResultEEEENS_6FutureIT_EERKSt8functionIFS9_vEE+0x2bd (/home/bevers/src/mesos/worktrees/state-benchmarking/build-alexr/src/.libs/libmesos-1.8.0.so)
	    7fa494d00885 _ZNO6lambda12CallableOnceIFvPN7process11ProcessBaseEEE10CallableFnINS_8internal7PartialIZNS1_8dispatchI6OptionINS1_4http14authentication20AuthenticationResultEENS1_15SequenceProcessERKSt8functionIFNS1_6FutureISE_EEvEESM_EENSH_IT_EERKNS1_3PIDIT0_EEMSQ_FSO_T1_EOT2_EUlSt10unique_ptrINS1_7PromiseISE_EESt14default_deleteIS11_EEOSK_S3_E_JS14_SK_St12_PlaceholderILi1EEEEEEclEOS3_+0x75 (/home/bevers/src/mesos/worktrees/state-benchmarking/build-alexr/src/.libs/libmesos-1.8.0.so)
	    7fa494cb80e2 _ZN7process11ProcessBase7consumeEONS_13DispatchEventE+0x32 (/home/bevers/src/mesos/worktrees/state-benchmarking/build-alexr/src/.libs/libmesos-1.8.0.so)
	    7fa494ccd332 _ZN7process14ProcessManager6resumeEPNS_11ProcessBaseE+0x492 (/home/bevers/src/mesos/worktrees/state-benchmarking/build-alexr/src/.libs/libmesos-1.8.0.so)
	    7fa494cd3606 _ZNSt6thread11_State_implINS_8_InvokerISt5tupleIJZN7process14ProcessManager12init_threadsEvEUlvE_EEEEE6_M_runEv+0x46 (/home/bevers/src/mesos/worktrees/state-benchmarking/build-alexr/src/.libs/libmesos-1.8.0.so)
	    7fa491e43733 [unknown] (/usr/lib/x86_64-linux-gnu/libstdc++.so.6.0.25)

__auth_handlers__(1)@127.0.1.1:5050 14789 182029.121760:       5000 cycles:uh: 
	    55af36d57abf _ZN7process6FutureI7NothingE4Data17clearAllCallbacksEv+0x11f (/home/bevers/src/mesos/worktrees/state-benchmarking/build-alexr/src/.libs/mesos-master)
	    55af36d61e8d _ZN7process6FutureI7NothingE4_setIS1_EEbOT_+0x10d (/home/bevers/src/mesos/worktrees/state-benchmarking/build-alexr/src/.libs/mesos-master)
	    7fa493fe6ff3 _ZN7process15SequenceProcess9completedENS_5OwnedINS_7PromiseI7NothingEEEE+0x33 (/home/bevers/src/mesos/worktrees/state-benchmarking/build-alexr/src/.libs/libmesos-1.8.0.so)
	    7fa494ce64d5 _ZNO6lambda12CallableOnceIFvRKN7process6FutureI6OptionINS1_4http14authentication20AuthenticationResultEEEEEE10CallableFnINS_8internal7PartialIZNKS8_5onAnyISt5_BindIFPFvNS1_5OwnedINS1_7PromiseI7NothingEEEEESM_EEvEESA_OT_NS8_6PreferEEUlOSQ_SA_E_JSQ_St12_PlaceholderILi1EEEEEEclESA_+0x45 (/home/bevers/src/mesos/worktrees/state-benchmarking/build-alexr/src/.libs/libmesos-1.8.0.so)
	    7fa494bf7842 _ZN7process8internal3runIN6lambda12CallableOnceIFvRKNS_6FutureI6OptionINS_4http14authentication20AuthenticationResultEEEEEEEJRSA_EEEvOSt6vectorIT_SaISH_EEDpOT0_+0x42 (/home/bevers/src/mesos/worktrees/state-benchmarking/build-alexr/src/.libs/libmesos-1.8.0.so)
	    7fa494bf9bf6 _ZN7process6FutureI6OptionINS_4http14authentication20AuthenticationResultEEE4_setIRKS5_EEbOT_+0x1d6 (/home/bevers/src/mesos/worktrees/state-benchmarking/build-alexr/src/.libs/libmesos-1.8.0.so)
	    7fa494bf893b _ZNO6lambda12CallableOnceIFvRK6OptionIN7process4http14authentication20AuthenticationResultEEEEclES8_+0x4b (/home/bevers/src/mesos/worktrees/state-benchmarking/build-alexr/src/.libs/libmesos-1.8.0.so)
	    7fa494bfb86f _ZN7process7PromiseI6OptionINS_4http14authentication20AuthenticationResultEEE9associateERKNS_6FutureIS5_EE+0x1df (/home/bevers/src/mesos/worktrees/state-benchmarking/build-alexr/src/.libs/libmesos-1.8.0.so)
	    7fa494d009d6 _ZN7process15SequenceProcess8notifiedI6OptionINS_4http14authentication20AuthenticationResultEEEEvNS_5OwnedINS_7PromiseIT_EEEERKSt8functionIFNS_6FutureIS9_EEvEE+0x86 (/home/bevers/src/mesos/worktrees/state-benchmarking/build-alexr/src/.libs/libmesos-1.8.0.so)
	    7fa494ce5af9 _ZNO6lambda12CallableOnceIFvRKN7process6FutureI7NothingEEEE10CallableFnINS_8internal7PartialIZNKS4_5onAnyISt5_BindIFPFvNS1_5OwnedINS1_7PromiseI6OptionINS1_4http14authentication20AuthenticationResultEEEEEERKSt8functionIFNS2_ISK_EEvEEESM_SQ_EEvEES6_OT_NS4_6PreferEEUlOSW_S6_E_JSW_St12_PlaceholderILi1EEEEEEclES6_+0x49 (/home/bevers/src/mesos/worktrees/state-benchmarking/build-alexr/src/.libs/libmesos-1.8.0.so)
	    7fa493a90864 _ZNK7process6FutureI7NothingE5onAnyEON6lambda12CallableOnceIFvRKS2_EEE+0x54 (/home/bevers/src/mesos/worktrees/state-benchmarking/build-alexr/src/.libs/libmesos-1.8.0.so)
	    7fa494cfe87d _ZN7process15SequenceProcess3addI6OptionINS_4http14authentication20AuthenticationResultEEEENS_6FutureIT_EERKSt8functionIFS9_vEE+0x2bd (/home/bevers/src/mesos/worktrees/state-benchmarking/build-alexr/src/.libs/libmesos-1.8.0.so)
	    7fa494d00885 _ZNO6lambda12CallableOnceIFvPN7process11ProcessBaseEEE10CallableFnINS_8internal7PartialIZNS1_8dispatchI6OptionINS1_4http14authentication20AuthenticationResultEENS1_15SequenceProcessERKSt8functionIFNS1_6FutureISE_EEvEESM_EENSH_IT_EERKNS1_3PIDIT0_EEMSQ_FSO_T1_EOT2_EUlSt10unique_ptrINS1_7PromiseISE_EESt14default_deleteIS11_EEOSK_S3_E_JS14_SK_St12_PlaceholderILi1EEEEEEclEOS3_+0x75 (/home/bevers/src/mesos/worktrees/state-benchmarking/build-alexr/src/.libs/libmesos-1.8.0.so)
	    7fa494cb80e2 _ZN7process11ProcessBase7consumeEONS_13DispatchEventE+0x32 (/home/bevers/src/mesos/worktrees/state-benchmarking/build-alexr/src/.libs/libmesos-1.8.0.so)
	    7fa494ccd332 _ZN7process14ProcessManager6resumeEPNS_11ProcessBaseE+0x492 (/home/bevers/src/mesos/worktrees/state-benchmarking/build-alexr/src/.libs/libmesos-1.8.0.so)
	    7fa494cd3606 _ZNSt6thread11_State_implINS_8_InvokerISt5tupleIJZN7process14ProcessManager12init_threadsEvEUlvE_EEEEE6_M_runEv+0x46 (/home/bevers/src/mesos/worktrees/state-benchmarking/build-alexr/src/.libs/libmesos-1.8.0.so)
	    7fa491e43733 [unknown] (/usr/lib/x86_64-linux-gnu/libstdc++.so.6.0.25)

__auth_handlers__(1)@127.0.1.1:5050 14789 182029.121764:       5000 cycles:uh: 
	    7fa4938fdfd0 _ZNSt12__shared_ptrIN7process6FutureI7NothingE4DataELN9__gnu_cxx12_Lock_policyE2EEC2ERKS7_@plt+0x0 (/home/bevers/src/mesos/worktrees/state-benchmarking/build-alexr/src/.libs/libmesos-1.8.0.so)
	    7fa494d00885 _ZNO6lambda12CallableOnceIFvPN7process11ProcessBaseEEE10CallableFnINS_8internal7PartialIZNS1_8dispatchI6OptionINS1_4http14authentication20AuthenticationResultEENS1_15SequenceProcessERKSt8functionIFNS1_6FutureISE_EEvEESM_EENSH_IT_EERKNS1_3PIDIT0_EEMSQ_FSO_T1_EOT2_EUlSt10unique_ptrINS1_7PromiseISE_EESt14default_deleteIS11_EEOSK_S3_E_JS14_SK_St12_PlaceholderILi1EEEEEEclEOS3_+0x75 (/home/bevers/src/mesos/worktrees/state-benchmarking/build-alexr/src/.libs/libmesos-1.8.0.so)
	    7fa494cb80e2 _ZN7process11ProcessBase7consumeEONS_13DispatchEventE+0x32 (/home/bevers/src/mesos/worktrees/state-benchmarking/build-alexr/src/.libs/libmesos-1.8.0.so)
	    7fa494ccd332 _ZN7process14ProcessManager6resumeEPNS_11ProcessBaseE+0x492 (/home/bevers/src/mesos/worktrees/state-benchmarking/build-alexr/src/.libs/libmesos-1.8.0.so)
	    7fa494cd3606 _ZNSt6thread11_State_implINS_8_InvokerISt5tupleIJZN7process14ProcessManager12init_threadsEvEUlvE_EEEEE6_M_runEv+0x46 (/home/bevers/src/mesos/worktrees/state-benchmarking/build-alexr/src/.libs/libmesos-1.8.0.so)
	    7fa491e43733 [unknown] (/usr/lib/x86_64-linux-gnu/libstdc++.so.6.0.25)

__auth_handlers__(1)@127.0.1.1:5050 14789 182029.121784:       5000 cycles:uh: 
	    7fa495d47e4b _dl_fixup+0x5b (/lib/x86_64-linux-gnu/ld-2.27.so)
	    7fa494d00885 _ZNO6lambda12CallableOnceIFvPN7process11ProcessBaseEEE10CallableFnINS_8internal7PartialIZNS1_8dispatchI6OptionINS1_4http14authentication20AuthenticationResultEENS1_15SequenceProcessERKSt8functionIFNS1_6FutureISE_EEvEESM_EENSH_IT_EERKNS1_3PIDIT0_EEMSQ_FSO_T1_EOT2_EUlSt10unique_ptrINS1_7PromiseISE_EESt14default_deleteIS11_EEOSK_S3_E_JS14_SK_St12_PlaceholderILi1EEEEEEclEOS3_+0x75 (/home/bevers/src/mesos/worktrees/state-benchmarking/build-alexr/src/.libs/libmesos-1.8.0.so)
	    7fa494cb80e2 _ZN7process11ProcessBase7consumeEONS_13DispatchEventE+0x32 (/home/bevers/src/mesos/worktrees/state-benchmarking/build-alexr/src/.libs/libmesos-1.8.0.so)
	    7fa494ccd332 _ZN7process14ProcessManager6resumeEPNS_11ProcessBaseE+0x492 (/home/bevers/src/mesos/worktrees/state-benchmarking/build-alexr/src/.libs/libmesos-1.8.0.so)
	    7fa494cd3606 _ZNSt6thread11_State_implINS_8_InvokerISt5tupleIJZN7process14ProcessManager12init_threadsEvEUlvE_EEEEE6_M_runEv+0x46 (/home/bevers/src/mesos/worktrees/state-benchmarking/build-alexr/src/.libs/libmesos-1.8.0.so)
	    7fa491e43733 [unknown] (/usr/lib/x86_64-linux-gnu/libstdc++.so.6.0.25)

__auth_handlers__(1)@127.0.1.1:5050 14789 182029.121787:       5000 cycles:uh: 
	    55af36d578ae _ZNSt15_Sp_counted_ptrIPN7process6FutureI7NothingE4DataELN9__gnu_cxx12_Lock_policyE2EE10_M_disposeEv+0xee (/home/bevers/src/mesos/worktrees/state-benchmarking/build-alexr/src/.libs/mesos-master)
	    55af36d549d6 _ZNSt16_Sp_counted_baseILN9__gnu_cxx12_Lock_policyE2EE10_M_releaseEv+0x56 (/home/bevers/src/mesos/worktrees/state-benchmarking/build-alexr/src/.libs/mesos-master)
	    7fa494cfea7e _ZN7process15SequenceProcess3addI6OptionINS_4http14authentication20AuthenticationResultEEEENS_6FutureIT_EERKSt8functionIFS9_vEE+0x4be (/home/bevers/src/mesos/worktrees/state-benchmarking/build-alexr/src/.libs/libmesos-1.8.0.so)
	    7fa494d00885 _ZNO6lambda12CallableOnceIFvPN7process11ProcessBaseEEE10CallableFnINS_8internal7PartialIZNS1_8dispatchI6OptionINS1_4http14authentication20AuthenticationResultEENS1_15SequenceProcessERKSt8functionIFNS1_6FutureISE_EEvEESM_EENSH_IT_EERKNS1_3PIDIT0_EEMSQ_FSO_T1_EOT2_EUlSt10unique_ptrINS1_7PromiseISE_EESt14default_deleteIS11_EEOSK_S3_E_JS14_SK_St12_PlaceholderILi1EEEEEEclEOS3_+0x75 (/home/bevers/src/mesos/worktrees/state-benchmarking/build-alexr/src/.libs/libmesos-1.8.0.so)
	    7fa494cb80e2 _ZN7process11ProcessBase7consumeEONS_13DispatchEventE+0x32 (/home/bevers/src/mesos/worktrees/state-benchmarking/build-alexr/src/.libs/libmesos-1.8.0.so)
	    7fa494ccd332 _ZN7process14ProcessManager6resumeEPNS_11ProcessBaseE+0x492 (/home/bevers/src/mesos/worktrees/state-benchmarking/build-alexr/src/.libs/libmesos-1.8.0.so)
	    7fa494cd3606 _ZNSt6thread11_State_implINS_8_InvokerISt5tupleIJZN7process14ProcessManager12init_threadsEvEUlvE_EEEEE6_M_runEv+0x46 (/home/bevers/src/mesos/worktrees/state-benchmarking/build-alexr/src/.libs/libmesos-1.8.0.so)
	    7fa491e43733 [unknown] (/usr/lib/x86_64-linux-gnu/libstdc++.so.6.0.25)

master@127.0.1.1:5050 14784 182029.123450:       5000 cycles:uh: 
	    7fa49394abca _ZN7process6FutureIbEC2EOb+0x11a (/home/bevers/src/mesos/worktrees/state-benchmarking/build-alexr/src/.libs/libmesos-1.8.0.so)
	    7fa494cca81b _ZZN7process11ProcessBase8_consumeERKNS0_12HttpEndpointERKNSt7__cxx1112basic_stringIcSt11char_traitsIcESaIcEEERKNS_5OwnedINS_4http7RequestEEEENKUlRK6OptionINSD_14authentication20AuthenticationResultEEE0_clESN_+0x18b (/home/bevers/src/mesos/worktrees/state-benchmarking/build-alexr/src/.libs/libmesos-1.8.0.so)
	    7fa494ccb68b _ZNO6lambda12CallableOnceIFN7process6FutureINS1_4http8ResponseEEEvEE10CallableFnINS_8internal7PartialIZNS1_11ProcessBase8_consumeERKNSB_12HttpEndpointERKNSt7__cxx1112basic_stringIcSt11char_traitsIcESaIcEEERKNS1_5OwnedINS3_7RequestEEEEUlRK6OptionINS3_14authentication20AuthenticationResultEEE0_JSV_EEEEclEv+0x2b (/home/bevers/src/mesos/worktrees/state-benchmarking/build-alexr/src/.libs/libmesos-1.8.0.so)
	    7fa4939e8599 _ZNO6lambda12CallableOnceIFvPN7process11ProcessBaseEEE10CallableFnINS_8internal7PartialIZNS1_8internal8DispatchINS1_6FutureINS1_4http8ResponseEEEEclINS0_IFSE_vEEEEESE_RKNS1_4UPIDEOT_EUlSt10unique_ptrINS1_7PromiseISD_EESt14default_deleteISQ_EEOSI_S3_E_JST_SI_St12_PlaceholderILi1EEEEEEclEOS3_+0xc9 (/home/bevers/src/mesos/worktrees/state-benchmarking/build-alexr/src/.libs/libmesos-1.8.0.so)
	    7fa494cb80e2 _ZN7process11ProcessBase7consumeEONS_13DispatchEventE+0x32 (/home/bevers/src/mesos/worktrees/state-benchmarking/build-alexr/src/.libs/libmesos-1.8.0.so)
	    7fa494ccd332 _ZN7process14ProcessManager6resumeEPNS_11ProcessBaseE+0x492 (/home/bevers/src/mesos/worktrees/state-benchmarking/build-alexr/src/.libs/libmesos-1.8.0.so)
	    7fa494cd3606 _ZNSt6thread11_State_implINS_8_InvokerISt5tupleIJZN7process14ProcessManager12init_threadsEvEUlvE_EEEEE6_M_runEv+0x46 (/home/bevers/src/mesos/worktrees/state-benchmarking/build-alexr/src/.libs/libmesos-1.8.0.so)
	    7fa491e43733 [unknown] (/usr/lib/x86_64-linux-gnu/libstdc++.so.6.0.25)

master@127.0.1.1:5050 14784 182029.123459:       5000 cycles:uh: 
	    7fa4939425b0 _ZNSt12__shared_ptrIN7process6FutureIbE4DataELN9__gnu_cxx12_Lock_policyE2EEC2ERKS6_+0x0 (/home/bevers/src/mesos/worktrees/state-benchmarking/build-alexr/src/.libs/libmesos-1.8.0.so)
	    7fa49394abf3 _ZN7process6FutureIbEC2EOb+0x143 (/home/bevers/src/mesos/worktrees/state-benchmarking/build-alexr/src/.libs/libmesos-1.8.0.so)
	    7fa494cca81b _ZZN7process11ProcessBase8_consumeERKNS0_12HttpEndpointERKNSt7__cxx1112basic_stringIcSt11char_traitsIcESaIcEEERKNS_5OwnedINS_4http7RequestEEEENKUlRK6OptionINSD_14authentication20AuthenticationResultEEE0_clESN_+0x18b (/home/bevers/src/mesos/worktrees/state-benchmarking/build-alexr/src/.libs/libmesos-1.8.0.so)
	    7fa494ccb68b _ZNO6lambda12CallableOnceIFN7process6FutureINS1_4http8ResponseEEEvEE10CallableFnINS_8internal7PartialIZNS1_11ProcessBase8_consumeERKNSB_12HttpEndpointERKNSt7__cxx1112basic_stringIcSt11char_traitsIcESaIcEEERKNS1_5OwnedINS3_7RequestEEEEUlRK6OptionINS3_14authentication20AuthenticationResultEEE0_JSV_EEEEclEv+0x2b (/home/bevers/src/mesos/worktrees/state-benchmarking/build-alexr/src/.libs/libmesos-1.8.0.so)
	    7fa4939e8599 _ZNO6lambda12CallableOnceIFvPN7process11ProcessBaseEEE10CallableFnINS_8internal7PartialIZNS1_8internal8DispatchINS1_6FutureINS1_4http8ResponseEEEEclINS0_IFSE_vEEEEESE_RKNS1_4UPIDEOT_EUlSt10unique_ptrINS1_7PromiseISD_EESt14default_deleteISQ_EEOSI_S3_E_JST_SI_St12_PlaceholderILi1EEEEEEclEOS3_+0xc9 (/home/bevers/src/mesos/worktrees/state-benchmarking/build-alexr/src/.libs/libmesos-1.8.0.so)
	    7fa494cb80e2 _ZN7process11ProcessBase7consumeEONS_13DispatchEventE+0x32 (/home/bevers/src/mesos/worktrees/state-benchmarking/build-alexr/src/.libs/libmesos-1.8.0.so)
	    7fa494ccd332 _ZN7process14ProcessManager6resumeEPNS_11ProcessBaseE+0x492 (/home/bevers/src/mesos/worktrees/state-benchmarking/build-alexr/src/.libs/libmesos-1.8.0.so)
	    7fa494cd3606 _ZNSt6thread11_State_implINS_8_InvokerISt5tupleIJZN7process14ProcessManager12init_threadsEvEUlvE_EEEEE6_M_runEv+0x46 (/home/bevers/src/mesos/worktrees/state-benchmarking/build-alexr/src/.libs/libmesos-1.8.0.so)
	    7fa491e43733 [unknown] (/usr/lib/x86_64-linux-gnu/libstdc++.so.6.0.25)

master@127.0.1.1:5050 14784 182029.123462:       5000 cycles:uh: 
	    7fa4944e1e70 _ZNK7process5OwnedINS_8SequenceEEptEv+0x0 (/home/bevers/src/mesos/worktrees/state-benchmarking/build-alexr/src/.libs/libmesos-1.8.0.so)
	    7fa494ccb68b _ZNO6lambda12CallableOnceIFN7process6FutureINS1_4http8ResponseEEEvEE10CallableFnINS_8internal7PartialIZNS1_11ProcessBase8_consumeERKNSB_12HttpEndpointERKNSt7__cxx1112basic_stringIcSt11char_traitsIcESaIcEEERKNS1_5OwnedINS3_7RequestEEEEUlRK6OptionINS3_14authentication20AuthenticationResultEEE0_JSV_EEEEclEv+0x2b (/home/bevers/src/mesos/worktrees/state-benchmarking/build-alexr/src/.libs/libmesos-1.8.0.so)
	    7fa4939e8599 _ZNO6lambda12CallableOnceIFvPN7process11ProcessBaseEEE10CallableFnINS_8internal7PartialIZNS1_8internal8DispatchINS1_6FutureINS1_4http8ResponseEEEEclINS0_IFSE_vEEEEESE_RKNS1_4UPIDEOT_EUlSt10unique_ptrINS1_7PromiseISD_EESt14default_deleteISQ_EEOSI_S3_E_JST_SI_St12_PlaceholderILi1EEEEEEclEOS3_+0xc9 (/home/bevers/src/mesos/worktrees/state-benchmarking/build-alexr/src/.libs/libmesos-1.8.0.so)
	    7fa494cb80e2 _ZN7process11ProcessBase7consumeEONS_13DispatchEventE+0x32 (/home/bevers/src/mesos/worktrees/state-benchmarking/build-alexr/src/.libs/libmesos-1.8.0.so)
	    7fa494ccd332 _ZN7process14ProcessManager6resumeEPNS_11ProcessBaseE+0x492 (/home/bevers/src/mesos/worktrees/state-benchmarking/build-alexr/src/.libs/libmesos-1.8.0.so)
	    7fa494cd3606 _ZNSt6thread11_State_implINS_8_InvokerISt5tupleIJZN7process14ProcessManager12init_threadsEvEUlvE_EEEEE6_M_runEv+0x46 (/home/bevers/src/mesos/worktrees/state-benchmarking/build-alexr/src/.libs/libmesos-1.8.0.so)
	    7fa491e43733 [unknown] (/usr/lib/x86_64-linux-gnu/libstdc++.so.6.0.25)

master@127.0.1.1:5050 14784 182029.123466:       5000 cycles:uh: 
	    7fa495d430cd _dl_lookup_symbol_x+0x1d (/lib/x86_64-linux-gnu/ld-2.27.so)
	    7fa494ccb68b _ZNO6lambda12CallableOnceIFN7process6FutureINS1_4http8ResponseEEEvEE10CallableFnINS_8internal7PartialIZNS1_11ProcessBase8_consumeERKNSB_12HttpEndpointERKNSt7__cxx1112basic_stringIcSt11char_traitsIcESaIcEEERKNS1_5OwnedINS3_7RequestEEEEUlRK6OptionINS3_14authentication20AuthenticationResultEEE0_JSV_EEEEclEv+0x2b (/home/bevers/src/mesos/worktrees/state-benchmarking/build-alexr/src/.libs/libmesos-1.8.0.so)
	    7fa4939e8599 _ZNO6lambda12CallableOnceIFvPN7process11ProcessBaseEEE10CallableFnINS_8internal7PartialIZNS1_8internal8DispatchINS1_6FutureINS1_4http8ResponseEEEEclINS0_IFSE_vEEEEESE_RKNS1_4UPIDEOT_EUlSt10unique_ptrINS1_7PromiseISD_EESt14default_deleteISQ_EEOSI_S3_E_JST_SI_St12_PlaceholderILi1EEEEEEclEOS3_+0xc9 (/home/bevers/src/mesos/worktrees/state-benchmarking/build-alexr/src/.libs/libmesos-1.8.0.so)
	    7fa494cb80e2 _ZN7process11ProcessBase7consumeEONS_13DispatchEventE+0x32 (/home/bevers/src/mesos/worktrees/state-benchmarking/build-alexr/src/.libs/libmesos-1.8.0.so)
	    7fa494ccd332 _ZN7process14ProcessManager6resumeEPNS_11ProcessBaseE+0x492 (/home/bevers/src/mesos/worktrees/state-benchmarking/build-alexr/src/.libs/libmesos-1.8.0.so)
	    7fa494cd3606 _ZNSt6thread11_State_implINS_8_InvokerISt5tupleIJZN7process14ProcessManager12init_threadsEvEUlvE_EEEEE6_M_runEv+0x46 (/home/bevers/src/mesos/worktrees/state-benchmarking/build-alexr/src/.libs/libmesos-1.8.0.so)
	    7fa491e43733 [unknown] (/usr/lib/x86_64-linux-gnu/libstdc++.so.6.0.25)

master@127.0.1.1:5050 14784 182029.123469:       5000 cycles:uh: 
	    7fa4938c311b _ZNSt8functionIFN7process6FutureIbEEvEEC1ERKS4_@plt+0xb (/home/bevers/src/mesos/worktrees/state-benchmarking/build-alexr/src/.libs/libmesos-1.8.0.so)
	    7fa494cca8ee _ZZN7process11ProcessBase8_consumeERKNS0_12HttpEndpointERKNSt7__cxx1112basic_stringIcSt11char_traitsIcESaIcEEERKNS_5OwnedINS_4http7RequestEEEENKUlRK6OptionINSD_14authentication20AuthenticationResultEEE0_clESN_+0x25e (/home/bevers/src/mesos/worktrees/state-benchmarking/build-alexr/src/.libs/libmesos-1.8.0.so)
	    7fa494ccb68b _ZNO6lambda12CallableOnceIFN7process6FutureINS1_4http8ResponseEEEvEE10CallableFnINS_8internal7PartialIZNS1_11ProcessBase8_consumeERKNSB_12HttpEndpointERKNSt7__cxx1112basic_stringIcSt11char_traitsIcESaIcEEERKNS1_5OwnedINS3_7RequestEEEEUlRK6OptionINS3_14authentication20AuthenticationResultEEE0_JSV_EEEEclEv+0x2b (/home/bevers/src/mesos/worktrees/state-benchmarking/build-alexr/src/.libs/libmesos-1.8.0.so)
	    7fa4939e8599 _ZNO6lambda12CallableOnceIFvPN7process11ProcessBaseEEE10CallableFnINS_8internal7PartialIZNS1_8internal8DispatchINS1_6FutureINS1_4http8ResponseEEEEclINS0_IFSE_vEEEEESE_RKNS1_4UPIDEOT_EUlSt10unique_ptrINS1_7PromiseISD_EESt14default_deleteISQ_EEOSI_S3_E_JST_SI_St12_PlaceholderILi1EEEEEEclEOS3_+0xc9 (/home/bevers/src/mesos/worktrees/state-benchmarking/build-alexr/src/.libs/libmesos-1.8.0.so)
	    7fa494cb80e2 _ZN7process11ProcessBase7consumeEONS_13DispatchEventE+0x32 (/home/bevers/src/mesos/worktrees/state-benchmarking/build-alexr/src/.libs/libmesos-1.8.0.so)
	    7fa494ccd332 _ZN7process14ProcessManager6resumeEPNS_11ProcessBaseE+0x492 (/home/bevers/src/mesos/worktrees/state-benchmarking/build-alexr/src/.libs/libmesos-1.8.0.so)
	    7fa494cd3606 _ZNSt6thread11_State_implINS_8_InvokerISt5tupleIJZN7process14ProcessManager12init_threadsEvEUlvE_EEEEE6_M_runEv+0x46 (/home/bevers/src/mesos/worktrees/state-benchmarking/build-alexr/src/.libs/libmesos-1.8.0.so)
	    7fa491e43733 [unknown] (/usr/lib/x86_64-linux-gnu/libstdc++.so.6.0.25)

master@127.0.1.1:5050 14784 182029.123472:       5000 cycles:uh: 
	    7fa494cc03ec _ZN7process14ProcessManager3useERKNS_4UPIDE+0x6c (/home/bevers/src/mesos/worktrees/state-benchmarking/build-alexr/src/.libs/libmesos-1.8.0.so)
	    7fa494cc07d7 _ZN7process14ProcessManager7deliverERKNS_4UPIDEPNS_5EventEPNS_11ProcessBaseE+0x47 (/home/bevers/src/mesos/worktrees/state-benchmarking/build-alexr/src/.libs/libmesos-1.8.0.so)
	    7fa494cc92a7 _ZN7process8internal8dispatchERKNS_4UPIDESt10unique_ptrIN6lambda12CallableOnceIFvPNS_11ProcessBaseEEEESt14default_deleteISA_EERK6OptionIPKSt9type_infoE+0x267 (/home/bevers/src/mesos/worktrees/state-benchmarking/build-alexr/src/.libs/libmesos-1.8.0.so)
	    7fa494d06101 _ZN7process8dispatchIbNS_15SequenceProcessERKSt8functionIFNS_6FutureIbEEvEES8_EENS3_IT_EERKNS_3PIDIT0_EEMSC_FSA_T1_EOT2_+0x121 (/home/bevers/src/mesos/worktrees/state-benchmarking/build-alexr/src/.libs/libmesos-1.8.0.so)
	    7fa494cca8ee _ZZN7process11ProcessBase8_consumeERKNS0_12HttpEndpointERKNSt7__cxx1112basic_stringIcSt11char_traitsIcESaIcEEERKNS_5OwnedINS_4http7RequestEEEENKUlRK6OptionINSD_14authentication20AuthenticationResultEEE0_clESN_+0x25e (/home/bevers/src/mesos/worktrees/state-benchmarking/build-alexr/src/.libs/libmesos-1.8.0.so)
	    7fa494ccb68b _ZNO6lambda12CallableOnceIFN7process6FutureINS1_4http8ResponseEEEvEE10CallableFnINS_8internal7PartialIZNS1_11ProcessBase8_consumeERKNSB_12HttpEndpointERKNSt7__cxx1112basic_stringIcSt11char_traitsIcESaIcEEERKNS1_5OwnedINS3_7RequestEEEEUlRK6OptionINS3_14authentication20AuthenticationResultEEE0_JSV_EEEEclEv+0x2b (/home/bevers/src/mesos/worktrees/state-benchmarking/build-alexr/src/.libs/libmesos-1.8.0.so)
	    7fa4939e8599 _ZNO6lambda12CallableOnceIFvPN7process11ProcessBaseEEE10CallableFnINS_8internal7PartialIZNS1_8internal8DispatchINS1_6FutureINS1_4http8ResponseEEEEclINS0_IFSE_vEEEEESE_RKNS1_4UPIDEOT_EUlSt10unique_ptrINS1_7PromiseISD_EESt14default_deleteISQ_EEOSI_S3_E_JST_SI_St12_PlaceholderILi1EEEEEEclEOS3_+0xc9 (/home/bevers/src/mesos/worktrees/state-benchmarking/build-alexr/src/.libs/libmesos-1.8.0.so)
	    7fa494cb80e2 _ZN7process11ProcessBase7consumeEONS_13DispatchEventE+0x32 (/home/bevers/src/mesos/worktrees/state-benchmarking/build-alexr/src/.libs/libmesos-1.8.0.so)
	    7fa494ccd332 _ZN7process14ProcessManager6resumeEPNS_11ProcessBaseE+0x492 (/home/bevers/src/mesos/worktrees/state-benchmarking/build-alexr/src/.libs/libmesos-1.8.0.so)
	    7fa494cd3606 _ZNSt6thread11_State_implINS_8_InvokerISt5tupleIJZN7process14ProcessManager12init_threadsEvEUlvE_EEEEE6_M_runEv+0x46 (/home/bevers/src/mesos/worktrees/state-benchmarking/build-alexr/src/.libs/libmesos-1.8.0.so)
	    7fa491e43733 [unknown] (/usr/lib/x86_64-linux-gnu/libstdc++.so.6.0.25)

master@127.0.1.1:5050 14784 182029.123477:       5000 cycles:uh: 
	    7fa494cba814 _ZNSt14_Function_base13_Base_managerIZZN7process11ProcessBase8_consumeERKNS2_12HttpEndpointERKNSt7__cxx1112basic_stringIcSt11char_traitsIcESaIcEEERKNS1_5OwnedINS1_4http7RequestEEEENKUlRK6OptionINSF_14authentication20AuthenticationResultEEE0_clESP_EUlvE_E10_M_managerERSt9_Any_dataRKST_St18_Manager_operation+0x14 (/home/bevers/src/mesos/worktrees/state-benchmarking/build-alexr/src/.libs/libmesos-1.8.0.so)
	    7fa494cca963 _ZZN7process11ProcessBase8_consumeERKNS0_12HttpEndpointERKNSt7__cxx1112basic_stringIcSt11char_traitsIcESaIcEEERKNS_5OwnedINS_4http7RequestEEEENKUlRK6OptionINSD_14authentication20AuthenticationResultEEE0_clESN_+0x2d3 (/home/bevers/src/mesos/worktrees/state-benchmarking/build-alexr/src/.libs/libmesos-1.8.0.so)
	    7fa494ccb68b _ZNO6lambda12CallableOnceIFN7process6FutureINS1_4http8ResponseEEEvEE10CallableFnINS_8internal7PartialIZNS1_11ProcessBase8_consumeERKNSB_12HttpEndpointERKNSt7__cxx1112basic_stringIcSt11char_traitsIcESaIcEEERKNS1_5OwnedINS3_7RequestEEEEUlRK6OptionINS3_14authentication20AuthenticationResultEEE0_JSV_EEEEclEv+0x2b (/home/bevers/src/mesos/worktrees/state-benchmarking/build-alexr/src/.libs/libmesos-1.8.0.so)
	    7fa4939e8599 _ZNO6lambda12CallableOnceIFvPN7process11ProcessBaseEEE10CallableFnINS_8internal7PartialIZNS1_8internal8DispatchINS1_6FutureINS1_4http8ResponseEEEEclINS0_IFSE_vEEEEESE_RKNS1_4UPIDEOT_EUlSt10unique_ptrINS1_7PromiseISD_EESt14default_deleteISQ_EEOSI_S3_E_JST_SI_St12_PlaceholderILi1EEEEEEclEOS3_+0xc9 (/home/bevers/src/mesos/worktrees/state-benchmarking/build-alexr/src/.libs/libmesos-1.8.0.so)
	    7fa494cb80e2 _ZN7process11ProcessBase7consumeEONS_13DispatchEventE+0x32 (/home/bevers/src/mesos/worktrees/state-benchmarking/build-alexr/src/.libs/libmesos-1.8.0.so)
	    7fa494ccd332 _ZN7process14ProcessManager6resumeEPNS_11ProcessBaseE+0x492 (/home/bevers/src/mesos/worktrees/state-benchmarking/build-alexr/src/.libs/libmesos-1.8.0.so)
	    7fa494cd3606 _ZNSt6thread11_State_implINS_8_InvokerISt5tupleIJZN7process14ProcessManager12init_threadsEvEUlvE_EEEEE6_M_runEv+0x46 (/home/bevers/src/mesos/worktrees/state-benchmarking/build-alexr/src/.libs/libmesos-1.8.0.so)
	    7fa491e43733 [unknown] (/usr/lib/x86_64-linux-gnu/libstdc++.so.6.0.25)

master@127.0.1.1:5050 14784 182029.123480:       5000 cycles:uh: 
	    7fa4938b3910 _ZN6OptionISt8functionIFN7process6FutureINS1_4http8ResponseEEERKNS3_7RequestEEEED1Ev@plt+0x0 (/home/bevers/src/mesos/worktrees/state-benchmarking/build-alexr/src/.libs/libmesos-1.8.0.so)
	    7fa494ccb68b _ZNO6lambda12CallableOnceIFN7process6FutureINS1_4http8ResponseEEEvEE10CallableFnINS_8internal7PartialIZNS1_11ProcessBase8_consumeERKNSB_12HttpEndpointERKNSt7__cxx1112basic_stringIcSt11char_traitsIcESaIcEEERKNS1_5OwnedINS3_7RequestEEEEUlRK6OptionINS3_14authentication20AuthenticationResultEEE0_JSV_EEEEclEv+0x2b (/home/bevers/src/mesos/worktrees/state-benchmarking/build-alexr/src/.libs/libmesos-1.8.0.so)
	    7fa4939e8599 _ZNO6lambda12CallableOnceIFvPN7process11ProcessBaseEEE10CallableFnINS_8internal7PartialIZNS1_8internal8DispatchINS1_6FutureINS1_4http8ResponseEEEEclINS0_IFSE_vEEEEESE_RKNS1_4UPIDEOT_EUlSt10unique_ptrINS1_7PromiseISD_EESt14default_deleteISQ_EEOSI_S3_E_JST_SI_St12_PlaceholderILi1EEEEEEclEOS3_+0xc9 (/home/bevers/src/mesos/worktrees/state-benchmarking/build-alexr/src/.libs/libmesos-1.8.0.so)
	    7fa494cb80e2 _ZN7process11ProcessBase7consumeEONS_13DispatchEventE+0x32 (/home/bevers/src/mesos/worktrees/state-benchmarking/build-alexr/src/.libs/libmesos-1.8.0.so)
	    7fa494ccd332 _ZN7process14ProcessManager6resumeEPNS_11ProcessBaseE+0x492 (/home/bevers/src/mesos/worktrees/state-benchmarking/build-alexr/src/.libs/libmesos-1.8.0.so)
	    7fa494cd3606 _ZNSt6thread11_State_implINS_8_InvokerISt5tupleIJZN7process14ProcessManager12init_threadsEvEUlvE_EEEEE6_M_runEv+0x46 (/home/bevers/src/mesos/worktrees/state-benchmarking/build-alexr/src/.libs/libmesos-1.8.0.so)
	    7fa491e43733 [unknown] (/usr/lib/x86_64-linux-gnu/libstdc++.so.6.0.25)

master@127.0.1.1:5050 14784 182029.123483:       5000 cycles:uh: 
	    7fa4939da310 _ZN7process6FutureINS_4http8ResponseEEC2Ev+0x0 (/home/bevers/src/mesos/worktrees/state-benchmarking/build-alexr/src/.libs/libmesos-1.8.0.so)
	    7fa494ccabd9 _ZZN7process11ProcessBase8_consumeERKNS0_12HttpEndpointERKNSt7__cxx1112basic_stringIcSt11char_traitsIcESaIcEEERKNS_5OwnedINS_4http7RequestEEEENKUlRK6OptionINSD_14authentication20AuthenticationResultEEE0_clESN_+0x549 (/home/bevers/src/mesos/worktrees/state-benchmarking/build-alexr/src/.libs/libmesos-1.8.0.so)
	    7fa494ccb68b _ZNO6lambda12CallableOnceIFN7process6FutureINS1_4http8ResponseEEEvEE10CallableFnINS_8internal7PartialIZNS1_11ProcessBase8_consumeERKNSB_12HttpEndpointERKNSt7__cxx1112basic_stringIcSt11char_traitsIcESaIcEEERKNS1_5OwnedINS3_7RequestEEEEUlRK6OptionINS3_14authentication20AuthenticationResultEEE0_JSV_EEEEclEv+0x2b (/home/bevers/src/mesos/worktrees/state-benchmarking/build-alexr/src/.libs/libmesos-1.8.0.so)
	    7fa4939e8599 _ZNO6lambda12CallableOnceIFvPN7process11ProcessBaseEEE10CallableFnINS_8internal7PartialIZNS1_8internal8DispatchINS1_6FutureINS1_4http8ResponseEEEEclINS0_IFSE_vEEEEESE_RKNS1_4UPIDEOT_EUlSt10unique_ptrINS1_7PromiseISD_EESt14default_deleteISQ_EEOSI_S3_E_JST_SI_St12_PlaceholderILi1EEEEEEclEOS3_+0xc9 (/home/bevers/src/mesos/worktrees/state-benchmarking/build-alexr/src/.libs/libmesos-1.8.0.so)
	    7fa494cb80e2 _ZN7process11ProcessBase7consumeEONS_13DispatchEventE+0x32 (/home/bevers/src/mesos/worktrees/state-benchmarking/build-alexr/src/.libs/libmesos-1.8.0.so)
	    7fa494ccd332 _ZN7process14ProcessManager6resumeEPNS_11ProcessBaseE+0x492 (/home/bevers/src/mesos/worktrees/state-benchmarking/build-alexr/src/.libs/libmesos-1.8.0.so)
	    7fa494cd3606 _ZNSt6thread11_State_implINS_8_InvokerISt5tupleIJZN7process14ProcessManager12init_threadsEvEUlvE_EEEEE6_M_runEv+0x46 (/home/bevers/src/mesos/worktrees/state-benchmarking/build-alexr/src/.libs/libmesos-1.8.0.so)
	    7fa491e43733 [unknown] (/usr/lib/x86_64-linux-gnu/libstdc++.so.6.0.25)

master@127.0.1.1:5050 14784 182029.123499:       5000 cycles:uh: 
	    7fa493af6210 _ZNK7process6FutureIbE11onAbandonedEON6lambda12CallableOnceIFvvEEE+0x0 (/home/bevers/src/mesos/worktrees/state-benchmarking/build-alexr/src/.libs/libmesos-1.8.0.so)
	    7fa494ccabd9 _ZZN7process11ProcessBase8_consumeERKNS0_12HttpEndpointERKNSt7__cxx1112basic_stringIcSt11char_traitsIcESaIcEEERKNS_5OwnedINS_4http7RequestEEEENKUlRK6OptionINSD_14authentication20AuthenticationResultEEE0_clESN_+0x549 (/home/bevers/src/mesos/worktrees/state-benchmarking/build-alexr/src/.libs/libmesos-1.8.0.so)
	    7fa494ccb68b _ZNO6lambda12CallableOnceIFN7process6FutureINS1_4http8ResponseEEEvEE10CallableFnINS_8internal7PartialIZNS1_11ProcessBase8_consumeERKNSB_12HttpEndpointERKNSt7__cxx1112basic_stringIcSt11char_traitsIcESaIcEEERKNS1_5OwnedINS3_7RequestEEEEUlRK6OptionINS3_14authentication20AuthenticationResultEEE0_JSV_EEEEclEv+0x2b (/home/bevers/src/mesos/worktrees/state-benchmarking/build-alexr/src/.libs/libmesos-1.8.0.so)
	    7fa4939e8599 _ZNO6lambda12CallableOnceIFvPN7process11ProcessBaseEEE10CallableFnINS_8internal7PartialIZNS1_8internal8DispatchINS1_6FutureINS1_4http8ResponseEEEEclINS0_IFSE_vEEEEESE_RKNS1_4UPIDEOT_EUlSt10unique_ptrINS1_7PromiseISD_EESt14default_deleteISQ_EEOSI_S3_E_JST_SI_St12_PlaceholderILi1EEEEEEclEOS3_+0xc9 (/home/bevers/src/mesos/worktrees/state-benchmarking/build-alexr/src/.libs/libmesos-1.8.0.so)
	    7fa494cb80e2 _ZN7process11ProcessBase7consumeEONS_13DispatchEventE+0x32 (/home/bevers/src/mesos/worktrees/state-benchmarking/build-alexr/src/.libs/libmesos-1.8.0.so)
	    7fa494ccd332 _ZN7process14ProcessManager6resumeEPNS_11ProcessBaseE+0x492 (/home/bevers/src/mesos/worktrees/state-benchmarking/build-alexr/src/.libs/libmesos-1.8.0.so)
	    7fa494cd3606 _ZNSt6thread11_State_implINS_8_InvokerISt5tupleIJZN7process14ProcessManager12init_threadsEvEUlvE_EEEEE6_M_runEv+0x46 (/home/bevers/src/mesos/worktrees/state-benchmarking/build-alexr/src/.libs/libmesos-1.8.0.so)
	    7fa491e43733 [unknown] (/usr/lib/x86_64-linux-gnu/libstdc++.so.6.0.25)

master@127.0.1.1:5050 14784 182029.123503:       5000 cycles:uh: 
	    7fa4938f18c0 _ZNSt6vectorIN6lambda12CallableOnceIFvRKN7process4http8ResponseEEEESaIS8_EE17_M_realloc_insertIJS8_EEEvN9__gnu_cxx17__normal_iteratorIPS8_SA_EEDpOT_@plt+0x0 (/home/bevers/src/mesos/worktrees/state-benchmarking/build-alexr/src/.libs/libmesos-1.8.0.so)
	    7fa4939d6e2c _ZN7process7PromiseINS_4http8ResponseEE9associateERKNS_6FutureIS2_EE+0x18c (/home/bevers/src/mesos/worktrees/state-benchmarking/build-alexr/src/.libs/libmesos-1.8.0.so)
	    7fa4939e8558 _ZNO6lambda12CallableOnceIFvPN7process11ProcessBaseEEE10CallableFnINS_8internal7PartialIZNS1_8internal8DispatchINS1_6FutureINS1_4http8ResponseEEEEclINS0_IFSE_vEEEEESE_RKNS1_4UPIDEOT_EUlSt10unique_ptrINS1_7PromiseISD_EESt14default_deleteISQ_EEOSI_S3_E_JST_SI_St12_PlaceholderILi1EEEEEEclEOS3_+0x88 (/home/bevers/src/mesos/worktrees/state-benchmarking/build-alexr/src/.libs/libmesos-1.8.0.so)
	    7fa494cb80e2 _ZN7process11ProcessBase7consumeEONS_13DispatchEventE+0x32 (/home/bevers/src/mesos/worktrees/state-benchmarking/build-alexr/src/.libs/libmesos-1.8.0.so)
	    7fa494ccd332 _ZN7process14ProcessManager6resumeEPNS_11ProcessBaseE+0x492 (/home/bevers/src/mesos/worktrees/state-benchmarking/build-alexr/src/.libs/libmesos-1.8.0.so)
	    7fa494cd3606 _ZNSt6thread11_State_implINS_8_InvokerISt5tupleIJZN7process14ProcessManager12init_threadsEvEUlvE_EEEEE6_M_runEv+0x46 (/home/bevers/src/mesos/worktrees/state-benchmarking/build-alexr/src/.libs/libmesos-1.8.0.so)
	    7fa491e43733 [unknown] (/usr/lib/x86_64-linux-gnu/libstdc++.so.6.0.25)

master@127.0.1.1:5050 14784 182029.123506:       5000 cycles:uh: 
	    7fa494cb80e6 _ZN7process11ProcessBase7consumeEONS_13DispatchEventE+0x36 (/home/bevers/src/mesos/worktrees/state-benchmarking/build-alexr/src/.libs/libmesos-1.8.0.so)
	    7fa494ccd332 _ZN7process14ProcessManager6resumeEPNS_11ProcessBaseE+0x492 (/home/bevers/src/mesos/worktrees/state-benchmarking/build-alexr/src/.libs/libmesos-1.8.0.so)
	    7fa494cd3606 _ZNSt6thread11_State_implINS_8_InvokerISt5tupleIJZN7process14ProcessManager12init_threadsEvEUlvE_EEEEE6_M_runEv+0x46 (/home/bevers/src/mesos/worktrees/state-benchmarking/build-alexr/src/.libs/libmesos-1.8.0.so)
	    7fa491e43733 [unknown] (/usr/lib/x86_64-linux-gnu/libstdc++.so.6.0.25)

master@127.0.1.1:5050 14784 182029.123509:       5000 cycles:uh: 
	    7fa494c9dbe0 _ZN7processlsERSoRKNS_4UPIDE+0x0 (/home/bevers/src/mesos/worktrees/state-benchmarking/build-alexr/src/.libs/libmesos-1.8.0.so)
	    7fa494c9a8bf _ZN7process16LibprocessTracer7disableEv+0x6f (/home/bevers/src/mesos/worktrees/state-benchmarking/build-alexr/src/.libs/libmesos-1.8.0.so)
	    7fa494ccd344 _ZN7process14ProcessManager6resumeEPNS_11ProcessBaseE+0x4a4 (/home/bevers/src/mesos/worktrees/state-benchmarking/build-alexr/src/.libs/libmesos-1.8.0.so)
	    7fa494cd3606 _ZNSt6thread11_State_implINS_8_InvokerISt5tupleIJZN7process14ProcessManager12init_threadsEvEUlvE_EEEEE6_M_runEv+0x46 (/home/bevers/src/mesos/worktrees/state-benchmarking/build-alexr/src/.libs/libmesos-1.8.0.so)
	    7fa491e43733 [unknown] (/usr/lib/x86_64-linux-gnu/libstdc++.so.6.0.25)

master@127.0.1.1:5050 14784 182029.123512:       5000 cycles:uh: 
	    7fa4917cd7b0 _itoa_word+0x0 (/lib/x86_64-linux-gnu/libc-2.27.so)
	    7fa4917f66d1 _IO_vsprintf+0x81 (/lib/x86_64-linux-gnu/libc-2.27.so)
	      3000000002 [unknown] ([unknown])

master@127.0.1.1:5050 14784 182029.123515:       5000 cycles:uh: 
	    7fa491e90e20 _ZNKSt7num_putIcSt19ostreambuf_iteratorIcSt11char_traitsIcEEE6do_putES3_RSt8ios_basecm+0x0 (/usr/lib/x86_64-linux-gnu/libstdc++.so.6.0.25)
	               6 [unknown] ([unknown])
	    7fa491ea0de0 _ZTv0_n24_NSt7__cxx1119basic_ostringstreamIcSt11char_traitsIcESaIcEED0Ev+0x0 (/usr/lib/x86_64-linux-gnu/libstdc++.so.6.0.25)
	2d058b48e8588b48 [unknown] ([unknown])

master@127.0.1.1:5050 14784 182029.123517:       5000 cycles:uh: 
	    7fa4917fd293 _IO_putc+0x63 (/lib/x86_64-linux-gnu/libc-2.27.so)
	    55af36f760a0 [unknown] ([unknown])
	8000000000000000 [unknown] ([unknown])

master@127.0.1.1:5050 14784 182029.123634:       5000 cycles:uh: 
	    7fa494c9a9c6 _ZN7process16LibprocessTracer7disableEv+0x176 (/home/bevers/src/mesos/worktrees/state-benchmarking/build-alexr/src/.libs/libmesos-1.8.0.so)
	    7fa494ccd344 _ZN7process14ProcessManager6resumeEPNS_11ProcessBaseE+0x4a4 (/home/bevers/src/mesos/worktrees/state-benchmarking/build-alexr/src/.libs/libmesos-1.8.0.so)
	    7fa494cd3606 _ZNSt6thread11_State_implINS_8_InvokerISt5tupleIJZN7process14ProcessManager12init_threadsEvEUlvE_EEEEE6_M_runEv+0x46 (/home/bevers/src/mesos/worktrees/state-benchmarking/build-alexr/src/.libs/libmesos-1.8.0.so)
	    7fa491e43733 [unknown] (/usr/lib/x86_64-linux-gnu/libstdc++.so.6.0.25)

__auth_handlers__(1)@127.0.1.1:5050 14786 182029.123580:       5000 cycles:uh: 
	    7fa49180c0c6 malloc+0x56 (/lib/x86_64-linux-gnu/libc-2.27.so)

__auth_handlers__(1)@127.0.1.1:5050 14786 182029.123584:       5000 cycles:uh: 
	    7fa491809699 _int_malloc+0x3c9 (/lib/x86_64-linux-gnu/libc-2.27.so)

__auth_handlers__(1)@127.0.1.1:5050 14786 182029.123600:       5000 cycles:uh: 
	    7fa495d43109 _dl_lookup_symbol_x+0x59 (/lib/x86_64-linux-gnu/ld-2.27.so)

__auth_handlers__(1)@127.0.1.1:5050 14786 182029.123603:       5000 cycles:uh: 
	    7fa494cf3583 _ZN6google12CheckNotNullIN7process7PromiseIbEEEEPT_PKciS7_S5_+0x33 (/home/bevers/src/mesos/worktrees/state-benchmarking/build-alexr/src/.libs/libmesos-1.8.0.so)
	    7fa494cfee63 _ZN7process5OwnedINS_7PromiseIbEEEC2EPS2_+0x53 (/home/bevers/src/mesos/worktrees/state-benchmarking/build-alexr/src/.libs/libmesos-1.8.0.so)
	    7fa494cfefe0 _ZN7process15SequenceProcess3addIbEENS_6FutureIT_EERKSt8functionIFS4_vEE+0xc0 (/home/bevers/src/mesos/worktrees/state-benchmarking/build-alexr/src/.libs/libmesos-1.8.0.so)
	    7fa494d00ae5 _ZNO6lambda12CallableOnceIFvPN7process11ProcessBaseEEE10CallableFnINS_8internal7PartialIZNS1_8dispatchIbNS1_15SequenceProcessERKSt8functionIFNS1_6FutureIbEEvEESH_EENSC_IT_EERKNS1_3PIDIT0_EEMSL_FSJ_T1_EOT2_EUlSt10unique_ptrINS1_7PromiseIbEESt14default_deleteISW_EEOSF_S3_E_JSZ_SF_St12_PlaceholderILi1EEEEEEclEOS3_+0x75 (/home/bevers/src/mesos/worktrees/state-benchmarking/build-alexr/src/.libs/libmesos-1.8.0.so)
	    7fa494cb80e2 _ZN7process11ProcessBase7consumeEONS_13DispatchEventE+0x32 (/home/bevers/src/mesos/worktrees/state-benchmarking/build-alexr/src/.libs/libmesos-1.8.0.so)
	    7fa494ccd332 _ZN7process14ProcessManager6resumeEPNS_11ProcessBaseE+0x492 (/home/bevers/src/mesos/worktrees/state-benchmarking/build-alexr/src/.libs/libmesos-1.8.0.so)
	    7fa494cd3606 _ZNSt6thread11_State_implINS_8_InvokerISt5tupleIJZN7process14ProcessManager12init_threadsEvEUlvE_EEEEE6_M_runEv+0x46 (/home/bevers/src/mesos/worktrees/state-benchmarking/build-alexr/src/.libs/libmesos-1.8.0.so)
	    7fa491e43733 [unknown] (/usr/lib/x86_64-linux-gnu/libstdc++.so.6.0.25)

__auth_handlers__(1)@127.0.1.1:5050 14786 182029.123606:       5000 cycles:uh: 
	    7fa4938ad730 _ZNK7process5OwnedINS_7PromiseIbEEE3getEv@plt+0x0 (/home/bevers/src/mesos/worktrees/state-benchmarking/build-alexr/src/.libs/libmesos-1.8.0.so)
	    7fa494cfefe8 _ZN7process15SequenceProcess3addIbEENS_6FutureIT_EERKSt8functionIFS4_vEE+0xc8 (/home/bevers/src/mesos/worktrees/state-benchmarking/build-alexr/src/.libs/libmesos-1.8.0.so)
	    7fa494d00ae5 _ZNO6lambda12CallableOnceIFvPN7process11ProcessBaseEEE10CallableFnINS_8internal7PartialIZNS1_8dispatchIbNS1_15SequenceProcessERKSt8functionIFNS1_6FutureIbEEvEESH_EENSC_IT_EERKNS1_3PIDIT0_EEMSL_FSJ_T1_EOT2_EUlSt10unique_ptrINS1_7PromiseIbEESt14default_deleteISW_EEOSF_S3_E_JSZ_SF_St12_PlaceholderILi1EEEEEEclEOS3_+0x75 (/home/bevers/src/mesos/worktrees/state-benchmarking/build-alexr/src/.libs/libmesos-1.8.0.so)
	    7fa494cb80e2 _ZN7process11ProcessBase7consumeEONS_13DispatchEventE+0x32 (/home/bevers/src/mesos/worktrees/state-benchmarking/build-alexr/src/.libs/libmesos-1.8.0.so)
	    7fa494ccd332 _ZN7process14ProcessManager6resumeEPNS_11ProcessBaseE+0x492 (/home/bevers/src/mesos/worktrees/state-benchmarking/build-alexr/src/.libs/libmesos-1.8.0.so)
	    7fa494cd3606 _ZNSt6thread11_State_implINS_8_InvokerISt5tupleIJZN7process14ProcessManager12init_threadsEvEUlvE_EEEEE6_M_runEv+0x46 (/home/bevers/src/mesos/worktrees/state-benchmarking/build-alexr/src/.libs/libmesos-1.8.0.so)
	    7fa491e43733 [unknown] (/usr/lib/x86_64-linux-gnu/libstdc++.so.6.0.25)

__auth_handlers__(1)@127.0.1.1:5050 14786 182029.123627:       5000 cycles:uh: 
	    7fa49180c20a malloc+0x19a (/lib/x86_64-linux-gnu/libc-2.27.so)

__auth_handlers__(1)@127.0.1.1:5050 14786 182029.123630:       5000 cycles:uh: 
	    55af36d4e390 _ZZ11synchronizePSt11atomic_flagENUlS0_E0_4_FUNES0_+0x0 (/home/bevers/src/mesos/worktrees/state-benchmarking/build-alexr/src/.libs/mesos-master)
	    7fa494d00c36 _ZN7process15SequenceProcess8notifiedIbEEvNS_5OwnedINS_7PromiseIT_EEEERKSt8functionIFNS_6FutureIS4_EEvEE+0x86 (/home/bevers/src/mesos/worktrees/state-benchmarking/build-alexr/src/.libs/libmesos-1.8.0.so)
	    7fa494ce5bf9 _ZNO6lambda12CallableOnceIFvRKN7process6FutureI7NothingEEEE10CallableFnINS_8internal7PartialIZNKS4_5onAnyISt5_BindIFPFvNS1_5OwnedINS1_7PromiseIbEEEERKSt8functionIFNS2_IbEEvEEESH_SL_EEvEES6_OT_NS4_6PreferEEUlOSR_S6_E_JSR_St12_PlaceholderILi1EEEEEEclES6_+0x49 (/home/bevers/src/mesos/worktrees/state-benchmarking/build-alexr/src/.libs/libmesos-1.8.0.so)
	    7fa493a90864 _ZNK7process6FutureI7NothingE5onAnyEON6lambda12CallableOnceIFvRKS2_EEE+0x54 (/home/bevers/src/mesos/worktrees/state-benchmarking/build-alexr/src/.libs/libmesos-1.8.0.so)
	    7fa494cff1dd _ZN7process15SequenceProcess3addIbEENS_6FutureIT_EERKSt8functionIFS4_vEE+0x2bd (/home/bevers/src/mesos/worktrees/state-benchmarking/build-alexr/src/.libs/libmesos-1.8.0.so)
	    7fa494d00ae5 _ZNO6lambda12CallableOnceIFvPN7process11ProcessBaseEEE10CallableFnINS_8internal7PartialIZNS1_8dispatchIbNS1_15SequenceProcessERKSt8functionIFNS1_6FutureIbEEvEESH_EENSC_IT_EERKNS1_3PIDIT0_EEMSL_FSJ_T1_EOT2_EUlSt10unique_ptrINS1_7PromiseIbEESt14default_deleteISW_EEOSF_S3_E_JSZ_SF_St12_PlaceholderILi1EEEEEEclEOS3_+0x75 (/home/bevers/src/mesos/worktrees/state-benchmarking/build-alexr/src/.libs/libmesos-1.8.0.so)
	    7fa494cb80e2 _ZN7process11ProcessBase7consumeEONS_13DispatchEventE+0x32 (/home/bevers/src/mesos/worktrees/state-benchmarking/build-alexr/src/.libs/libmesos-1.8.0.so)
	    7fa494ccd332 _ZN7process14ProcessManager6resumeEPNS_11ProcessBaseE+0x492 (/home/bevers/src/mesos/worktrees/state-benchmarking/build-alexr/src/.libs/libmesos-1.8.0.so)
	    7fa494cd3606 _ZNSt6thread11_State_implINS_8_InvokerISt5tupleIJZN7process14ProcessManager12init_threadsEvEUlvE_EEEEE6_M_runEv+0x46 (/home/bevers/src/mesos/worktrees/state-benchmarking/build-alexr/src/.libs/libmesos-1.8.0.so)
	    7fa491e43733 [unknown] (/usr/lib/x86_64-linux-gnu/libstdc++.so.6.0.25)

__auth_handlers__(1)@127.0.1.1:5050 14786 182029.123633:       5000 cycles:uh: 
	    7fa4938dbf10 _ZN7process8internal3runIN6lambda12CallableOnceIFvRKNS_6FutureIbEEEEEJRS5_EEEvOSt6vectorIT_SaISC_EEDpOT0_@plt+0x0 (/home/bevers/src/mesos/worktrees/state-benchmarking/build-alexr/src/.libs/libmesos-1.8.0.so)
	    7fa49394ac9b _ZNO6lambda12CallableOnceIFvRKbEEclES2_+0x4b (/home/bevers/src/mesos/worktrees/state-benchmarking/build-alexr/src/.libs/libmesos-1.8.0.so)
	    7fa49394b7ac _ZN7process7PromiseIbE9associateERKNS_6FutureIbEE+0x1ec (/home/bevers/src/mesos/worktrees/state-benchmarking/build-alexr/src/.libs/libmesos-1.8.0.so)
	    7fa494d00c36 _ZN7process15SequenceProcess8notifiedIbEEvNS_5OwnedINS_7PromiseIT_EEEERKSt8functionIFNS_6FutureIS4_EEvEE+0x86 (/home/bevers/src/mesos/worktrees/state-benchmarking/build-alexr/src/.libs/libmesos-1.8.0.so)
	    7fa494ce5bf9 _ZNO6lambda12CallableOnceIFvRKN7process6FutureI7NothingEEEE10CallableFnINS_8internal7PartialIZNKS4_5onAnyISt5_BindIFPFvNS1_5OwnedINS1_7PromiseIbEEEERKSt8functionIFNS2_IbEEvEEESH_SL_EEvEES6_OT_NS4_6PreferEEUlOSR_S6_E_JSR_St12_PlaceholderILi1EEEEEEclES6_+0x49 (/home/bevers/src/mesos/worktrees/state-benchmarking/build-alexr/src/.libs/libmesos-1.8.0.so)
	    7fa493a90864 _ZNK7process6FutureI7NothingE5onAnyEON6lambda12CallableOnceIFvRKS2_EEE+0x54 (/home/bevers/src/mesos/worktrees/state-benchmarking/build-alexr/src/.libs/libmesos-1.8.0.so)
	    7fa494cff1dd _ZN7process15SequenceProcess3addIbEENS_6FutureIT_EERKSt8functionIFS4_vEE+0x2bd (/home/bevers/src/mesos/worktrees/state-benchmarking/build-alexr/src/.libs/libmesos-1.8.0.so)
	    7fa494d00ae5 _ZNO6lambda12CallableOnceIFvPN7process11ProcessBaseEEE10CallableFnINS_8internal7PartialIZNS1_8dispatchIbNS1_15SequenceProcessERKSt8functionIFNS1_6FutureIbEEvEESH_EENSC_IT_EERKNS1_3PIDIT0_EEMSL_FSJ_T1_EOT2_EUlSt10unique_ptrINS1_7PromiseIbEESt14default_deleteISW_EEOSF_S3_E_JSZ_SF_St12_PlaceholderILi1EEEEEEclEOS3_+0x75 (/home/bevers/src/mesos/worktrees/state-benchmarking/build-alexr/src/.libs/libmesos-1.8.0.so)
	    7fa494cb80e2 _ZN7process11ProcessBase7consumeEONS_13DispatchEventE+0x32 (/home/bevers/src/mesos/worktrees/state-benchmarking/build-alexr/src/.libs/libmesos-1.8.0.so)
	    7fa494ccd332 _ZN7process14ProcessManager6resumeEPNS_11ProcessBaseE+0x492 (/home/bevers/src/mesos/worktrees/state-benchmarking/build-alexr/src/.libs/libmesos-1.8.0.so)
	    7fa494cd3606 _ZNSt6thread11_State_implINS_8_InvokerISt5tupleIJZN7process14ProcessManager12init_threadsEvEUlvE_EEEEE6_M_runEv+0x46 (/home/bevers/src/mesos/worktrees/state-benchmarking/build-alexr/src/.libs/libmesos-1.8.0.so)
	    7fa491e43733 [unknown] (/usr/lib/x86_64-linux-gnu/libstdc++.so.6.0.25)

__auth_handlers__(1)@127.0.1.1:5050 14786 182029.123636:       5000 cycles:uh: 
	    7fa49394b820 _ZN7process7PromiseIbE9associateERKNS_6FutureIbEE+0x260 (/home/bevers/src/mesos/worktrees/state-benchmarking/build-alexr/src/.libs/libmesos-1.8.0.so)
	    7fa494d00c36 _ZN7process15SequenceProcess8notifiedIbEEvNS_5OwnedINS_7PromiseIT_EEEERKSt8functionIFNS_6FutureIS4_EEvEE+0x86 (/home/bevers/src/mesos/worktrees/state-benchmarking/build-alexr/src/.libs/libmesos-1.8.0.so)
	    7fa494ce5bf9 _ZNO6lambda12CallableOnceIFvRKN7process6FutureI7NothingEEEE10CallableFnINS_8internal7PartialIZNKS4_5onAnyISt5_BindIFPFvNS1_5OwnedINS1_7PromiseIbEEEERKSt8functionIFNS2_IbEEvEEESH_SL_EEvEES6_OT_NS4_6PreferEEUlOSR_S6_E_JSR_St12_PlaceholderILi1EEEEEEclES6_+0x49 (/home/bevers/src/mesos/worktrees/state-benchmarking/build-alexr/src/.libs/libmesos-1.8.0.so)
	    7fa493a90864 _ZNK7process6FutureI7NothingE5onAnyEON6lambda12CallableOnceIFvRKS2_EEE+0x54 (/home/bevers/src/mesos/worktrees/state-benchmarking/build-alexr/src/.libs/libmesos-1.8.0.so)
	    7fa494cff1dd _ZN7process15SequenceProcess3addIbEENS_6FutureIT_EERKSt8functionIFS4_vEE+0x2bd (/home/bevers/src/mesos/worktrees/state-benchmarking/build-alexr/src/.libs/libmesos-1.8.0.so)
	    7fa494d00ae5 _ZNO6lambda12CallableOnceIFvPN7process11ProcessBaseEEE10CallableFnINS_8internal7PartialIZNS1_8dispatchIbNS1_15SequenceProcessERKSt8functionIFNS1_6FutureIbEEvEESH_EENSC_IT_EERKNS1_3PIDIT0_EEMSL_FSJ_T1_EOT2_EUlSt10unique_ptrINS1_7PromiseIbEESt14default_deleteISW_EEOSF_S3_E_JSZ_SF_St12_PlaceholderILi1EEEEEEclEOS3_+0x75 (/home/bevers/src/mesos/worktrees/state-benchmarking/build-alexr/src/.libs/libmesos-1.8.0.so)
	    7fa494cb80e2 _ZN7process11ProcessBase7consumeEONS_13DispatchEventE+0x32 (/home/bevers/src/mesos/worktrees/state-benchmarking/build-alexr/src/.libs/libmesos-1.8.0.so)
	    7fa494ccd332 _ZN7process14ProcessManager6resumeEPNS_11ProcessBaseE+0x492 (/home/bevers/src/mesos/worktrees/state-benchmarking/build-alexr/src/.libs/libmesos-1.8.0.so)
	    7fa494cd3606 _ZNSt6thread11_State_implINS_8_InvokerISt5tupleIJZN7process14ProcessManager12init_threadsEvEUlvE_EEEEE6_M_runEv+0x46 (/home/bevers/src/mesos/worktrees/state-benchmarking/build-alexr/src/.libs/libmesos-1.8.0.so)
	    7fa491e43733 [unknown] (/usr/lib/x86_64-linux-gnu/libstdc++.so.6.0.25)

__auth_handlers__(1)@127.0.1.1:5050 14786 182029.123639:       5000 cycles:uh: 
	    7fa493c738a0 _ZN6lambda12CallableOnceIFvvEE10CallableFnINS_8internal7PartialIZNK7process6FutureI7NothingE9onDiscardISt5_BindIFPFvNS6_10WeakFutureIbEEESD_EEEERKS9_OT_EUlOSH_E_JSH_EEEED0Ev+0x0 (/home/bevers/src/mesos/worktrees/state-benchmarking/build-alexr/src/.libs/libmesos-1.8.0.so)
	    7fa494d00ae5 _ZNO6lambda12CallableOnceIFvPN7process11ProcessBaseEEE10CallableFnINS_8internal7PartialIZNS1_8dispatchIbNS1_15SequenceProcessERKSt8functionIFNS1_6FutureIbEEvEESH_EENSC_IT_EERKNS1_3PIDIT0_EEMSL_FSJ_T1_EOT2_EUlSt10unique_ptrINS1_7PromiseIbEESt14default_deleteISW_EEOSF_S3_E_JSZ_SF_St12_PlaceholderILi1EEEEEEclEOS3_+0x75 (/home/bevers/src/mesos/worktrees/state-benchmarking/build-alexr/src/.libs/libmesos-1.8.0.so)
	    7fa494cb80e2 _ZN7process11ProcessBase7consumeEONS_13DispatchEventE+0x32 (/home/bevers/src/mesos/worktrees/state-benchmarking/build-alexr/src/.libs/libmesos-1.8.0.so)
	    7fa494ccd332 _ZN7process14ProcessManager6resumeEPNS_11ProcessBaseE+0x492 (/home/bevers/src/mesos/worktrees/state-benchmarking/build-alexr/src/.libs/libmesos-1.8.0.so)
	    7fa494cd3606 _ZNSt6thread11_State_implINS_8_InvokerISt5tupleIJZN7process14ProcessManager12init_threadsEvEUlvE_EEEEE6_M_runEv+0x46 (/home/bevers/src/mesos/worktrees/state-benchmarking/build-alexr/src/.libs/libmesos-1.8.0.so)
	    7fa491e43733 [unknown] (/usr/lib/x86_64-linux-gnu/libstdc++.so.6.0.25)

__auth_handlers__(1)@127.0.1.1:5050 14786 182029.123642:       5000 cycles:uh: 
	    7fa495d47e4b _dl_fixup+0x5b (/lib/x86_64-linux-gnu/ld-2.27.so)
	    55af36d549d6 _ZNSt16_Sp_counted_baseILN9__gnu_cxx12_Lock_policyE2EE10_M_releaseEv+0x56 (/home/bevers/src/mesos/worktrees/state-benchmarking/build-alexr/src/.libs/mesos-master)
	    7fa494cff41c _ZN7process15SequenceProcess3addIbEENS_6FutureIT_EERKSt8functionIFS4_vEE+0x4fc (/home/bevers/src/mesos/worktrees/state-benchmarking/build-alexr/src/.libs/libmesos-1.8.0.so)
	    7fa494d00ae5 _ZNO6lambda12CallableOnceIFvPN7process11ProcessBaseEEE10CallableFnINS_8internal7PartialIZNS1_8dispatchIbNS1_15SequenceProcessERKSt8functionIFNS1_6FutureIbEEvEESH_EENSC_IT_EERKNS1_3PIDIT0_EEMSL_FSJ_T1_EOT2_EUlSt10unique_ptrINS1_7PromiseIbEESt14default_deleteISW_EEOSF_S3_E_JSZ_SF_St12_PlaceholderILi1EEEEEEclEOS3_+0x75 (/home/bevers/src/mesos/worktrees/state-benchmarking/build-alexr/src/.libs/libmesos-1.8.0.so)
	    7fa494cb80e2 _ZN7process11ProcessBase7consumeEONS_13DispatchEventE+0x32 (/home/bevers/src/mesos/worktrees/state-benchmarking/build-alexr/src/.libs/libmesos-1.8.0.so)
	    7fa494ccd332 _ZN7process14ProcessManager6resumeEPNS_11ProcessBaseE+0x492 (/home/bevers/src/mesos/worktrees/state-benchmarking/build-alexr/src/.libs/libmesos-1.8.0.so)
	    7fa494cd3606 _ZNSt6thread11_State_implINS_8_InvokerISt5tupleIJZN7process14ProcessManager12init_threadsEvEUlvE_EEEEE6_M_runEv+0x46 (/home/bevers/src/mesos/worktrees/state-benchmarking/build-alexr/src/.libs/libmesos-1.8.0.so)
	    7fa491e43733 [unknown] (/usr/lib/x86_64-linux-gnu/libstdc++.so.6.0.25)

master@127.0.1.1:5050 14784 182029.127745:       5000 cycles:uh: 
	    7fa494c663e0 _ZN6google12CheckNotNullIN7process4http7RequestEEEPT_PKciS7_S5_+0x0 (/home/bevers/src/mesos/worktrees/state-benchmarking/build-alexr/src/.libs/libmesos-1.8.0.so)
	    7fa4939e8599 _ZNO6lambda12CallableOnceIFvPN7process11ProcessBaseEEE10CallableFnINS_8internal7PartialIZNS1_8internal8DispatchINS1_6FutureINS1_4http8ResponseEEEEclINS0_IFSE_vEEEEESE_RKNS1_4UPIDEOT_EUlSt10unique_ptrINS1_7PromiseISD_EESt14default_deleteISQ_EEOSI_S3_E_JST_SI_St12_PlaceholderILi1EEEEEEclEOS3_+0xc9 (/home/bevers/src/mesos/worktrees/state-benchmarking/build-alexr/src/.libs/libmesos-1.8.0.so)
	    7fa494cb80e2 _ZN7process11ProcessBase7consumeEONS_13DispatchEventE+0x32 (/home/bevers/src/mesos/worktrees/state-benchmarking/build-alexr/src/.libs/libmesos-1.8.0.so)
	    7fa494ccd332 _ZN7process14ProcessManager6resumeEPNS_11ProcessBaseE+0x492 (/home/bevers/src/mesos/worktrees/state-benchmarking/build-alexr/src/.libs/libmesos-1.8.0.so)
	    7fa494cd3606 _ZNSt6thread11_State_implINS_8_InvokerISt5tupleIJZN7process14ProcessManager12init_threadsEvEUlvE_EEEEE6_M_runEv+0x46 (/home/bevers/src/mesos/worktrees/state-benchmarking/build-alexr/src/.libs/libmesos-1.8.0.so)
	    7fa491e43733 [unknown] (/usr/lib/x86_64-linux-gnu/libstdc++.so.6.0.25)

master@127.0.1.1:5050 14784 182029.127749:       5000 cycles:uh: 
	    7fa495d426fc do_lookup_x+0x4bc (/lib/x86_64-linux-gnu/ld-2.27.so)
	               0 [unknown] ([unknown])

master@127.0.1.1:5050 14784 182029.127752:       5000 cycles:uh: 
	    7fa495d430ff _dl_lookup_symbol_x+0x4f (/lib/x86_64-linux-gnu/ld-2.27.so)

master@127.0.1.1:5050 14784 182029.127755:       5000 cycles:uh: 
	    7fa4917a562a tolower+0x2a (/lib/x86_64-linux-gnu/libc-2.27.so)
	    7fa493a0050f _ZN5mesos10logRequestERKN7process4http7RequestE+0x4f (/home/bevers/src/mesos/worktrees/state-benchmarking/build-alexr/src/.libs/libmesos-1.8.0.so)
	    7fa493bf2842 _ZNSt17_Function_handlerIFN7process6FutureINS0_4http8ResponseEEERKNS2_7RequestERK6OptionINS2_14authentication9PrincipalEEEZN5mesos8internal6master6Master10initializeEvEUlS7_SD_E13_E9_M_invokeERKSt9_Any_dataS7_SD_+0x32 (/home/bevers/src/mesos/worktrees/state-benchmarking/build-alexr/src/.libs/libmesos-1.8.0.so)
	    7fa494cc2351 _ZNO6lambda12CallableOnceIFN7process6FutureINS1_4http8ResponseEEEvEE10CallableFnINS_8internal7PartialIZZNS1_11ProcessBase8_consumeERKNSB_12HttpEndpointERKNSt7__cxx1112basic_stringIcSt11char_traitsIcESaIcEEERKNS1_5OwnedINS3_7RequestEEEENKUlRK6OptionINS3_14authentication20AuthenticationResultEEE0_clESX_EUlbE0_JbEEEEclEv+0x71 (/home/bevers/src/mesos/worktrees/state-benchmarking/build-alexr/src/.libs/libmesos-1.8.0.so)
	    7fa4939e8599 _ZNO6lambda12CallableOnceIFvPN7process11ProcessBaseEEE10CallableFnINS_8internal7PartialIZNS1_8internal8DispatchINS1_6FutureINS1_4http8ResponseEEEEclINS0_IFSE_vEEEEESE_RKNS1_4UPIDEOT_EUlSt10unique_ptrINS1_7PromiseISD_EESt14default_deleteISQ_EEOSI_S3_E_JST_SI_St12_PlaceholderILi1EEEEEEclEOS3_+0xc9 (/home/bevers/src/mesos/worktrees/state-benchmarking/build-alexr/src/.libs/libmesos-1.8.0.so)
	    7fa494cb80e2 _ZN7process11ProcessBase7consumeEONS_13DispatchEventE+0x32 (/home/bevers/src/mesos/worktrees/state-benchmarking/build-alexr/src/.libs/libmesos-1.8.0.so)
	    7fa494ccd332 _ZN7process14ProcessManager6resumeEPNS_11ProcessBaseE+0x492 (/home/bevers/src/mesos/worktrees/state-benchmarking/build-alexr/src/.libs/libmesos-1.8.0.so)
	    7fa494cd3606 _ZNSt6thread11_State_implINS_8_InvokerISt5tupleIJZN7process14ProcessManager12init_threadsEvEUlvE_EEEEE6_M_runEv+0x46 (/home/bevers/src/mesos/worktrees/state-benchmarking/build-alexr/src/.libs/libmesos-1.8.0.so)
	    7fa491e43733 [unknown] (/usr/lib/x86_64-linux-gnu/libstdc++.so.6.0.25)

master@127.0.1.1:5050 14784 182029.127758:       5000 cycles:uh: 
	    7fa494d2ae70 _ZN6google10LogMessage4InitEPKciiMS0_FvvE+0x0 (/home/bevers/src/mesos/worktrees/state-benchmarking/build-alexr/src/.libs/libmesos-1.8.0.so)
	    7fa493bf2842 _ZNSt17_Function_handlerIFN7process6FutureINS0_4http8ResponseEEERKNS2_7RequestERK6OptionINS2_14authentication9PrincipalEEEZN5mesos8internal6master6Master10initializeEvEUlS7_SD_E13_E9_M_invokeERKSt9_Any_dataS7_SD_+0x32 (/home/bevers/src/mesos/worktrees/state-benchmarking/build-alexr/src/.libs/libmesos-1.8.0.so)
	    7fa494cc2351 _ZNO6lambda12CallableOnceIFN7process6FutureINS1_4http8ResponseEEEvEE10CallableFnINS_8internal7PartialIZZNS1_11ProcessBase8_consumeERKNSB_12HttpEndpointERKNSt7__cxx1112basic_stringIcSt11char_traitsIcESaIcEEERKNS1_5OwnedINS3_7RequestEEEENKUlRK6OptionINS3_14authentication20AuthenticationResultEEE0_clESX_EUlbE0_JbEEEEclEv+0x71 (/home/bevers/src/mesos/worktrees/state-benchmarking/build-alexr/src/.libs/libmesos-1.8.0.so)
	    7fa4939e8599 _ZNO6lambda12CallableOnceIFvPN7process11ProcessBaseEEE10CallableFnINS_8internal7PartialIZNS1_8internal8DispatchINS1_6FutureINS1_4http8ResponseEEEEclINS0_IFSE_vEEEEESE_RKNS1_4UPIDEOT_EUlSt10unique_ptrINS1_7PromiseISD_EESt14default_deleteISQ_EEOSI_S3_E_JST_SI_St12_PlaceholderILi1EEEEEEclEOS3_+0xc9 (/home/bevers/src/mesos/worktrees/state-benchmarking/build-alexr/src/.libs/libmesos-1.8.0.so)
	    7fa494cb80e2 _ZN7process11ProcessBase7consumeEONS_13DispatchEventE+0x32 (/home/bevers/src/mesos/worktrees/state-benchmarking/build-alexr/src/.libs/libmesos-1.8.0.so)
	    7fa494ccd332 _ZN7process14ProcessManager6resumeEPNS_11ProcessBaseE+0x492 (/home/bevers/src/mesos/worktrees/state-benchmarking/build-alexr/src/.libs/libmesos-1.8.0.so)
	    7fa494cd3606 _ZNSt6thread11_State_implINS_8_InvokerISt5tupleIJZN7process14ProcessManager12init_threadsEvEUlvE_EEEEE6_M_runEv+0x46 (/home/bevers/src/mesos/worktrees/state-benchmarking/build-alexr/src/.libs/libmesos-1.8.0.so)
	    7fa491e43733 [unknown] (/usr/lib/x86_64-linux-gnu/libstdc++.so.6.0.25)

master@127.0.1.1:5050 14784 182029.127763:       5000 cycles:uh: 
	    7fa49181ee70 __strcmp_sse2_unaligned+0x0 (/lib/x86_64-linux-gnu/libc-2.27.so)
	          456349 [unknown] ([unknown])

master@127.0.1.1:5050 14784 182029.127765:       5000 cycles:uh: 
	    7fa494d34ad0 _ZN6google24glog_internal_namespace_14CycleClock_NowEv+0x0 (/home/bevers/src/mesos/worktrees/state-benchmarking/build-alexr/src/.libs/libmesos-1.8.0.so)
	    7fa494d2b0ae _ZN6google10LogMessage4InitEPKciiMS0_FvvE+0x23e (/home/bevers/src/mesos/worktrees/state-benchmarking/build-alexr/src/.libs/libmesos-1.8.0.so)
	    7fa493a005e0 _ZN5mesos10logRequestERKN7process4http7RequestE+0x120 (/home/bevers/src/mesos/worktrees/state-benchmarking/build-alexr/src/.libs/libmesos-1.8.0.so)
	    7fa493bf2842 _ZNSt17_Function_handlerIFN7process6FutureINS0_4http8ResponseEEERKNS2_7RequestERK6OptionINS2_14authentication9PrincipalEEEZN5mesos8internal6master6Master10initializeEvEUlS7_SD_E13_E9_M_invokeERKSt9_Any_dataS7_SD_+0x32 (/home/bevers/src/mesos/worktrees/state-benchmarking/build-alexr/src/.libs/libmesos-1.8.0.so)
	    7fa494cc2351 _ZNO6lambda12CallableOnceIFN7process6FutureINS1_4http8ResponseEEEvEE10CallableFnINS_8internal7PartialIZZNS1_11ProcessBase8_consumeERKNSB_12HttpEndpointERKNSt7__cxx1112basic_stringIcSt11char_traitsIcESaIcEEERKNS1_5OwnedINS3_7RequestEEEENKUlRK6OptionINS3_14authentication20AuthenticationResultEEE0_clESX_EUlbE0_JbEEEEclEv+0x71 (/home/bevers/src/mesos/worktrees/state-benchmarking/build-alexr/src/.libs/libmesos-1.8.0.so)
	    7fa4939e8599 _ZNO6lambda12CallableOnceIFvPN7process11ProcessBaseEEE10CallableFnINS_8internal7PartialIZNS1_8internal8DispatchINS1_6FutureINS1_4http8ResponseEEEEclINS0_IFSE_vEEEEESE_RKNS1_4UPIDEOT_EUlSt10unique_ptrINS1_7PromiseISD_EESt14default_deleteISQ_EEOSI_S3_E_JST_SI_St12_PlaceholderILi1EEEEEEclEOS3_+0xc9 (/home/bevers/src/mesos/worktrees/state-benchmarking/build-alexr/src/.libs/libmesos-1.8.0.so)
	    7fa494cb80e2 _ZN7process11ProcessBase7consumeEONS_13DispatchEventE+0x32 (/home/bevers/src/mesos/worktrees/state-benchmarking/build-alexr/src/.libs/libmesos-1.8.0.so)
	    7fa494ccd332 _ZN7process14ProcessManager6resumeEPNS_11ProcessBaseE+0x492 (/home/bevers/src/mesos/worktrees/state-benchmarking/build-alexr/src/.libs/libmesos-1.8.0.so)
	    7fa494cd3606 _ZNSt6thread11_State_implINS_8_InvokerISt5tupleIJZN7process14ProcessManager12init_threadsEvEUlvE_EEEEE6_M_runEv+0x46 (/home/bevers/src/mesos/worktrees/state-benchmarking/build-alexr/src/.libs/libmesos-1.8.0.so)
	    7fa491e43733 [unknown] (/usr/lib/x86_64-linux-gnu/libstdc++.so.6.0.25)

master@127.0.1.1:5050 14784 182029.127772:       5000 cycles:uh: 
	    7fa491903590 __strlen_avx2+0x0 (/lib/x86_64-linux-gnu/libc-2.27.so)
	91bb06b1e3cfe900 [unknown] ([unknown])

master@127.0.1.1:5050 14784 182029.127775:       5000 cycles:uh: 
	    7fa494d2b1c7 _ZN6google10LogMessage4InitEPKciiMS0_FvvE+0x357 (/home/bevers/src/mesos/worktrees/state-benchmarking/build-alexr/src/.libs/libmesos-1.8.0.so)
	    7fa493a005e0 _ZN5mesos10logRequestERKN7process4http7RequestE+0x120 (/home/bevers/src/mesos/worktrees/state-benchmarking/build-alexr/src/.libs/libmesos-1.8.0.so)
	    7fa493bf2842 _ZNSt17_Function_handlerIFN7process6FutureINS0_4http8ResponseEEERKNS2_7RequestERK6OptionINS2_14authentication9PrincipalEEEZN5mesos8internal6master6Master10initializeEvEUlS7_SD_E13_E9_M_invokeERKSt9_Any_dataS7_SD_+0x32 (/home/bevers/src/mesos/worktrees/state-benchmarking/build-alexr/src/.libs/libmesos-1.8.0.so)
	    7fa494cc2351 _ZNO6lambda12CallableOnceIFN7process6FutureINS1_4http8ResponseEEEvEE10CallableFnINS_8internal7PartialIZZNS1_11ProcessBase8_consumeERKNSB_12HttpEndpointERKNSt7__cxx1112basic_stringIcSt11char_traitsIcESaIcEEERKNS1_5OwnedINS3_7RequestEEEENKUlRK6OptionINS3_14authentication20AuthenticationResultEEE0_clESX_EUlbE0_JbEEEEclEv+0x71 (/home/bevers/src/mesos/worktrees/state-benchmarking/build-alexr/src/.libs/libmesos-1.8.0.so)
	    7fa4939e8599 _ZNO6lambda12CallableOnceIFvPN7process11ProcessBaseEEE10CallableFnINS_8internal7PartialIZNS1_8internal8DispatchINS1_6FutureINS1_4http8ResponseEEEEclINS0_IFSE_vEEEEESE_RKNS1_4UPIDEOT_EUlSt10unique_ptrINS1_7PromiseISD_EESt14default_deleteISQ_EEOSI_S3_E_JST_SI_St12_PlaceholderILi1EEEEEEclEOS3_+0xc9 (/home/bevers/src/mesos/worktrees/state-benchmarking/build-alexr/src/.libs/libmesos-1.8.0.so)
	    7fa494cb80e2 _ZN7process11ProcessBase7consumeEONS_13DispatchEventE+0x32 (/home/bevers/src/mesos/worktrees/state-benchmarking/build-alexr/src/.libs/libmesos-1.8.0.so)
	    7fa494ccd332 _ZN7process14ProcessManager6resumeEPNS_11ProcessBaseE+0x492 (/home/bevers/src/mesos/worktrees/state-benchmarking/build-alexr/src/.libs/libmesos-1.8.0.so)
	    7fa494cd3606 _ZNSt6thread11_State_implINS_8_InvokerISt5tupleIJZN7process14ProcessManager12init_threadsEvEUlvE_EEEEE6_M_runEv+0x46 (/home/bevers/src/mesos/worktrees/state-benchmarking/build-alexr/src/.libs/libmesos-1.8.0.so)
	    7fa491e43733 [unknown] (/usr/lib/x86_64-linux-gnu/libstdc++.so.6.0.25)

master@127.0.1.1:5050 14784 182029.127778:       5000 cycles:uh: 
	    7fa491903b3b __memmove_avx_unaligned_erms+0x6b (/lib/x86_64-linux-gnu/libc-2.27.so)
	               0 [unknown] ([unknown])
	    7fa494d33650 _ZN6google12base_logging12LogStreamBufD0Ev+0x0 (/home/bevers/src/mesos/worktrees/state-benchmarking/build-alexr/src/.libs/libmesos-1.8.0.so)
	48e5894838c78348 [unknown] ([unknown])

master@127.0.1.1:5050 14784 182029.127781:       5000 cycles:uh: 
	    7fa49389f726 _ZN7process4httplsERSoRKNS0_3URLE@plt+0x6 (/home/bevers/src/mesos/worktrees/state-benchmarking/build-alexr/src/.libs/libmesos-1.8.0.so)
	    7fa493bf2842 _ZNSt17_Function_handlerIFN7process6FutureINS0_4http8ResponseEEERKNS2_7RequestERK6OptionINS2_14authentication9PrincipalEEEZN5mesos8internal6master6Master10initializeEvEUlS7_SD_E13_E9_M_invokeERKSt9_Any_dataS7_SD_+0x32 (/home/bevers/src/mesos/worktrees/state-benchmarking/build-alexr/src/.libs/libmesos-1.8.0.so)
	    7fa494cc2351 _ZNO6lambda12CallableOnceIFN7process6FutureINS1_4http8ResponseEEEvEE10CallableFnINS_8internal7PartialIZZNS1_11ProcessBase8_consumeERKNSB_12HttpEndpointERKNSt7__cxx1112basic_stringIcSt11char_traitsIcESaIcEEERKNS1_5OwnedINS3_7RequestEEEENKUlRK6OptionINS3_14authentication20AuthenticationResultEEE0_clESX_EUlbE0_JbEEEEclEv+0x71 (/home/bevers/src/mesos/worktrees/state-benchmarking/build-alexr/src/.libs/libmesos-1.8.0.so)
	    7fa4939e8599 _ZNO6lambda12CallableOnceIFvPN7process11ProcessBaseEEE10CallableFnINS_8internal7PartialIZNS1_8internal8DispatchINS1_6FutureINS1_4http8ResponseEEEEclINS0_IFSE_vEEEEESE_RKNS1_4UPIDEOT_EUlSt10unique_ptrINS1_7PromiseISD_EESt14default_deleteISQ_EEOSI_S3_E_JST_SI_St12_PlaceholderILi1EEEEEEclEOS3_+0xc9 (/home/bevers/src/mesos/worktrees/state-benchmarking/build-alexr/src/.libs/libmesos-1.8.0.so)
	    7fa494cb80e2 _ZN7process11ProcessBase7consumeEONS_13DispatchEventE+0x32 (/home/bevers/src/mesos/worktrees/state-benchmarking/build-alexr/src/.libs/libmesos-1.8.0.so)
	    7fa494ccd332 _ZN7process14ProcessManager6resumeEPNS_11ProcessBaseE+0x492 (/home/bevers/src/mesos/worktrees/state-benchmarking/build-alexr/src/.libs/libmesos-1.8.0.so)
	    7fa494cd3606 _ZNSt6thread11_State_implINS_8_InvokerISt5tupleIJZN7process14ProcessManager12init_threadsEvEUlvE_EEEEE6_M_runEv+0x46 (/home/bevers/src/mesos/worktrees/state-benchmarking/build-alexr/src/.libs/libmesos-1.8.0.so)
	    7fa491e43733 [unknown] (/usr/lib/x86_64-linux-gnu/libstdc++.so.6.0.25)

master@127.0.1.1:5050 14784 182029.127784:       5000 cycles:uh: 
	    7fa494c0e218 _ZN7process4httplsERSoRKNS0_3URLE+0x18 (/home/bevers/src/mesos/worktrees/state-benchmarking/build-alexr/src/.libs/libmesos-1.8.0.so)
	    7fa493a00634 _ZN5mesos10logRequestERKN7process4http7RequestE+0x174 (/home/bevers/src/mesos/worktrees/state-benchmarking/build-alexr/src/.libs/libmesos-1.8.0.so)
	    7fa493bf2842 _ZNSt17_Function_handlerIFN7process6FutureINS0_4http8ResponseEEERKNS2_7RequestERK6OptionINS2_14authentication9PrincipalEEEZN5mesos8internal6master6Master10initializeEvEUlS7_SD_E13_E9_M_invokeERKSt9_Any_dataS7_SD_+0x32 (/home/bevers/src/mesos/worktrees/state-benchmarking/build-alexr/src/.libs/libmesos-1.8.0.so)
	    7fa494cc2351 _ZNO6lambda12CallableOnceIFN7process6FutureINS1_4http8ResponseEEEvEE10CallableFnINS_8internal7PartialIZZNS1_11ProcessBase8_consumeERKNSB_12HttpEndpointERKNSt7__cxx1112basic_stringIcSt11char_traitsIcESaIcEEERKNS1_5OwnedINS3_7RequestEEEENKUlRK6OptionINS3_14authentication20AuthenticationResultEEE0_clESX_EUlbE0_JbEEEEclEv+0x71 (/home/bevers/src/mesos/worktrees/state-benchmarking/build-alexr/src/.libs/libmesos-1.8.0.so)
	    7fa4939e8599 _ZNO6lambda12CallableOnceIFvPN7process11ProcessBaseEEE10CallableFnINS_8internal7PartialIZNS1_8internal8DispatchINS1_6FutureINS1_4http8ResponseEEEEclINS0_IFSE_vEEEEESE_RKNS1_4UPIDEOT_EUlSt10unique_ptrINS1_7PromiseISD_EESt14default_deleteISQ_EEOSI_S3_E_JST_SI_St12_PlaceholderILi1EEEEEEclEOS3_+0xc9 (/home/bevers/src/mesos/worktrees/state-benchmarking/build-alexr/src/.libs/libmesos-1.8.0.so)
	    7fa494cb80e2 _ZN7process11ProcessBase7consumeEONS_13DispatchEventE+0x32 (/home/bevers/src/mesos/worktrees/state-benchmarking/build-alexr/src/.libs/libmesos-1.8.0.so)
	    7fa494ccd332 _ZN7process14ProcessManager6resumeEPNS_11ProcessBaseE+0x492 (/home/bevers/src/mesos/worktrees/state-benchmarking/build-alexr/src/.libs/libmesos-1.8.0.so)
	    7fa494cd3606 _ZNSt6thread11_State_implINS_8_InvokerISt5tupleIJZN7process14ProcessManager12init_threadsEvEUlvE_EEEEE6_M_runEv+0x46 (/home/bevers/src/mesos/worktrees/state-benchmarking/build-alexr/src/.libs/libmesos-1.8.0.so)
	    7fa491e43733 [unknown] (/usr/lib/x86_64-linux-gnu/libstdc++.so.6.0.25)

master@127.0.1.1:5050 14784 182029.127787:       5000 cycles:uh: 
	    7fa491e10f70 _ZNSt7__cxx1112basic_stringIcSt11char_traitsIcESaIcEE9_M_assignERKS4_@plt+0x0 (/usr/lib/x86_64-linux-gnu/libstdc++.so.6.0.25)
	    7fa494c0e2b6 _ZN7process4httplsERSoRKNS0_3URLE+0xb6 (/home/bevers/src/mesos/worktrees/state-benchmarking/build-alexr/src/.libs/libmesos-1.8.0.so)
	    7fa493a00634 _ZN5mesos10logRequestERKN7process4http7RequestE+0x174 (/home/bevers/src/mesos/worktrees/state-benchmarking/build-alexr/src/.libs/libmesos-1.8.0.so)
	    7fa493bf2842 _ZNSt17_Function_handlerIFN7process6FutureINS0_4http8ResponseEEERKNS2_7RequestERK6OptionINS2_14authentication9PrincipalEEEZN5mesos8internal6master6Master10initializeEvEUlS7_SD_E13_E9_M_invokeERKSt9_Any_dataS7_SD_+0x32 (/home/bevers/src/mesos/worktrees/state-benchmarking/build-alexr/src/.libs/libmesos-1.8.0.so)
	    7fa494cc2351 _ZNO6lambda12CallableOnceIFN7process6FutureINS1_4http8ResponseEEEvEE10CallableFnINS_8internal7PartialIZZNS1_11ProcessBase8_consumeERKNSB_12HttpEndpointERKNSt7__cxx1112basic_stringIcSt11char_traitsIcESaIcEEERKNS1_5OwnedINS3_7RequestEEEENKUlRK6OptionINS3_14authentication20AuthenticationResultEEE0_clESX_EUlbE0_JbEEEEclEv+0x71 (/home/bevers/src/mesos/worktrees/state-benchmarking/build-alexr/src/.libs/libmesos-1.8.0.so)
	    7fa4939e8599 _ZNO6lambda12CallableOnceIFvPN7process11ProcessBaseEEE10CallableFnINS_8internal7PartialIZNS1_8internal8DispatchINS1_6FutureINS1_4http8ResponseEEEEclINS0_IFSE_vEEEEESE_RKNS1_4UPIDEOT_EUlSt10unique_ptrINS1_7PromiseISD_EESt14default_deleteISQ_EEOSI_S3_E_JST_SI_St12_PlaceholderILi1EEEEEEclEOS3_+0xc9 (/home/bevers/src/mesos/worktrees/state-benchmarking/build-alexr/src/.libs/libmesos-1.8.0.so)
	    7fa494cb80e2 _ZN7process11ProcessBase7consumeEONS_13DispatchEventE+0x32 (/home/bevers/src/mesos/worktrees/state-benchmarking/build-alexr/src/.libs/libmesos-1.8.0.so)
	    7fa494ccd332 _ZN7process14ProcessManager6resumeEPNS_11ProcessBaseE+0x492 (/home/bevers/src/mesos/worktrees/state-benchmarking/build-alexr/src/.libs/libmesos-1.8.0.so)
	    7fa494cd3606 _ZNSt6thread11_State_implINS_8_InvokerISt5tupleIJZN7process14ProcessManager12init_threadsEvEUlvE_EEEEE6_M_runEv+0x46 (/home/bevers/src/mesos/worktrees/state-benchmarking/build-alexr/src/.libs/libmesos-1.8.0.so)
	    7fa491e43733 [unknown] (/usr/lib/x86_64-linux-gnu/libstdc++.so.6.0.25)

master@127.0.1.1:5050 14784 182029.127790:       5000 cycles:uh: 
	    7fa491803420 _IO_default_xsputn+0x0 (/lib/x86_64-linux-gnu/libc-2.27.so)
	    7fa4917f66d1 _IO_vsprintf+0x81 (/lib/x86_64-linux-gnu/libc-2.27.so)
	               0 [unknown] ([unknown])

master@127.0.1.1:5050 14784 182029.127793:       5000 cycles:uh: 
	    7fa491eaeaa2 _ZNSt7__cxx1112basic_stringIcSt11char_traitsIcESaIcEE10_M_replaceEmmPKcm+0x12 (/usr/lib/x86_64-linux-gnu/libstdc++.so.6.0.25)
	ffffff00ffffffff [unknown] ([unknown])

master@127.0.1.1:5050 14784 182029.127796:       5000 cycles:uh: 
	    7fa491eae2e0 _ZNSt7__cxx1112basic_stringIcSt11char_traitsIcESaIcEE7reserveEm+0x80 (/usr/lib/x86_64-linux-gnu/libstdc++.so.6.0.25)
	               0 [unknown] ([unknown])

master@127.0.1.1:5050 14784 182029.127799:       5000 cycles:uh: 
	    7fa494d2b958 _ZN6google10LogMessage5FlushEv+0x18 (/home/bevers/src/mesos/worktrees/state-benchmarking/build-alexr/src/.libs/libmesos-1.8.0.so)
	    7fa493a00815 _ZN5mesos10logRequestERKN7process4http7RequestE+0x355 (/home/bevers/src/mesos/worktrees/state-benchmarking/build-alexr/src/.libs/libmesos-1.8.0.so)
	    7fa493bf2842 _ZNSt17_Function_handlerIFN7process6FutureINS0_4http8ResponseEEERKNS2_7RequestERK6OptionINS2_14authentication9PrincipalEEEZN5mesos8internal6master6Master10initializeEvEUlS7_SD_E13_E9_M_invokeERKSt9_Any_dataS7_SD_+0x32 (/home/bevers/src/mesos/worktrees/state-benchmarking/build-alexr/src/.libs/libmesos-1.8.0.so)
	    7fa494cc2351 _ZNO6lambda12CallableOnceIFN7process6FutureINS1_4http8ResponseEEEvEE10CallableFnINS_8internal7PartialIZZNS1_11ProcessBase8_consumeERKNSB_12HttpEndpointERKNSt7__cxx1112basic_stringIcSt11char_traitsIcESaIcEEERKNS1_5OwnedINS3_7RequestEEEENKUlRK6OptionINS3_14authentication20AuthenticationResultEEE0_clESX_EUlbE0_JbEEEEclEv+0x71 (/home/bevers/src/mesos/worktrees/state-benchmarking/build-alexr/src/.libs/libmesos-1.8.0.so)
	    7fa4939e8599 _ZNO6lambda12CallableOnceIFvPN7process11ProcessBaseEEE10CallableFnINS_8internal7PartialIZNS1_8internal8DispatchINS1_6FutureINS1_4http8ResponseEEEEclINS0_IFSE_vEEEEESE_RKNS1_4UPIDEOT_EUlSt10unique_ptrINS1_7PromiseISD_EESt14default_deleteISQ_EEOSI_S3_E_JST_SI_St12_PlaceholderILi1EEEEEEclEOS3_+0xc9 (/home/bevers/src/mesos/worktrees/state-benchmarking/build-alexr/src/.libs/libmesos-1.8.0.so)
	    7fa494cb80e2 _ZN7process11ProcessBase7consumeEONS_13DispatchEventE+0x32 (/home/bevers/src/mesos/worktrees/state-benchmarking/build-alexr/src/.libs/libmesos-1.8.0.so)
	    7fa494ccd332 _ZN7process14ProcessManager6resumeEPNS_11ProcessBaseE+0x492 (/home/bevers/src/mesos/worktrees/state-benchmarking/build-alexr/src/.libs/libmesos-1.8.0.so)
	    7fa494cd3606 _ZNSt6thread11_State_implINS_8_InvokerISt5tupleIJZN7process14ProcessManager12init_threadsEvEUlvE_EEEEE6_M_runEv+0x46 (/home/bevers/src/mesos/worktrees/state-benchmarking/build-alexr/src/.libs/libmesos-1.8.0.so)
	    7fa491e43733 [unknown] (/usr/lib/x86_64-linux-gnu/libstdc++.so.6.0.25)

master@127.0.1.1:5050 14784 182029.127806:       5000 cycles:uh: 
	    7fa494d2dbc7 _ZN6google10LogMessage9SendToLogEv+0xb7 (/home/bevers/src/mesos/worktrees/state-benchmarking/build-alexr/src/.libs/libmesos-1.8.0.so)
	    7fa494d2b9f4 _ZN6google10LogMessage5FlushEv+0xb4 (/home/bevers/src/mesos/worktrees/state-benchmarking/build-alexr/src/.libs/libmesos-1.8.0.so)
	    7fa494d2bc51 _ZN6google10LogMessageD2Ev+0x11 (/home/bevers/src/mesos/worktrees/state-benchmarking/build-alexr/src/.libs/libmesos-1.8.0.so)
	    7fa493a00815 _ZN5mesos10logRequestERKN7process4http7RequestE+0x355 (/home/bevers/src/mesos/worktrees/state-benchmarking/build-alexr/src/.libs/libmesos-1.8.0.so)
	    7fa493bf2842 _ZNSt17_Function_handlerIFN7process6FutureINS0_4http8ResponseEEERKNS2_7RequestERK6OptionINS2_14authentication9PrincipalEEEZN5mesos8internal6master6Master10initializeEvEUlS7_SD_E13_E9_M_invokeERKSt9_Any_dataS7_SD_+0x32 (/home/bevers/src/mesos/worktrees/state-benchmarking/build-alexr/src/.libs/libmesos-1.8.0.so)
	    7fa494cc2351 _ZNO6lambda12CallableOnceIFN7process6FutureINS1_4http8ResponseEEEvEE10CallableFnINS_8internal7PartialIZZNS1_11ProcessBase8_consumeERKNSB_12HttpEndpointERKNSt7__cxx1112basic_stringIcSt11char_traitsIcESaIcEEERKNS1_5OwnedINS3_7RequestEEEENKUlRK6OptionINS3_14authentication20AuthenticationResultEEE0_clESX_EUlbE0_JbEEEEclEv+0x71 (/home/bevers/src/mesos/worktrees/state-benchmarking/build-alexr/src/.libs/libmesos-1.8.0.so)
	    7fa4939e8599 _ZNO6lambda12CallableOnceIFvPN7process11ProcessBaseEEE10CallableFnINS_8internal7PartialIZNS1_8internal8DispatchINS1_6FutureINS1_4http8ResponseEEEEclINS0_IFSE_vEEEEESE_RKNS1_4UPIDEOT_EUlSt10unique_ptrINS1_7PromiseISD_EESt14default_deleteISQ_EEOSI_S3_E_JST_SI_St12_PlaceholderILi1EEEEEEclEOS3_+0xc9 (/home/bevers/src/mesos/worktrees/state-benchmarking/build-alexr/src/.libs/libmesos-1.8.0.so)
	    7fa494cb80e2 _ZN7process11ProcessBase7consumeEONS_13DispatchEventE+0x32 (/home/bevers/src/mesos/worktrees/state-benchmarking/build-alexr/src/.libs/libmesos-1.8.0.so)
	    7fa494ccd332 _ZN7process14ProcessManager6resumeEPNS_11ProcessBaseE+0x492 (/home/bevers/src/mesos/worktrees/state-benchmarking/build-alexr/src/.libs/libmesos-1.8.0.so)
	    7fa494cd3606 _ZNSt6thread11_State_implINS_8_InvokerISt5tupleIJZN7process14ProcessManager12init_threadsEvEUlvE_EEEEE6_M_runEv+0x46 (/home/bevers/src/mesos/worktrees/state-benchmarking/build-alexr/src/.libs/libmesos-1.8.0.so)
	    7fa491e43733 [unknown] (/usr/lib/x86_64-linux-gnu/libstdc++.so.6.0.25)

master@127.0.1.1:5050 14784 182029.127809:       5000 cycles:uh: 
	    7fa493bf2842 _ZNSt17_Function_handlerIFN7process6FutureINS0_4http8ResponseEEERKNS2_7RequestERK6OptionINS2_14authentication9PrincipalEEEZN5mesos8internal6master6Master10initializeEvEUlS7_SD_E13_E9_M_invokeERKSt9_Any_dataS7_SD_+0x32 (/home/bevers/src/mesos/worktrees/state-benchmarking/build-alexr/src/.libs/libmesos-1.8.0.so)
	    7fa494cc2351 _ZNO6lambda12CallableOnceIFN7process6FutureINS1_4http8ResponseEEEvEE10CallableFnINS_8internal7PartialIZZNS1_11ProcessBase8_consumeERKNSB_12HttpEndpointERKNSt7__cxx1112basic_stringIcSt11char_traitsIcESaIcEEERKNS1_5OwnedINS3_7RequestEEEENKUlRK6OptionINS3_14authentication20AuthenticationResultEEE0_clESX_EUlbE0_JbEEEEclEv+0x71 (/home/bevers/src/mesos/worktrees/state-benchmarking/build-alexr/src/.libs/libmesos-1.8.0.so)
	    7fa4939e8599 _ZNO6lambda12CallableOnceIFvPN7process11ProcessBaseEEE10CallableFnINS_8internal7PartialIZNS1_8internal8DispatchINS1_6FutureINS1_4http8ResponseEEEEclINS0_IFSE_vEEEEESE_RKNS1_4UPIDEOT_EUlSt10unique_ptrINS1_7PromiseISD_EESt14default_deleteISQ_EEOSI_S3_E_JST_SI_St12_PlaceholderILi1EEEEEEclEOS3_+0xc9 (/home/bevers/src/mesos/worktrees/state-benchmarking/build-alexr/src/.libs/libmesos-1.8.0.so)
	    7fa494cb80e2 _ZN7process11ProcessBase7consumeEONS_13DispatchEventE+0x32 (/home/bevers/src/mesos/worktrees/state-benchmarking/build-alexr/src/.libs/libmesos-1.8.0.so)
	    7fa494ccd332 _ZN7process14ProcessManager6resumeEPNS_11ProcessBaseE+0x492 (/home/bevers/src/mesos/worktrees/state-benchmarking/build-alexr/src/.libs/libmesos-1.8.0.so)
	    7fa494cd3606 _ZNSt6thread11_State_implINS_8_InvokerISt5tupleIJZN7process14ProcessManager12init_threadsEvEUlvE_EEEEE6_M_runEv+0x46 (/home/bevers/src/mesos/worktrees/state-benchmarking/build-alexr/src/.libs/libmesos-1.8.0.so)
	    7fa491e43733 [unknown] (/usr/lib/x86_64-linux-gnu/libstdc++.so.6.0.25)

master@127.0.1.1:5050 14784 182029.127821:       5000 cycles:uh: 
	    7fa493bb2d31 _ZNK5mesos8internal6master6Master4Http5stateERKN7process4http7RequestERK6OptionINS5_14authentication9PrincipalEE+0x1 (/home/bevers/src/mesos/worktrees/state-benchmarking/build-alexr/src/.libs/libmesos-1.8.0.so)
	    7fa494cc2351 _ZNO6lambda12CallableOnceIFN7process6FutureINS1_4http8ResponseEEEvEE10CallableFnINS_8internal7PartialIZZNS1_11ProcessBase8_consumeERKNSB_12HttpEndpointERKNSt7__cxx1112basic_stringIcSt11char_traitsIcESaIcEEERKNS1_5OwnedINS3_7RequestEEEENKUlRK6OptionINS3_14authentication20AuthenticationResultEEE0_clESX_EUlbE0_JbEEEEclEv+0x71 (/home/bevers/src/mesos/worktrees/state-benchmarking/build-alexr/src/.libs/libmesos-1.8.0.so)
	    7fa4939e8599 _ZNO6lambda12CallableOnceIFvPN7process11ProcessBaseEEE10CallableFnINS_8internal7PartialIZNS1_8internal8DispatchINS1_6FutureINS1_4http8ResponseEEEEclINS0_IFSE_vEEEEESE_RKNS1_4UPIDEOT_EUlSt10unique_ptrINS1_7PromiseISD_EESt14default_deleteISQ_EEOSI_S3_E_JST_SI_St12_PlaceholderILi1EEEEEEclEOS3_+0xc9 (/home/bevers/src/mesos/worktrees/state-benchmarking/build-alexr/src/.libs/libmesos-1.8.0.so)
	    7fa494cb80e2 _ZN7process11ProcessBase7consumeEONS_13DispatchEventE+0x32 (/home/bevers/src/mesos/worktrees/state-benchmarking/build-alexr/src/.libs/libmesos-1.8.0.so)
	    7fa494ccd332 _ZN7process14ProcessManager6resumeEPNS_11ProcessBaseE+0x492 (/home/bevers/src/mesos/worktrees/state-benchmarking/build-alexr/src/.libs/libmesos-1.8.0.so)
	    7fa494cd3606 _ZNSt6thread11_State_implINS_8_InvokerISt5tupleIJZN7process14ProcessManager12init_threadsEvEUlvE_EEEEE6_M_runEv+0x46 (/home/bevers/src/mesos/worktrees/state-benchmarking/build-alexr/src/.libs/libmesos-1.8.0.so)
	    7fa491e43733 [unknown] (/usr/lib/x86_64-linux-gnu/libstdc++.so.6.0.25)

master@127.0.1.1:5050 14784 182029.127824:       5000 cycles:uh: 
	    7fa493a577b0 _ZN5mesoseqERKNS_10MasterInfoES2_+0x30 (/home/bevers/src/mesos/worktrees/state-benchmarking/build-alexr/src/.libs/libmesos-1.8.0.so)
	    7fa493bb2d94 _ZNK5mesos8internal6master6Master4Http5stateERKN7process4http7RequestERK6OptionINS5_14authentication9PrincipalEE+0x64 (/home/bevers/src/mesos/worktrees/state-benchmarking/build-alexr/src/.libs/libmesos-1.8.0.so)
	    7fa493bf285a _ZNSt17_Function_handlerIFN7process6FutureINS0_4http8ResponseEEERKNS2_7RequestERK6OptionINS2_14authentication9PrincipalEEEZN5mesos8internal6master6Master10initializeEvEUlS7_SD_E13_E9_M_invokeERKSt9_Any_dataS7_SD_+0x4a (/home/bevers/src/mesos/worktrees/state-benchmarking/build-alexr/src/.libs/libmesos-1.8.0.so)
	    7fa494cc2351 _ZNO6lambda12CallableOnceIFN7process6FutureINS1_4http8ResponseEEEvEE10CallableFnINS_8internal7PartialIZZNS1_11ProcessBase8_consumeERKNSB_12HttpEndpointERKNSt7__cxx1112basic_stringIcSt11char_traitsIcESaIcEEERKNS1_5OwnedINS3_7RequestEEEENKUlRK6OptionINS3_14authentication20AuthenticationResultEEE0_clESX_EUlbE0_JbEEEEclEv+0x71 (/home/bevers/src/mesos/worktrees/state-benchmarking/build-alexr/src/.libs/libmesos-1.8.0.so)
	    7fa4939e8599 _ZNO6lambda12CallableOnceIFvPN7process11ProcessBaseEEE10CallableFnINS_8internal7PartialIZNS1_8internal8DispatchINS1_6FutureINS1_4http8ResponseEEEEclINS0_IFSE_vEEEEESE_RKNS1_4UPIDEOT_EUlSt10unique_ptrINS1_7PromiseISD_EESt14default_deleteISQ_EEOSI_S3_E_JST_SI_St12_PlaceholderILi1EEEEEEclEOS3_+0xc9 (/home/bevers/src/mesos/worktrees/state-benchmarking/build-alexr/src/.libs/libmesos-1.8.0.so)
	    7fa494cb80e2 _ZN7process11ProcessBase7consumeEONS_13DispatchEventE+0x32 (/home/bevers/src/mesos/worktrees/state-benchmarking/build-alexr/src/.libs/libmesos-1.8.0.so)
	    7fa494ccd332 _ZN7process14ProcessManager6resumeEPNS_11ProcessBaseE+0x492 (/home/bevers/src/mesos/worktrees/state-benchmarking/build-alexr/src/.libs/libmesos-1.8.0.so)
	    7fa494cd3606 _ZNSt6thread11_State_implINS_8_InvokerISt5tupleIJZN7process14ProcessManager12init_threadsEvEUlvE_EEEEE6_M_runEv+0x46 (/home/bevers/src/mesos/worktrees/state-benchmarking/build-alexr/src/.libs/libmesos-1.8.0.so)
	    7fa491e43733 [unknown] (/usr/lib/x86_64-linux-gnu/libstdc++.so.6.0.25)

master@127.0.1.1:5050 14784 182029.127827:       5000 cycles:uh: 
	    7fa495d4f7d9 _dl_runtime_resolve_xsavec+0x89 (/lib/x86_64-linux-gnu/ld-2.27.so)
	    7fa493bf285a _ZNSt17_Function_handlerIFN7process6FutureINS0_4http8ResponseEEERKNS2_7RequestERK6OptionINS2_14authentication9PrincipalEEEZN5mesos8internal6master6Master10initializeEvEUlS7_SD_E13_E9_M_invokeERKSt9_Any_dataS7_SD_+0x4a (/home/bevers/src/mesos/worktrees/state-benchmarking/build-alexr/src/.libs/libmesos-1.8.0.so)
	    7fa494cc2351 _ZNO6lambda12CallableOnceIFN7process6FutureINS1_4http8ResponseEEEvEE10CallableFnINS_8internal7PartialIZZNS1_11ProcessBase8_consumeERKNSB_12HttpEndpointERKNSt7__cxx1112basic_stringIcSt11char_traitsIcESaIcEEERKNS1_5OwnedINS3_7RequestEEEENKUlRK6OptionINS3_14authentication20AuthenticationResultEEE0_clESX_EUlbE0_JbEEEEclEv+0x71 (/home/bevers/src/mesos/worktrees/state-benchmarking/build-alexr/src/.libs/libmesos-1.8.0.so)
	    7fa4939e8599 _ZNO6lambda12CallableOnceIFvPN7process11ProcessBaseEEE10CallableFnINS_8internal7PartialIZNS1_8internal8DispatchINS1_6FutureINS1_4http8ResponseEEEEclINS0_IFSE_vEEEEESE_RKNS1_4UPIDEOT_EUlSt10unique_ptrINS1_7PromiseISD_EESt14default_deleteISQ_EEOSI_S3_E_JST_SI_St12_PlaceholderILi1EEEEEEclEOS3_+0xc9 (/home/bevers/src/mesos/worktrees/state-benchmarking/build-alexr/src/.libs/libmesos-1.8.0.so)
	    7fa494cb80e2 _ZN7process11ProcessBase7consumeEONS_13DispatchEventE+0x32 (/home/bevers/src/mesos/worktrees/state-benchmarking/build-alexr/src/.libs/libmesos-1.8.0.so)
	    7fa494ccd332 _ZN7process14ProcessManager6resumeEPNS_11ProcessBaseE+0x492 (/home/bevers/src/mesos/worktrees/state-benchmarking/build-alexr/src/.libs/libmesos-1.8.0.so)
	    7fa494cd3606 _ZNSt6thread11_State_implINS_8_InvokerISt5tupleIJZN7process14ProcessManager12init_threadsEvEUlvE_EEEEE6_M_runEv+0x46 (/home/bevers/src/mesos/worktrees/state-benchmarking/build-alexr/src/.libs/libmesos-1.8.0.so)
	    7fa491e43733 [unknown] (/usr/lib/x86_64-linux-gnu/libstdc++.so.6.0.25)

master@127.0.1.1:5050 14784 182029.127830:       5000 cycles:uh: 
	    7fa49389e1b6 _ZNSt8_Rb_treeIN5mesos13authorization6ActionES2_St9_IdentityIS2_ESt4lessIS2_ESaIS2_EE24_M_get_insert_unique_posERKS2_@plt+0x6 (/home/bevers/src/mesos/worktrees/state-benchmarking/build-alexr/src/.libs/libmesos-1.8.0.so)
	    7fa493bb2e05 _ZNK5mesos8internal6master6Master4Http5stateERKN7process4http7RequestERK6OptionINS5_14authentication9PrincipalEE+0xd5 (/home/bevers/src/mesos/worktrees/state-benchmarking/build-alexr/src/.libs/libmesos-1.8.0.so)
	    7fa493bf285a _ZNSt17_Function_handlerIFN7process6FutureINS0_4http8ResponseEEERKNS2_7RequestERK6OptionINS2_14authentication9PrincipalEEEZN5mesos8internal6master6Master10initializeEvEUlS7_SD_E13_E9_M_invokeERKSt9_Any_dataS7_SD_+0x4a (/home/bevers/src/mesos/worktrees/state-benchmarking/build-alexr/src/.libs/libmesos-1.8.0.so)
	    7fa494cc2351 _ZNO6lambda12CallableOnceIFN7process6FutureINS1_4http8ResponseEEEvEE10CallableFnINS_8internal7PartialIZZNS1_11ProcessBase8_consumeERKNSB_12HttpEndpointERKNSt7__cxx1112basic_stringIcSt11char_traitsIcESaIcEEERKNS1_5OwnedINS3_7RequestEEEENKUlRK6OptionINS3_14authentication20AuthenticationResultEEE0_clESX_EUlbE0_JbEEEEclEv+0x71 (/home/bevers/src/mesos/worktrees/state-benchmarking/build-alexr/src/.libs/libmesos-1.8.0.so)
	    7fa4939e8599 _ZNO6lambda12CallableOnceIFvPN7process11ProcessBaseEEE10CallableFnINS_8internal7PartialIZNS1_8internal8DispatchINS1_6FutureINS1_4http8ResponseEEEEclINS0_IFSE_vEEEEESE_RKNS1_4UPIDEOT_EUlSt10unique_ptrINS1_7PromiseISD_EESt14default_deleteISQ_EEOSI_S3_E_JST_SI_St12_PlaceholderILi1EEEEEEclEOS3_+0xc9 (/home/bevers/src/mesos/worktrees/state-benchmarking/build-alexr/src/.libs/libmesos-1.8.0.so)
	    7fa494cb80e2 _ZN7process11ProcessBase7consumeEONS_13DispatchEventE+0x32 (/home/bevers/src/mesos/worktrees/state-benchmarking/build-alexr/src/.libs/libmesos-1.8.0.so)
	    7fa494ccd332 _ZN7process14ProcessManager6resumeEPNS_11ProcessBaseE+0x492 (/home/bevers/src/mesos/worktrees/state-benchmarking/build-alexr/src/.libs/libmesos-1.8.0.so)
	    7fa494cd3606 _ZNSt6thread11_State_implINS_8_InvokerISt5tupleIJZN7process14ProcessManager12init_threadsEvEUlvE_EEEEE6_M_runEv+0x46 (/home/bevers/src/mesos/worktrees/state-benchmarking/build-alexr/src/.libs/libmesos-1.8.0.so)
	    7fa491e43733 [unknown] (/usr/lib/x86_64-linux-gnu/libstdc++.so.6.0.25)

master@127.0.1.1:5050 14784 182029.127833:       5000 cycles:uh: 
	    7fa4938c0e26 _ZN5mesos13authorization13createSubjectERK6OptionIN7process4http14authentication9PrincipalEE@plt+0x6 (/home/bevers/src/mesos/worktrees/state-benchmarking/build-alexr/src/.libs/libmesos-1.8.0.so)
	    7fa493bb2e05 _ZNK5mesos8internal6master6Master4Http5stateERKN7process4http7RequestERK6OptionINS5_14authentication9PrincipalEE+0xd5 (/home/bevers/src/mesos/worktrees/state-benchmarking/build-alexr/src/.libs/libmesos-1.8.0.so)
	    7fa493bf285a _ZNSt17_Function_handlerIFN7process6FutureINS0_4http8ResponseEEERKNS2_7RequestERK6OptionINS2_14authentication9PrincipalEEEZN5mesos8internal6master6Master10initializeEvEUlS7_SD_E13_E9_M_invokeERKSt9_Any_dataS7_SD_+0x4a (/home/bevers/src/mesos/worktrees/state-benchmarking/build-alexr/src/.libs/libmesos-1.8.0.so)
	    7fa494cc2351 _ZNO6lambda12CallableOnceIFN7process6FutureINS1_4http8ResponseEEEvEE10CallableFnINS_8internal7PartialIZZNS1_11ProcessBase8_consumeERKNSB_12HttpEndpointERKNSt7__cxx1112basic_stringIcSt11char_traitsIcESaIcEEERKNS1_5OwnedINS3_7RequestEEEENKUlRK6OptionINS3_14authentication20AuthenticationResultEEE0_clESX_EUlbE0_JbEEEEclEv+0x71 (/home/bevers/src/mesos/worktrees/state-benchmarking/build-alexr/src/.libs/libmesos-1.8.0.so)
	    7fa4939e8599 _ZNO6lambda12CallableOnceIFvPN7process11ProcessBaseEEE10CallableFnINS_8internal7PartialIZNS1_8internal8DispatchINS1_6FutureINS1_4http8ResponseEEEEclINS0_IFSE_vEEEEESE_RKNS1_4UPIDEOT_EUlSt10unique_ptrINS1_7PromiseISD_EESt14default_deleteISQ_EEOSI_S3_E_JST_SI_St12_PlaceholderILi1EEEEEEclEOS3_+0xc9 (/home/bevers/src/mesos/worktrees/state-benchmarking/build-alexr/src/.libs/libmesos-1.8.0.so)
	    7fa494cb80e2 _ZN7process11ProcessBase7consumeEONS_13DispatchEventE+0x32 (/home/bevers/src/mesos/worktrees/state-benchmarking/build-alexr/src/.libs/libmesos-1.8.0.so)
	    7fa494ccd332 _ZN7process14ProcessManager6resumeEPNS_11ProcessBaseE+0x492 (/home/bevers/src/mesos/worktrees/state-benchmarking/build-alexr/src/.libs/libmesos-1.8.0.so)
	    7fa494cd3606 _ZNSt6thread11_State_implINS_8_InvokerISt5tupleIJZN7process14ProcessManager12init_threadsEvEUlvE_EEEEE6_M_runEv+0x46 (/home/bevers/src/mesos/worktrees/state-benchmarking/build-alexr/src/.libs/libmesos-1.8.0.so)
	    7fa491e43733 [unknown] (/usr/lib/x86_64-linux-gnu/libstdc++.so.6.0.25)

master@127.0.1.1:5050 14784 182029.127836:       5000 cycles:uh: 
	    7fa495d43106 _dl_lookup_symbol_x+0x56 (/lib/x86_64-linux-gnu/ld-2.27.so)

master@127.0.1.1:5050 14784 182029.127839:       5000 cycles:uh: 
	    7fa495d42709 do_lookup_x+0x4c9 (/lib/x86_64-linux-gnu/ld-2.27.so)
	               0 [unknown] ([unknown])

master@127.0.1.1:5050 14784 182029.127842:       5000 cycles:uh: 
	    7fa495d42709 do_lookup_x+0x4c9 (/lib/x86_64-linux-gnu/ld-2.27.so)
	               0 [unknown] ([unknown])

master@127.0.1.1:5050 14784 182029.127845:       5000 cycles:uh: 
	    7fa495d422fb do_lookup_x+0xbb (/lib/x86_64-linux-gnu/ld-2.27.so)

master@127.0.1.1:5050 14784 182029.127848:       5000 cycles:uh: 
	    7fa495d42709 do_lookup_x+0x4c9 (/lib/x86_64-linux-gnu/ld-2.27.so)
	               0 [unknown] ([unknown])

master@127.0.1.1:5050 14784 182029.127850:       5000 cycles:uh: 
	    7fa491e41f8d _ZNKSt8__detail20_Prime_rehash_policy11_M_next_bktEm+0x19d (/usr/lib/x86_64-linux-gnu/libstdc++.so.6.0.25)
	    7fa493a06233 _ZN5mesos15ObjectApprovers6createERK6OptionIPNS_10AuthorizerEERKS1_IN7process4http14authentication9PrincipalEESt16initializer_listINS_13authorization6ActionEE+0x233 (/home/bevers/src/mesos/worktrees/state-benchmarking/build-alexr/src/.libs/libmesos-1.8.0.so)
	    7fa493bb2e05 _ZNK5mesos8internal6master6Master4Http5stateERKN7process4http7RequestERK6OptionINS5_14authentication9PrincipalEE+0xd5 (/home/bevers/src/mesos/worktrees/state-benchmarking/build-alexr/src/.libs/libmesos-1.8.0.so)
	    7fa493bf285a _ZNSt17_Function_handlerIFN7process6FutureINS0_4http8ResponseEEERKNS2_7RequestERK6OptionINS2_14authentication9PrincipalEEEZN5mesos8internal6master6Master10initializeEvEUlS7_SD_E13_E9_M_invokeERKSt9_Any_dataS7_SD_+0x4a (/home/bevers/src/mesos/worktrees/state-benchmarking/build-alexr/src/.libs/libmesos-1.8.0.so)
	    7fa494cc2351 _ZNO6lambda12CallableOnceIFN7process6FutureINS1_4http8ResponseEEEvEE10CallableFnINS_8internal7PartialIZZNS1_11ProcessBase8_consumeERKNSB_12HttpEndpointERKNSt7__cxx1112basic_stringIcSt11char_traitsIcESaIcEEERKNS1_5OwnedINS3_7RequestEEEENKUlRK6OptionINS3_14authentication20AuthenticationResultEEE0_clESX_EUlbE0_JbEEEEclEv+0x71 (/home/bevers/src/mesos/worktrees/state-benchmarking/build-alexr/src/.libs/libmesos-1.8.0.so)
	    7fa4939e8599 _ZNO6lambda12CallableOnceIFvPN7process11ProcessBaseEEE10CallableFnINS_8internal7PartialIZNS1_8internal8DispatchINS1_6FutureINS1_4http8ResponseEEEEclINS0_IFSE_vEEEEESE_RKNS1_4UPIDEOT_EUlSt10unique_ptrINS1_7PromiseISD_EESt14default_deleteISQ_EEOSI_S3_E_JST_SI_St12_PlaceholderILi1EEEEEEclEOS3_+0xc9 (/home/bevers/src/mesos/worktrees/state-benchmarking/build-alexr/src/.libs/libmesos-1.8.0.so)
	    7fa494cb80e2 _ZN7process11ProcessBase7consumeEONS_13DispatchEventE+0x32 (/home/bevers/src/mesos/worktrees/state-benchmarking/build-alexr/src/.libs/libmesos-1.8.0.so)
	    7fa494ccd332 _ZN7process14ProcessManager6resumeEPNS_11ProcessBaseE+0x492 (/home/bevers/src/mesos/worktrees/state-benchmarking/build-alexr/src/.libs/libmesos-1.8.0.so)
	    7fa494cd3606 _ZNSt6thread11_State_implINS_8_InvokerISt5tupleIJZN7process14ProcessManager12init_threadsEvEUlvE_EEEEE6_M_runEv+0x46 (/home/bevers/src/mesos/worktrees/state-benchmarking/build-alexr/src/.libs/libmesos-1.8.0.so)
	    7fa491e43733 [unknown] (/usr/lib/x86_64-linux-gnu/libstdc++.so.6.0.25)

master@127.0.1.1:5050 14784 182029.127854:       5000 cycles:uh: 
	    7fa495d43106 _dl_lookup_symbol_x+0x56 (/lib/x86_64-linux-gnu/ld-2.27.so)

master@127.0.1.1:5050 14784 182029.127856:       5000 cycles:uh: 
	    7fa495d422fb do_lookup_x+0xbb (/lib/x86_64-linux-gnu/ld-2.27.so)

master@127.0.1.1:5050 14784 182029.127859:       5000 cycles:uh: 
	    7fa49180c20a malloc+0x19a (/lib/x86_64-linux-gnu/libc-2.27.so)

master@127.0.1.1:5050 14784 182029.127862:       5000 cycles:uh: 
	    7fa495d430cd _dl_lookup_symbol_x+0x1d (/lib/x86_64-linux-gnu/ld-2.27.so)
	    7fa493a13229 _ZN7process6FutureINS_5OwnedIN5mesos15ObjectApproversEEEEC1EOS4_+0x149 (/home/bevers/src/mesos/worktrees/state-benchmarking/build-alexr/src/.libs/libmesos-1.8.0.so)
	    7fa493a062ac _ZN5mesos15ObjectApprovers6createERK6OptionIPNS_10AuthorizerEERKS1_IN7process4http14authentication9PrincipalEESt16initializer_listINS_13authorization6ActionEE+0x2ac (/home/bevers/src/mesos/worktrees/state-benchmarking/build-alexr/src/.libs/libmesos-1.8.0.so)
	    7fa493bb2e05 _ZNK5mesos8internal6master6Master4Http5stateERKN7process4http7RequestERK6OptionINS5_14authentication9PrincipalEE+0xd5 (/home/bevers/src/mesos/worktrees/state-benchmarking/build-alexr/src/.libs/libmesos-1.8.0.so)
	    7fa493bf285a _ZNSt17_Function_handlerIFN7process6FutureINS0_4http8ResponseEEERKNS2_7RequestERK6OptionINS2_14authentication9PrincipalEEEZN5mesos8internal6master6Master10initializeEvEUlS7_SD_E13_E9_M_invokeERKSt9_Any_dataS7_SD_+0x4a (/home/bevers/src/mesos/worktrees/state-benchmarking/build-alexr/src/.libs/libmesos-1.8.0.so)
	    7fa494cc2351 _ZNO6lambda12CallableOnceIFN7process6FutureINS1_4http8ResponseEEEvEE10CallableFnINS_8internal7PartialIZZNS1_11ProcessBase8_consumeERKNSB_12HttpEndpointERKNSt7__cxx1112basic_stringIcSt11char_traitsIcESaIcEEERKNS1_5OwnedINS3_7RequestEEEENKUlRK6OptionINS3_14authentication20AuthenticationResultEEE0_clESX_EUlbE0_JbEEEEclEv+0x71 (/home/bevers/src/mesos/worktrees/state-benchmarking/build-alexr/src/.libs/libmesos-1.8.0.so)
	    7fa4939e8599 _ZNO6lambda12CallableOnceIFvPN7process11ProcessBaseEEE10CallableFnINS_8internal7PartialIZNS1_8internal8DispatchINS1_6FutureINS1_4http8ResponseEEEEclINS0_IFSE_vEEEEESE_RKNS1_4UPIDEOT_EUlSt10unique_ptrINS1_7PromiseISD_EESt14default_deleteISQ_EEOSI_S3_E_JST_SI_St12_PlaceholderILi1EEEEEEclEOS3_+0xc9 (/home/bevers/src/mesos/worktrees/state-benchmarking/build-alexr/src/.libs/libmesos-1.8.0.so)
	    7fa494cb80e2 _ZN7process11ProcessBase7consumeEONS_13DispatchEventE+0x32 (/home/bevers/src/mesos/worktrees/state-benchmarking/build-alexr/src/.libs/libmesos-1.8.0.so)
	    7fa494ccd332 _ZN7process14ProcessManager6resumeEPNS_11ProcessBaseE+0x492 (/home/bevers/src/mesos/worktrees/state-benchmarking/build-alexr/src/.libs/libmesos-1.8.0.so)
	    7fa494cd3606 _ZNSt6thread11_State_implINS_8_InvokerISt5tupleIJZN7process14ProcessManager12init_threadsEvEUlvE_EEEEE6_M_runEv+0x46 (/home/bevers/src/mesos/worktrees/state-benchmarking/build-alexr/src/.libs/libmesos-1.8.0.so)
	    7fa491e43733 [unknown] (/usr/lib/x86_64-linux-gnu/libstdc++.so.6.0.25)

master@127.0.1.1:5050 14784 182029.127865:       5000 cycles:uh: 
	    7fa495d4f7d9 _dl_runtime_resolve_xsavec+0x89 (/lib/x86_64-linux-gnu/ld-2.27.so)
	    7fa493a13229 _ZN7process6FutureINS_5OwnedIN5mesos15ObjectApproversEEEEC1EOS4_+0x149 (/home/bevers/src/mesos/worktrees/state-benchmarking/build-alexr/src/.libs/libmesos-1.8.0.so)
	    7fa493a062ac _ZN5mesos15ObjectApprovers6createERK6OptionIPNS_10AuthorizerEERKS1_IN7process4http14authentication9PrincipalEESt16initializer_listINS_13authorization6ActionEE+0x2ac (/home/bevers/src/mesos/worktrees/state-benchmarking/build-alexr/src/.libs/libmesos-1.8.0.so)
	    7fa493bb2e05 _ZNK5mesos8internal6master6Master4Http5stateERKN7process4http7RequestERK6OptionINS5_14authentication9PrincipalEE+0xd5 (/home/bevers/src/mesos/worktrees/state-benchmarking/build-alexr/src/.libs/libmesos-1.8.0.so)
	    7fa493bf285a _ZNSt17_Function_handlerIFN7process6FutureINS0_4http8ResponseEEERKNS2_7RequestERK6OptionINS2_14authentication9PrincipalEEEZN5mesos8internal6master6Master10initializeEvEUlS7_SD_E13_E9_M_invokeERKSt9_Any_dataS7_SD_+0x4a (/home/bevers/src/mesos/worktrees/state-benchmarking/build-alexr/src/.libs/libmesos-1.8.0.so)
	    7fa494cc2351 _ZNO6lambda12CallableOnceIFN7process6FutureINS1_4http8ResponseEEEvEE10CallableFnINS_8internal7PartialIZZNS1_11ProcessBase8_consumeERKNSB_12HttpEndpointERKNSt7__cxx1112basic_stringIcSt11char_traitsIcESaIcEEERKNS1_5OwnedINS3_7RequestEEEENKUlRK6OptionINS3_14authentication20AuthenticationResultEEE0_clESX_EUlbE0_JbEEEEclEv+0x71 (/home/bevers/src/mesos/worktrees/state-benchmarking/build-alexr/src/.libs/libmesos-1.8.0.so)
	    7fa4939e8599 _ZNO6lambda12CallableOnceIFvPN7process11ProcessBaseEEE10CallableFnINS_8internal7PartialIZNS1_8internal8DispatchINS1_6FutureINS1_4http8ResponseEEEEclINS0_IFSE_vEEEEESE_RKNS1_4UPIDEOT_EUlSt10unique_ptrINS1_7PromiseISD_EESt14default_deleteISQ_EEOSI_S3_E_JST_SI_St12_PlaceholderILi1EEEEEEclEOS3_+0xc9 (/home/bevers/src/mesos/worktrees/state-benchmarking/build-alexr/src/.libs/libmesos-1.8.0.so)
	    7fa494cb80e2 _ZN7process11ProcessBase7consumeEONS_13DispatchEventE+0x32 (/home/bevers/src/mesos/worktrees/state-benchmarking/build-alexr/src/.libs/libmesos-1.8.0.so)
	    7fa494ccd332 _ZN7process14ProcessManager6resumeEPNS_11ProcessBaseE+0x492 (/home/bevers/src/mesos/worktrees/state-benchmarking/build-alexr/src/.libs/libmesos-1.8.0.so)
	    7fa494cd3606 _ZNSt6thread11_State_implINS_8_InvokerISt5tupleIJZN7process14ProcessManager12init_threadsEvEUlvE_EEEEE6_M_runEv+0x46 (/home/bevers/src/mesos/worktrees/state-benchmarking/build-alexr/src/.libs/libmesos-1.8.0.so)
	    7fa491e43733 [unknown] (/usr/lib/x86_64-linux-gnu/libstdc++.so.6.0.25)

master@127.0.1.1:5050 14784 182029.127868:       5000 cycles:uh: 
	    7fa495d47e4b _dl_fixup+0x5b (/lib/x86_64-linux-gnu/ld-2.27.so)
	    7fa493a13229 _ZN7process6FutureINS_5OwnedIN5mesos15ObjectApproversEEEEC1EOS4_+0x149 (/home/bevers/src/mesos/worktrees/state-benchmarking/build-alexr/src/.libs/libmesos-1.8.0.so)
	    7fa493a062ac _ZN5mesos15ObjectApprovers6createERK6OptionIPNS_10AuthorizerEERKS1_IN7process4http14authentication9PrincipalEESt16initializer_listINS_13authorization6ActionEE+0x2ac (/home/bevers/src/mesos/worktrees/state-benchmarking/build-alexr/src/.libs/libmesos-1.8.0.so)
	    7fa493bb2e05 _ZNK5mesos8internal6master6Master4Http5stateERKN7process4http7RequestERK6OptionINS5_14authentication9PrincipalEE+0xd5 (/home/bevers/src/mesos/worktrees/state-benchmarking/build-alexr/src/.libs/libmesos-1.8.0.so)
	    7fa493bf285a _ZNSt17_Function_handlerIFN7process6FutureINS0_4http8ResponseEEERKNS2_7RequestERK6OptionINS2_14authentication9PrincipalEEEZN5mesos8internal6master6Master10initializeEvEUlS7_SD_E13_E9_M_invokeERKSt9_Any_dataS7_SD_+0x4a (/home/bevers/src/mesos/worktrees/state-benchmarking/build-alexr/src/.libs/libmesos-1.8.0.so)
	    7fa494cc2351 _ZNO6lambda12CallableOnceIFN7process6FutureINS1_4http8ResponseEEEvEE10CallableFnINS_8internal7PartialIZZNS1_11ProcessBase8_consumeERKNSB_12HttpEndpointERKNSt7__cxx1112basic_stringIcSt11char_traitsIcESaIcEEERKNS1_5OwnedINS3_7RequestEEEENKUlRK6OptionINS3_14authentication20AuthenticationResultEEE0_clESX_EUlbE0_JbEEEEclEv+0x71 (/home/bevers/src/mesos/worktrees/state-benchmarking/build-alexr/src/.libs/libmesos-1.8.0.so)
	    7fa4939e8599 _ZNO6lambda12CallableOnceIFvPN7process11ProcessBaseEEE10CallableFnINS_8internal7PartialIZNS1_8internal8DispatchINS1_6FutureINS1_4http8ResponseEEEEclINS0_IFSE_vEEEEESE_RKNS1_4UPIDEOT_EUlSt10unique_ptrINS1_7PromiseISD_EESt14default_deleteISQ_EEOSI_S3_E_JST_SI_St12_PlaceholderILi1EEEEEEclEOS3_+0xc9 (/home/bevers/src/mesos/worktrees/state-benchmarking/build-alexr/src/.libs/libmesos-1.8.0.so)
	    7fa494cb80e2 _ZN7process11ProcessBase7consumeEONS_13DispatchEventE+0x32 (/home/bevers/src/mesos/worktrees/state-benchmarking/build-alexr/src/.libs/libmesos-1.8.0.so)
	    7fa494ccd332 _ZN7process14ProcessManager6resumeEPNS_11ProcessBaseE+0x492 (/home/bevers/src/mesos/worktrees/state-benchmarking/build-alexr/src/.libs/libmesos-1.8.0.so)
	    7fa494cd3606 _ZNSt6thread11_State_implINS_8_InvokerISt5tupleIJZN7process14ProcessManager12init_threadsEvEUlvE_EEEEE6_M_runEv+0x46 (/home/bevers/src/mesos/worktrees/state-benchmarking/build-alexr/src/.libs/libmesos-1.8.0.so)
	    7fa491e43733 [unknown] (/usr/lib/x86_64-linux-gnu/libstdc++.so.6.0.25)

master@127.0.1.1:5050 14784 182029.127871:       5000 cycles:uh: 
	    7fa495d42709 do_lookup_x+0x4c9 (/lib/x86_64-linux-gnu/ld-2.27.so)
	               0 [unknown] ([unknown])

master@127.0.1.1:5050 14784 182029.127875:       5000 cycles:uh: 
	    7fa495d47e4b _dl_fixup+0x5b (/lib/x86_64-linux-gnu/ld-2.27.so)
	    7fa493a13229 _ZN7process6FutureINS_5OwnedIN5mesos15ObjectApproversEEEEC1EOS4_+0x149 (/home/bevers/src/mesos/worktrees/state-benchmarking/build-alexr/src/.libs/libmesos-1.8.0.so)
	    7fa493a062ac _ZN5mesos15ObjectApprovers6createERK6OptionIPNS_10AuthorizerEERKS1_IN7process4http14authentication9PrincipalEESt16initializer_listINS_13authorization6ActionEE+0x2ac (/home/bevers/src/mesos/worktrees/state-benchmarking/build-alexr/src/.libs/libmesos-1.8.0.so)
	    7fa493bb2e05 _ZNK5mesos8internal6master6Master4Http5stateERKN7process4http7RequestERK6OptionINS5_14authentication9PrincipalEE+0xd5 (/home/bevers/src/mesos/worktrees/state-benchmarking/build-alexr/src/.libs/libmesos-1.8.0.so)
	    7fa493bf285a _ZNSt17_Function_handlerIFN7process6FutureINS0_4http8ResponseEEERKNS2_7RequestERK6OptionINS2_14authentication9PrincipalEEEZN5mesos8internal6master6Master10initializeEvEUlS7_SD_E13_E9_M_invokeERKSt9_Any_dataS7_SD_+0x4a (/home/bevers/src/mesos/worktrees/state-benchmarking/build-alexr/src/.libs/libmesos-1.8.0.so)
	    7fa494cc2351 _ZNO6lambda12CallableOnceIFN7process6FutureINS1_4http8ResponseEEEvEE10CallableFnINS_8internal7PartialIZZNS1_11ProcessBase8_consumeERKNSB_12HttpEndpointERKNSt7__cxx1112basic_stringIcSt11char_traitsIcESaIcEEERKNS1_5OwnedINS3_7RequestEEEENKUlRK6OptionINS3_14authentication20AuthenticationResultEEE0_clESX_EUlbE0_JbEEEEclEv+0x71 (/home/bevers/src/mesos/worktrees/state-benchmarking/build-alexr/src/.libs/libmesos-1.8.0.so)
	    7fa4939e8599 _ZNO6lambda12CallableOnceIFvPN7process11ProcessBaseEEE10CallableFnINS_8internal7PartialIZNS1_8internal8DispatchINS1_6FutureINS1_4http8ResponseEEEEclINS0_IFSE_vEEEEESE_RKNS1_4UPIDEOT_EUlSt10unique_ptrINS1_7PromiseISD_EESt14default_deleteISQ_EEOSI_S3_E_JST_SI_St12_PlaceholderILi1EEEEEEclEOS3_+0xc9 (/home/bevers/src/mesos/worktrees/state-benchmarking/build-alexr/src/.libs/libmesos-1.8.0.so)
	    7fa494cb80e2 _ZN7process11ProcessBase7consumeEONS_13DispatchEventE+0x32 (/home/bevers/src/mesos/worktrees/state-benchmarking/build-alexr/src/.libs/libmesos-1.8.0.so)
	    7fa494ccd332 _ZN7process14ProcessManager6resumeEPNS_11ProcessBaseE+0x492 (/home/bevers/src/mesos/worktrees/state-benchmarking/build-alexr/src/.libs/libmesos-1.8.0.so)
	    7fa494cd3606 _ZNSt6thread11_State_implINS_8_InvokerISt5tupleIJZN7process14ProcessManager12init_threadsEvEUlvE_EEEEE6_M_runEv+0x46 (/home/bevers/src/mesos/worktrees/state-benchmarking/build-alexr/src/.libs/libmesos-1.8.0.so)
	    7fa491e43733 [unknown] (/usr/lib/x86_64-linux-gnu/libstdc++.so.6.0.25)

master@127.0.1.1:5050 14784 182029.127879:       5000 cycles:uh: 
	    7fa495d42709 do_lookup_x+0x4c9 (/lib/x86_64-linux-gnu/ld-2.27.so)
	               0 [unknown] ([unknown])

master@127.0.1.1:5050 14784 182029.127882:       5000 cycles:uh: 
	    7fa4938d6ea6 _ZNSt8_Rb_treeIN5mesos13authorization6ActionES2_St9_IdentityIS2_ESt4lessIS2_ESaIS2_EE8_M_eraseEPSt13_Rb_tree_nodeIS2_E@plt+0x6 (/home/bevers/src/mesos/worktrees/state-benchmarking/build-alexr/src/.libs/libmesos-1.8.0.so)
	    7fa493bb2e05 _ZNK5mesos8internal6master6Master4Http5stateERKN7process4http7RequestERK6OptionINS5_14authentication9PrincipalEE+0xd5 (/home/bevers/src/mesos/worktrees/state-benchmarking/build-alexr/src/.libs/libmesos-1.8.0.so)
	    7fa493bf285a _ZNSt17_Function_handlerIFN7process6FutureINS0_4http8ResponseEEERKNS2_7RequestERK6OptionINS2_14authentication9PrincipalEEEZN5mesos8internal6master6Master10initializeEvEUlS7_SD_E13_E9_M_invokeERKSt9_Any_dataS7_SD_+0x4a (/home/bevers/src/mesos/worktrees/state-benchmarking/build-alexr/src/.libs/libmesos-1.8.0.so)
	    7fa494cc2351 _ZNO6lambda12CallableOnceIFN7process6FutureINS1_4http8ResponseEEEvEE10CallableFnINS_8internal7PartialIZZNS1_11ProcessBase8_consumeERKNSB_12HttpEndpointERKNSt7__cxx1112basic_stringIcSt11char_traitsIcESaIcEEERKNS1_5OwnedINS3_7RequestEEEENKUlRK6OptionINS3_14authentication20AuthenticationResultEEE0_clESX_EUlbE0_JbEEEEclEv+0x71 (/home/bevers/src/mesos/worktrees/state-benchmarking/build-alexr/src/.libs/libmesos-1.8.0.so)
	    7fa4939e8599 _ZNO6lambda12CallableOnceIFvPN7process11ProcessBaseEEE10CallableFnINS_8internal7PartialIZNS1_8internal8DispatchINS1_6FutureINS1_4http8ResponseEEEEclINS0_IFSE_vEEEEESE_RKNS1_4UPIDEOT_EUlSt10unique_ptrINS1_7PromiseISD_EESt14default_deleteISQ_EEOSI_S3_E_JST_SI_St12_PlaceholderILi1EEEEEEclEOS3_+0xc9 (/home/bevers/src/mesos/worktrees/state-benchmarking/build-alexr/src/.libs/libmesos-1.8.0.so)
	    7fa494cb80e2 _ZN7process11ProcessBase7consumeEONS_13DispatchEventE+0x32 (/home/bevers/src/mesos/worktrees/state-benchmarking/build-alexr/src/.libs/libmesos-1.8.0.so)
	    7fa494ccd332 _ZN7process14ProcessManager6resumeEPNS_11ProcessBaseE+0x492 (/home/bevers/src/mesos/worktrees/state-benchmarking/build-alexr/src/.libs/libmesos-1.8.0.so)
	    7fa494cd3606 _ZNSt6thread11_State_implINS_8_InvokerISt5tupleIJZN7process14ProcessManager12init_threadsEvEUlvE_EEEEE6_M_runEv+0x46 (/home/bevers/src/mesos/worktrees/state-benchmarking/build-alexr/src/.libs/libmesos-1.8.0.so)
	    7fa491e43733 [unknown] (/usr/lib/x86_64-linux-gnu/libstdc++.so.6.0.25)

master@127.0.1.1:5050 14784 182029.127885:       5000 cycles:uh: 
	    7fa49396cbe0 _ZNSt7__cxx1112basic_stringIcSt11char_traitsIcESaIcEE12_M_constructIPKcEEvT_S8_St20forward_iterator_tag.isra.264+0x0 (/home/bevers/src/mesos/worktrees/state-benchmarking/build-alexr/src/.libs/libmesos-1.8.0.so)
	    7fa493bb2e18 _ZNK5mesos8internal6master6Master4Http5stateERKN7process4http7RequestERK6OptionINS5_14authentication9PrincipalEE+0xe8 (/home/bevers/src/mesos/worktrees/state-benchmarking/build-alexr/src/.libs/libmesos-1.8.0.so)
	    7fa493bf285a _ZNSt17_Function_handlerIFN7process6FutureINS0_4http8ResponseEEERKNS2_7RequestERK6OptionINS2_14authentication9PrincipalEEEZN5mesos8internal6master6Master10initializeEvEUlS7_SD_E13_E9_M_invokeERKSt9_Any_dataS7_SD_+0x4a (/home/bevers/src/mesos/worktrees/state-benchmarking/build-alexr/src/.libs/libmesos-1.8.0.so)
	    7fa494cc2351 _ZNO6lambda12CallableOnceIFN7process6FutureINS1_4http8ResponseEEEvEE10CallableFnINS_8internal7PartialIZZNS1_11ProcessBase8_consumeERKNSB_12HttpEndpointERKNSt7__cxx1112basic_stringIcSt11char_traitsIcESaIcEEERKNS1_5OwnedINS3_7RequestEEEENKUlRK6OptionINS3_14authentication20AuthenticationResultEEE0_clESX_EUlbE0_JbEEEEclEv+0x71 (/home/bevers/src/mesos/worktrees/state-benchmarking/build-alexr/src/.libs/libmesos-1.8.0.so)
	    7fa4939e8599 _ZNO6lambda12CallableOnceIFvPN7process11ProcessBaseEEE10CallableFnINS_8internal7PartialIZNS1_8internal8DispatchINS1_6FutureINS1_4http8ResponseEEEEclINS0_IFSE_vEEEEESE_RKNS1_4UPIDEOT_EUlSt10unique_ptrINS1_7PromiseISD_EESt14default_deleteISQ_EEOSI_S3_E_JST_SI_St12_PlaceholderILi1EEEEEEclEOS3_+0xc9 (/home/bevers/src/mesos/worktrees/state-benchmarking/build-alexr/src/.libs/libmesos-1.8.0.so)
	    7fa494cb80e2 _ZN7process11ProcessBase7consumeEONS_13DispatchEventE+0x32 (/home/bevers/src/mesos/worktrees/state-benchmarking/build-alexr/src/.libs/libmesos-1.8.0.so)
	    7fa494ccd332 _ZN7process14ProcessManager6resumeEPNS_11ProcessBaseE+0x492 (/home/bevers/src/mesos/worktrees/state-benchmarking/build-alexr/src/.libs/libmesos-1.8.0.so)
	    7fa494cd3606 _ZNSt6thread11_State_implINS_8_InvokerISt5tupleIJZN7process14ProcessManager12init_threadsEvEUlvE_EEEEE6_M_runEv+0x46 (/home/bevers/src/mesos/worktrees/state-benchmarking/build-alexr/src/.libs/libmesos-1.8.0.so)
	    7fa491e43733 [unknown] (/usr/lib/x86_64-linux-gnu/libstdc++.so.6.0.25)

master@127.0.1.1:5050 14784 182029.127888:       5000 cycles:uh: 
	    7fa491903ae7 __memmove_avx_unaligned_erms+0x17 (/lib/x86_64-linux-gnu/libc-2.27.so)
	    55af36d4e4af _ZNSt8__detail16_Hashtable_allocISaINS_10_Hash_nodeISt4pairIKNSt7__cxx1112basic_stringIcSt11char_traitsIcESaIcEEES8_ELb1EEEEE16_M_allocate_nodeIJRKSA_EEEPSB_DpOT_.isra.399+0x5f (/home/bevers/src/mesos/worktrees/state-benchmarking/build-alexr/src/.libs/mesos-master)
	    55af36d55a97 _ZNSt10_HashtableINSt7__cxx1112basic_stringIcSt11char_traitsIcESaIcEEESt4pairIKS5_S5_ESaIS8_ENSt8__detail10_Select1stEN7process4http20CaseInsensitiveEqualENSD_19CaseInsensitiveHashENSA_18_Mod_range_hashingENSA_20_Default_ranged_hashENSA_20_Prime_rehash_policyENSA_17_Hashtable_traitsILb1ELb0ELb1EEEE9_M_assignIZNSL_C4ERKSL_EUlPKNSA_10_Hash_nodeIS8_Lb1EEEE_EEvSO_RKT_+0x87 (/home/bevers/src/mesos/worktrees/state-benchmarking/build-alexr/src/.libs/mesos-master)
	    7fa493978fe7 _ZN7process4http7RequestC2ERKS1_+0x1d7 (/home/bevers/src/mesos/worktrees/state-benchmarking/build-alexr/src/.libs/libmesos-1.8.0.so)
	    7fa493bb2e18 _ZNK5mesos8internal6master6Master4Http5stateERKN7process4http7RequestERK6OptionINS5_14authentication9PrincipalEE+0xe8 (/home/bevers/src/mesos/worktrees/state-benchmarking/build-alexr/src/.libs/libmesos-1.8.0.so)
	    7fa493bf285a _ZNSt17_Function_handlerIFN7process6FutureINS0_4http8ResponseEEERKNS2_7RequestERK6OptionINS2_14authentication9PrincipalEEEZN5mesos8internal6master6Master10initializeEvEUlS7_SD_E13_E9_M_invokeERKSt9_Any_dataS7_SD_+0x4a (/home/bevers/src/mesos/worktrees/state-benchmarking/build-alexr/src/.libs/libmesos-1.8.0.so)
	    7fa494cc2351 _ZNO6lambda12CallableOnceIFN7process6FutureINS1_4http8ResponseEEEvEE10CallableFnINS_8internal7PartialIZZNS1_11ProcessBase8_consumeERKNSB_12HttpEndpointERKNSt7__cxx1112basic_stringIcSt11char_traitsIcESaIcEEERKNS1_5OwnedINS3_7RequestEEEENKUlRK6OptionINS3_14authentication20AuthenticationResultEEE0_clESX_EUlbE0_JbEEEEclEv+0x71 (/home/bevers/src/mesos/worktrees/state-benchmarking/build-alexr/src/.libs/libmesos-1.8.0.so)
	    7fa4939e8599 _ZNO6lambda12CallableOnceIFvPN7process11ProcessBaseEEE10CallableFnINS_8internal7PartialIZNS1_8internal8DispatchINS1_6FutureINS1_4http8ResponseEEEEclINS0_IFSE_vEEEEESE_RKNS1_4UPIDEOT_EUlSt10unique_ptrINS1_7PromiseISD_EESt14default_deleteISQ_EEOSI_S3_E_JST_SI_St12_PlaceholderILi1EEEEEEclEOS3_+0xc9 (/home/bevers/src/mesos/worktrees/state-benchmarking/build-alexr/src/.libs/libmesos-1.8.0.so)
	    7fa494cb80e2 _ZN7process11ProcessBase7consumeEONS_13DispatchEventE+0x32 (/home/bevers/src/mesos/worktrees/state-benchmarking/build-alexr/src/.libs/libmesos-1.8.0.so)
	    7fa494ccd332 _ZN7process14ProcessManager6resumeEPNS_11ProcessBaseE+0x492 (/home/bevers/src/mesos/worktrees/state-benchmarking/build-alexr/src/.libs/libmesos-1.8.0.so)
	    7fa494cd3606 _ZNSt6thread11_State_implINS_8_InvokerISt5tupleIJZN7process14ProcessManager12init_threadsEvEUlvE_EEEEE6_M_runEv+0x46 (/home/bevers/src/mesos/worktrees/state-benchmarking/build-alexr/src/.libs/libmesos-1.8.0.so)
	    7fa491e43733 [unknown] (/usr/lib/x86_64-linux-gnu/libstdc++.so.6.0.25)

master@127.0.1.1:5050 14784 182029.127891:       5000 cycles:uh: 
	    7fa49180c2c1 malloc+0x251 (/lib/x86_64-linux-gnu/libc-2.27.so)
	               0 [unknown] ([unknown])

master@127.0.1.1:5050 14784 182029.127894:       5000 cycles:uh: 
	    7fa49180c306 malloc+0x296 (/lib/x86_64-linux-gnu/libc-2.27.so)
	               0 [unknown] ([unknown])

master@127.0.1.1:5050 14784 182029.127897:       5000 cycles:uh: 
	    7fa49190403e __memset_avx2_unaligned_erms+0xee (/lib/x86_64-linux-gnu/libc-2.27.so)
	    7fa49395e6e5 _ZNSt10_HashtableINSt7__cxx1112basic_stringIcSt11char_traitsIcESaIcEEESt4pairIKS5_S5_ESaIS8_ENSt8__detail10_Select1stESt8equal_toIS5_ESt4hashIS5_ENSA_18_Mod_range_hashingENSA_20_Default_ranged_hashENSA_20_Prime_rehash_policyENSA_17_Hashtable_traitsILb1ELb0ELb1EEEED1Ev+0x15 (/home/bevers/src/mesos/worktrees/state-benchmarking/build-alexr/src/.libs/libmesos-1.8.0.so)
	    7fa493960100 _ZN7process4http7RequestD1Ev+0xa0 (/home/bevers/src/mesos/worktrees/state-benchmarking/build-alexr/src/.libs/libmesos-1.8.0.so)
	    7fa493bb2f13 _ZNK5mesos8internal6master6Master4Http5stateERKN7process4http7RequestERK6OptionINS5_14authentication9PrincipalEE+0x1e3 (/home/bevers/src/mesos/worktrees/state-benchmarking/build-alexr/src/.libs/libmesos-1.8.0.so)
	    7fa493bf285a _ZNSt17_Function_handlerIFN7process6FutureINS0_4http8ResponseEEERKNS2_7RequestERK6OptionINS2_14authentication9PrincipalEEEZN5mesos8internal6master6Master10initializeEvEUlS7_SD_E13_E9_M_invokeERKSt9_Any_dataS7_SD_+0x4a (/home/bevers/src/mesos/worktrees/state-benchmarking/build-alexr/src/.libs/libmesos-1.8.0.so)
	    7fa494cc2351 _ZNO6lambda12CallableOnceIFN7process6FutureINS1_4http8ResponseEEEvEE10CallableFnINS_8internal7PartialIZZNS1_11ProcessBase8_consumeERKNSB_12HttpEndpointERKNSt7__cxx1112basic_stringIcSt11char_traitsIcESaIcEEERKNS1_5OwnedINS3_7RequestEEEENKUlRK6OptionINS3_14authentication20AuthenticationResultEEE0_clESX_EUlbE0_JbEEEEclEv+0x71 (/home/bevers/src/mesos/worktrees/state-benchmarking/build-alexr/src/.libs/libmesos-1.8.0.so)
	    7fa4939e8599 _ZNO6lambda12CallableOnceIFvPN7process11ProcessBaseEEE10CallableFnINS_8internal7PartialIZNS1_8internal8DispatchINS1_6FutureINS1_4http8ResponseEEEEclINS0_IFSE_vEEEEESE_RKNS1_4UPIDEOT_EUlSt10unique_ptrINS1_7PromiseISD_EESt14default_deleteISQ_EEOSI_S3_E_JST_SI_St12_PlaceholderILi1EEEEEEclEOS3_+0xc9 (/home/bevers/src/mesos/worktrees/state-benchmarking/build-alexr/src/.libs/libmesos-1.8.0.so)
	    7fa494cb80e2 _ZN7process11ProcessBase7consumeEONS_13DispatchEventE+0x32 (/home/bevers/src/mesos/worktrees/state-benchmarking/build-alexr/src/.libs/libmesos-1.8.0.so)
	    7fa494ccd332 _ZN7process14ProcessManager6resumeEPNS_11ProcessBaseE+0x492 (/home/bevers/src/mesos/worktrees/state-benchmarking/build-alexr/src/.libs/libmesos-1.8.0.so)
	    7fa494cd3606 _ZNSt6thread11_State_implINS_8_InvokerISt5tupleIJZN7process14ProcessManager12init_threadsEvEUlvE_EEEEE6_M_runEv+0x46 (/home/bevers/src/mesos/worktrees/state-benchmarking/build-alexr/src/.libs/libmesos-1.8.0.so)
	    7fa491e43733 [unknown] (/usr/lib/x86_64-linux-gnu/libstdc++.so.6.0.25)

master@127.0.1.1:5050 14784 182029.127900:       5000 cycles:uh: 
	    7fa495d422fb do_lookup_x+0xbb (/lib/x86_64-linux-gnu/ld-2.27.so)

master@127.0.1.1:5050 14784 182029.127903:       5000 cycles:uh: 
	    7fa495d43112 _dl_lookup_symbol_x+0x62 (/lib/x86_64-linux-gnu/ld-2.27.so)

master@127.0.1.1:5050 14784 182029.127906:       5000 cycles:uh: 
	    7fa495d42263 do_lookup_x+0x23 (/lib/x86_64-linux-gnu/ld-2.27.so)
	               0 [unknown] ([unknown])
	              37 [unknown] ([unknown])
	    7fa495f5d000 [unknown] ([unknown])
	    7fa495f61700 [unknown] ([unknown])
	               0 [unknown] ([unknown])

master@127.0.1.1:5050 14784 182029.127909:       5000 cycles:uh: 
	    7fa493b99fc0 _ZNO6lambda12CallableOnceIFN7process6FutureINS1_4http8ResponseEEERKNS1_5OwnedIN5mesos15ObjectApproversEEEEE10CallableFnINS_8internal7PartialIZNOS1_9_DeferredIZNKS7_8internal6master6Master4Http5stateERKNS3_7RequestERK6OptionINS3_14authentication9PrincipalEEEUlSB_E_EcvNS0_IFT_T0_EEEIS5_SB_EEvEUlOSV_SB_E_JSV_St12_PlaceholderILi1EEEEEEclESB_+0x0 (/home/bevers/src/mesos/worktrees/state-benchmarking/build-alexr/src/.libs/libmesos-1.8.0.so)
	    7fa493bcb749 _ZNO6lambda12CallableOnceIFvRKN7process6FutureINS1_5OwnedIN5mesos15ObjectApproversEEEEEEE10CallableFnINS_8internal7PartialIPFvONS0_IFNS2_INS1_4http8ResponseEEERKS6_EEESt10unique_ptrINS1_7PromiseISG_EESt14default_deleteISP_EES9_EJSL_SS_St12_PlaceholderILi1EEEEEEclES9_+0x39 (/home/bevers/src/mesos/worktrees/state-benchmarking/build-alexr/src/.libs/libmesos-1.8.0.so)
	    7fa493bdb214 _ZNK7process6FutureINS_5OwnedIN5mesos15ObjectApproversEEEE5onAnyEON6lambda12CallableOnceIFvRKS5_EEE+0x54 (/home/bevers/src/mesos/worktrees/state-benchmarking/build-alexr/src/.libs/libmesos-1.8.0.so)
	    7fa493bdb358 _ZNK7process6FutureINS_5OwnedIN5mesos15ObjectApproversEEEE4thenINS_4http8ResponseEEENS0_IT_EEN6lambda12CallableOnceIFSA_RKS4_EEE+0xa8 (/home/bevers/src/mesos/worktrees/state-benchmarking/build-alexr/src/.libs/libmesos-1.8.0.so)
	    7fa493bb2f58 _ZNK5mesos8internal6master6Master4Http5stateERKN7process4http7RequestERK6OptionINS5_14authentication9PrincipalEE+0x228 (/home/bevers/src/mesos/worktrees/state-benchmarking/build-alexr/src/.libs/libmesos-1.8.0.so)
	    7fa493bf285a _ZNSt17_Function_handlerIFN7process6FutureINS0_4http8ResponseEEERKNS2_7RequestERK6OptionINS2_14authentication9PrincipalEEEZN5mesos8internal6master6Master10initializeEvEUlS7_SD_E13_E9_M_invokeERKSt9_Any_dataS7_SD_+0x4a (/home/bevers/src/mesos/worktrees/state-benchmarking/build-alexr/src/.libs/libmesos-1.8.0.so)
	    7fa494cc2351 _ZNO6lambda12CallableOnceIFN7process6FutureINS1_4http8ResponseEEEvEE10CallableFnINS_8internal7PartialIZZNS1_11ProcessBase8_consumeERKNSB_12HttpEndpointERKNSt7__cxx1112basic_stringIcSt11char_traitsIcESaIcEEERKNS1_5OwnedINS3_7RequestEEEENKUlRK6OptionINS3_14authentication20AuthenticationResultEEE0_clESX_EUlbE0_JbEEEEclEv+0x71 (/home/bevers/src/mesos/worktrees/state-benchmarking/build-alexr/src/.libs/libmesos-1.8.0.so)
	    7fa4939e8599 _ZNO6lambda12CallableOnceIFvPN7process11ProcessBaseEEE10CallableFnINS_8internal7PartialIZNS1_8internal8DispatchINS1_6FutureINS1_4http8ResponseEEEEclINS0_IFSE_vEEEEESE_RKNS1_4UPIDEOT_EUlSt10unique_ptrINS1_7PromiseISD_EESt14default_deleteISQ_EEOSI_S3_E_JST_SI_St12_PlaceholderILi1EEEEEEclEOS3_+0xc9 (/home/bevers/src/mesos/worktrees/state-benchmarking/build-alexr/src/.libs/libmesos-1.8.0.so)
	    7fa494cb80e2 _ZN7process11ProcessBase7consumeEONS_13DispatchEventE+0x32 (/home/bevers/src/mesos/worktrees/state-benchmarking/build-alexr/src/.libs/libmesos-1.8.0.so)
	    7fa494ccd332 _ZN7process14ProcessManager6resumeEPNS_11ProcessBaseE+0x492 (/home/bevers/src/mesos/worktrees/state-benchmarking/build-alexr/src/.libs/libmesos-1.8.0.so)
	    7fa494cd3606 _ZNSt6thread11_State_implINS_8_InvokerISt5tupleIJZN7process14ProcessManager12init_threadsEvEUlvE_EEEEE6_M_runEv+0x46 (/home/bevers/src/mesos/worktrees/state-benchmarking/build-alexr/src/.libs/libmesos-1.8.0.so)
	    7fa491e43733 [unknown] (/usr/lib/x86_64-linux-gnu/libstdc++.so.6.0.25)

master@127.0.1.1:5050 14784 182029.127912:       5000 cycles:uh: 
	    7fa495d430cd _dl_lookup_symbol_x+0x1d (/lib/x86_64-linux-gnu/ld-2.27.so)
	    7fa493b99fee _ZNO6lambda12CallableOnceIFN7process6FutureINS1_4http8ResponseEEERKNS1_5OwnedIN5mesos15ObjectApproversEEEEE10CallableFnINS_8internal7PartialIZNOS1_9_DeferredIZNKS7_8internal6master6Master4Http5stateERKNS3_7RequestERK6OptionINS3_14authentication9PrincipalEEEUlSB_E_EcvNS0_IFT_T0_EEEIS5_SB_EEvEUlOSV_SB_E_JSV_St12_PlaceholderILi1EEEEEEclESB_+0x2e (/home/bevers/src/mesos/worktrees/state-benchmarking/build-alexr/src/.libs/libmesos-1.8.0.so)
	    7fa493be3700 _ZN7process8internal5thenfINS_5OwnedIN5mesos15ObjectApproversEEENS_4http8ResponseEEEvON6lambda12CallableOnceIFNS_6FutureIT0_EERKT_EEESt10unique_ptrINS_7PromiseISB_EESt14default_deleteISL_EERKNSA_ISD_EE+0x80 (/home/bevers/src/mesos/worktrees/state-benchmarking/build-alexr/src/.libs/libmesos-1.8.0.so)
	    7fa493bcb749 _ZNO6lambda12CallableOnceIFvRKN7process6FutureINS1_5OwnedIN5mesos15ObjectApproversEEEEEEE10CallableFnINS_8internal7PartialIPFvONS0_IFNS2_INS1_4http8ResponseEEERKS6_EEESt10unique_ptrINS1_7PromiseISG_EESt14default_deleteISP_EES9_EJSL_SS_St12_PlaceholderILi1EEEEEEclES9_+0x39 (/home/bevers/src/mesos/worktrees/state-benchmarking/build-alexr/src/.libs/libmesos-1.8.0.so)
	    7fa493bdb214 _ZNK7process6FutureINS_5OwnedIN5mesos15ObjectApproversEEEE5onAnyEON6lambda12CallableOnceIFvRKS5_EEE+0x54 (/home/bevers/src/mesos/worktrees/state-benchmarking/build-alexr/src/.libs/libmesos-1.8.0.so)
	    7fa493bdb358 _ZNK7process6FutureINS_5OwnedIN5mesos15ObjectApproversEEEE4thenINS_4http8ResponseEEENS0_IT_EEN6lambda12CallableOnceIFSA_RKS4_EEE+0xa8 (/home/bevers/src/mesos/worktrees/state-benchmarking/build-alexr/src/.libs/libmesos-1.8.0.so)
	    7fa493bb2f58 _ZNK5mesos8internal6master6Master4Http5stateERKN7process4http7RequestERK6OptionINS5_14authentication9PrincipalEE+0x228 (/home/bevers/src/mesos/worktrees/state-benchmarking/build-alexr/src/.libs/libmesos-1.8.0.so)
	    7fa493bf285a _ZNSt17_Function_handlerIFN7process6FutureINS0_4http8ResponseEEERKNS2_7RequestERK6OptionINS2_14authentication9PrincipalEEEZN5mesos8internal6master6Master10initializeEvEUlS7_SD_E13_E9_M_invokeERKSt9_Any_dataS7_SD_+0x4a (/home/bevers/src/mesos/worktrees/state-benchmarking/build-alexr/src/.libs/libmesos-1.8.0.so)
	    7fa494cc2351 _ZNO6lambda12CallableOnceIFN7process6FutureINS1_4http8ResponseEEEvEE10CallableFnINS_8internal7PartialIZZNS1_11ProcessBase8_consumeERKNSB_12HttpEndpointERKNSt7__cxx1112basic_stringIcSt11char_traitsIcESaIcEEERKNS1_5OwnedINS3_7RequestEEEENKUlRK6OptionINS3_14authentication20AuthenticationResultEEE0_clESX_EUlbE0_JbEEEEclEv+0x71 (/home/bevers/src/mesos/worktrees/state-benchmarking/build-alexr/src/.libs/libmesos-1.8.0.so)
	    7fa4939e8599 _ZNO6lambda12CallableOnceIFvPN7process11ProcessBaseEEE10CallableFnINS_8internal7PartialIZNS1_8internal8DispatchINS1_6FutureINS1_4http8ResponseEEEEclINS0_IFSE_vEEEEESE_RKNS1_4UPIDEOT_EUlSt10unique_ptrINS1_7PromiseISD_EESt14default_deleteISQ_EEOSI_S3_E_JST_SI_St12_PlaceholderILi1EEEEEEclEOS3_+0xc9 (/home/bevers/src/mesos/worktrees/state-benchmarking/build-alexr/src/.libs/libmesos-1.8.0.so)
	    7fa494cb80e2 _ZN7process11ProcessBase7consumeEONS_13DispatchEventE+0x32 (/home/bevers/src/mesos/worktrees/state-benchmarking/build-alexr/src/.libs/libmesos-1.8.0.so)
	    7fa494ccd332 _ZN7process14ProcessManager6resumeEPNS_11ProcessBaseE+0x492 (/home/bevers/src/mesos/worktrees/state-benchmarking/build-alexr/src/.libs/libmesos-1.8.0.so)
	    7fa494cd3606 _ZNSt6thread11_State_implINS_8_InvokerISt5tupleIJZN7process14ProcessManager12init_threadsEvEUlvE_EEEEE6_M_runEv+0x46 (/home/bevers/src/mesos/worktrees/state-benchmarking/build-alexr/src/.libs/libmesos-1.8.0.so)
	    7fa491e43733 [unknown] (/usr/lib/x86_64-linux-gnu/libstdc++.so.6.0.25)

master@127.0.1.1:5050 14784 182029.127915:       5000 cycles:uh: 
	    7fa49180c0dc malloc+0x6c (/lib/x86_64-linux-gnu/libc-2.27.so)

master@127.0.1.1:5050 14784 182029.127917:       5000 cycles:uh: 
	    7fa494ce2d70 _ZNK7process16ProcessReferencecvPNS_11ProcessBaseEEv+0x0 (/home/bevers/src/mesos/worktrees/state-benchmarking/build-alexr/src/.libs/libmesos-1.8.0.so)
	    7fa494cc92a7 _ZN7process8internal8dispatchERKNS_4UPIDESt10unique_ptrIN6lambda12CallableOnceIFvPNS_11ProcessBaseEEEESt14default_deleteISA_EERK6OptionIPKSt9type_infoE+0x267 (/home/bevers/src/mesos/worktrees/state-benchmarking/build-alexr/src/.libs/libmesos-1.8.0.so)
	    7fa493af4331 _ZN7process8internal8DispatchINS_6FutureINS_4http8ResponseEEEEclIN6lambda12CallableOnceIFS5_vEEEEES5_RKNS_4UPIDEOT_+0xd1 (/home/bevers/src/mesos/worktrees/state-benchmarking/build-alexr/src/.libs/libmesos-1.8.0.so)
	    7fa493b99eb3 _ZZNO7process9_DeferredIZNK5mesos8internal6master6Master4Http5stateERKNS_4http7RequestERK6OptionINS6_14authentication9PrincipalEEEUlRKNS_5OwnedINS1_15ObjectApproversEEEE_EcvN6lambda12CallableOnceIFT_T0_EEEINS_6FutureINS6_8ResponseEEESK_EEvENKUlOSL_SK_E_clESX_SK_+0xd3 (/home/bevers/src/mesos/worktrees/state-benchmarking/build-alexr/src/.libs/libmesos-1.8.0.so)
	    7fa493b99fee _ZNO6lambda12CallableOnceIFN7process6FutureINS1_4http8ResponseEEERKNS1_5OwnedIN5mesos15ObjectApproversEEEEE10CallableFnINS_8internal7PartialIZNOS1_9_DeferredIZNKS7_8internal6master6Master4Http5stateERKNS3_7RequestERK6OptionINS3_14authentication9PrincipalEEEUlSB_E_EcvNS0_IFT_T0_EEEIS5_SB_EEvEUlOSV_SB_E_JSV_St12_PlaceholderILi1EEEEEEclESB_+0x2e (/home/bevers/src/mesos/worktrees/state-benchmarking/build-alexr/src/.libs/libmesos-1.8.0.so)
	    7fa493be3700 _ZN7process8internal5thenfINS_5OwnedIN5mesos15ObjectApproversEEENS_4http8ResponseEEEvON6lambda12CallableOnceIFNS_6FutureIT0_EERKT_EEESt10unique_ptrINS_7PromiseISB_EESt14default_deleteISL_EERKNSA_ISD_EE+0x80 (/home/bevers/src/mesos/worktrees/state-benchmarking/build-alexr/src/.libs/libmesos-1.8.0.so)
	    7fa493bcb749 _ZNO6lambda12CallableOnceIFvRKN7process6FutureINS1_5OwnedIN5mesos15ObjectApproversEEEEEEE10CallableFnINS_8internal7PartialIPFvONS0_IFNS2_INS1_4http8ResponseEEERKS6_EEESt10unique_ptrINS1_7PromiseISG_EESt14default_deleteISP_EES9_EJSL_SS_St12_PlaceholderILi1EEEEEEclES9_+0x39 (/home/bevers/src/mesos/worktrees/state-benchmarking/build-alexr/src/.libs/libmesos-1.8.0.so)
	    7fa493bdb214 _ZNK7process6FutureINS_5OwnedIN5mesos15ObjectApproversEEEE5onAnyEON6lambda12CallableOnceIFvRKS5_EEE+0x54 (/home/bevers/src/mesos/worktrees/state-benchmarking/build-alexr/src/.libs/libmesos-1.8.0.so)
	    7fa493bdb358 _ZNK7process6FutureINS_5OwnedIN5mesos15ObjectApproversEEEE4thenINS_4http8ResponseEEENS0_IT_EEN6lambda12CallableOnceIFSA_RKS4_EEE+0xa8 (/home/bevers/src/mesos/worktrees/state-benchmarking/build-alexr/src/.libs/libmesos-1.8.0.so)
	    7fa493bb2f58 _ZNK5mesos8internal6master6Master4Http5stateERKN7process4http7RequestERK6OptionINS5_14authentication9PrincipalEE+0x228 (/home/bevers/src/mesos/worktrees/state-benchmarking/build-alexr/src/.libs/libmesos-1.8.0.so)
	    7fa493bf285a _ZNSt17_Function_handlerIFN7process6FutureINS0_4http8ResponseEEERKNS2_7RequestERK6OptionINS2_14authentication9PrincipalEEEZN5mesos8internal6master6Master10initializeEvEUlS7_SD_E13_E9_M_invokeERKSt9_Any_dataS7_SD_+0x4a (/home/bevers/src/mesos/worktrees/state-benchmarking/build-alexr/src/.libs/libmesos-1.8.0.so)
	    7fa494cc2351 _ZNO6lambda12CallableOnceIFN7process6FutureINS1_4http8ResponseEEEvEE10CallableFnINS_8internal7PartialIZZNS1_11ProcessBase8_consumeERKNSB_12HttpEndpointERKNSt7__cxx1112basic_stringIcSt11char_traitsIcESaIcEEERKNS1_5OwnedINS3_7RequestEEEENKUlRK6OptionINS3_14authentication20AuthenticationResultEEE0_clESX_EUlbE0_JbEEEEclEv+0x71 (/home/bevers/src/mesos/worktrees/state-benchmarking/build-alexr/src/.libs/libmesos-1.8.0.so)
	    7fa4939e8599 _ZNO6lambda12CallableOnceIFvPN7process11ProcessBaseEEE10CallableFnINS_8internal7PartialIZNS1_8internal8DispatchINS1_6FutureINS1_4http8ResponseEEEEclINS0_IFSE_vEEEEESE_RKNS1_4UPIDEOT_EUlSt10unique_ptrINS1_7PromiseISD_EESt14default_deleteISQ_EEOSI_S3_E_JST_SI_St12_PlaceholderILi1EEEEEEclEOS3_+0xc9 (/home/bevers/src/mesos/worktrees/state-benchmarking/build-alexr/src/.libs/libmesos-1.8.0.so)
	    7fa494cb80e2 _ZN7process11ProcessBase7consumeEONS_13DispatchEventE+0x32 (/home/bevers/src/mesos/worktrees/state-benchmarking/build-alexr/src/.libs/libmesos-1.8.0.so)
	    7fa494ccd332 _ZN7process14ProcessManager6resumeEPNS_11ProcessBaseE+0x492 (/home/bevers/src/mesos/worktrees/state-benchmarking/build-alexr/src/.libs/libmesos-1.8.0.so)
	    7fa494cd3606 _ZNSt6thread11_State_implINS_8_InvokerISt5tupleIJZN7process14ProcessManager12init_threadsEvEUlvE_EEEEE6_M_runEv+0x46 (/home/bevers/src/mesos/worktrees/state-benchmarking/build-alexr/src/.libs/libmesos-1.8.0.so)
	    7fa491e43733 [unknown] (/usr/lib/x86_64-linux-gnu/libstdc++.so.6.0.25)

master@127.0.1.1:5050 14784 182029.127921:       5000 cycles:uh: 
	    7fa4939d6b60 _ZNK7process6FutureINS_4http8ResponseEE7onReadyEON6lambda12CallableOnceIFvRKS2_EEE+0x0 (/home/bevers/src/mesos/worktrees/state-benchmarking/build-alexr/src/.libs/libmesos-1.8.0.so)
	    7fa493be370b _ZN7process8internal5thenfINS_5OwnedIN5mesos15ObjectApproversEEENS_4http8ResponseEEEvON6lambda12CallableOnceIFNS_6FutureIT0_EERKT_EEESt10unique_ptrINS_7PromiseISB_EESt14default_deleteISL_EERKNSA_ISD_EE+0x8b (/home/bevers/src/mesos/worktrees/state-benchmarking/build-alexr/src/.libs/libmesos-1.8.0.so)
	    7fa493bcb749 _ZNO6lambda12CallableOnceIFvRKN7process6FutureINS1_5OwnedIN5mesos15ObjectApproversEEEEEEE10CallableFnINS_8internal7PartialIPFvONS0_IFNS2_INS1_4http8ResponseEEERKS6_EEESt10unique_ptrINS1_7PromiseISG_EESt14default_deleteISP_EES9_EJSL_SS_St12_PlaceholderILi1EEEEEEclES9_+0x39 (/home/bevers/src/mesos/worktrees/state-benchmarking/build-alexr/src/.libs/libmesos-1.8.0.so)
	    7fa493bdb214 _ZNK7process6FutureINS_5OwnedIN5mesos15ObjectApproversEEEE5onAnyEON6lambda12CallableOnceIFvRKS5_EEE+0x54 (/home/bevers/src/mesos/worktrees/state-benchmarking/build-alexr/src/.libs/libmesos-1.8.0.so)
	    7fa493bdb358 _ZNK7process6FutureINS_5OwnedIN5mesos15ObjectApproversEEEE4thenINS_4http8ResponseEEENS0_IT_EEN6lambda12CallableOnceIFSA_RKS4_EEE+0xa8 (/home/bevers/src/mesos/worktrees/state-benchmarking/build-alexr/src/.libs/libmesos-1.8.0.so)
	    7fa493bb2f58 _ZNK5mesos8internal6master6Master4Http5stateERKN7process4http7RequestERK6OptionINS5_14authentication9PrincipalEE+0x228 (/home/bevers/src/mesos/worktrees/state-benchmarking/build-alexr/src/.libs/libmesos-1.8.0.so)
	    7fa493bf285a _ZNSt17_Function_handlerIFN7process6FutureINS0_4http8ResponseEEERKNS2_7RequestERK6OptionINS2_14authentication9PrincipalEEEZN5mesos8internal6master6Master10initializeEvEUlS7_SD_E13_E9_M_invokeERKSt9_Any_dataS7_SD_+0x4a (/home/bevers/src/mesos/worktrees/state-benchmarking/build-alexr/src/.libs/libmesos-1.8.0.so)
	    7fa494cc2351 _ZNO6lambda12CallableOnceIFN7process6FutureINS1_4http8ResponseEEEvEE10CallableFnINS_8internal7PartialIZZNS1_11ProcessBase8_consumeERKNSB_12HttpEndpointERKNSt7__cxx1112basic_stringIcSt11char_traitsIcESaIcEEERKNS1_5OwnedINS3_7RequestEEEENKUlRK6OptionINS3_14authentication20AuthenticationResultEEE0_clESX_EUlbE0_JbEEEEclEv+0x71 (/home/bevers/src/mesos/worktrees/state-benchmarking/build-alexr/src/.libs/libmesos-1.8.0.so)
	    7fa4939e8599 _ZNO6lambda12CallableOnceIFvPN7process11ProcessBaseEEE10CallableFnINS_8internal7PartialIZNS1_8internal8DispatchINS1_6FutureINS1_4http8ResponseEEEEclINS0_IFSE_vEEEEESE_RKNS1_4UPIDEOT_EUlSt10unique_ptrINS1_7PromiseISD_EESt14default_deleteISQ_EEOSI_S3_E_JST_SI_St12_PlaceholderILi1EEEEEEclEOS3_+0xc9 (/home/bevers/src/mesos/worktrees/state-benchmarking/build-alexr/src/.libs/libmesos-1.8.0.so)
	    7fa494cb80e2 _ZN7process11ProcessBase7consumeEONS_13DispatchEventE+0x32 (/home/bevers/src/mesos/worktrees/state-benchmarking/build-alexr/src/.libs/libmesos-1.8.0.so)
	    7fa494ccd332 _ZN7process14ProcessManager6resumeEPNS_11ProcessBaseE+0x492 (/home/bevers/src/mesos/worktrees/state-benchmarking/build-alexr/src/.libs/libmesos-1.8.0.so)
	    7fa494cd3606 _ZNSt6thread11_State_implINS_8_InvokerISt5tupleIJZN7process14ProcessManager12init_threadsEvEUlvE_EEEEE6_M_runEv+0x46 (/home/bevers/src/mesos/worktrees/state-benchmarking/build-alexr/src/.libs/libmesos-1.8.0.so)
	    7fa491e43733 [unknown] (/usr/lib/x86_64-linux-gnu/libstdc++.so.6.0.25)

master@127.0.1.1:5050 14784 182029.127924:       5000 cycles:uh: 
	    7fa4939c7d70 _ZN7process7PromiseINS_4http8ResponseEED0Ev+0x0 (/home/bevers/src/mesos/worktrees/state-benchmarking/build-alexr/src/.libs/libmesos-1.8.0.so)
	    7fa493bdb214 _ZNK7process6FutureINS_5OwnedIN5mesos15ObjectApproversEEEE5onAnyEON6lambda12CallableOnceIFvRKS5_EEE+0x54 (/home/bevers/src/mesos/worktrees/state-benchmarking/build-alexr/src/.libs/libmesos-1.8.0.so)
	    7fa493bdb358 _ZNK7process6FutureINS_5OwnedIN5mesos15ObjectApproversEEEE4thenINS_4http8ResponseEEENS0_IT_EEN6lambda12CallableOnceIFSA_RKS4_EEE+0xa8 (/home/bevers/src/mesos/worktrees/state-benchmarking/build-alexr/src/.libs/libmesos-1.8.0.so)
	    7fa493bb2f58 _ZNK5mesos8internal6master6Master4Http5stateERKN7process4http7RequestERK6OptionINS5_14authentication9PrincipalEE+0x228 (/home/bevers/src/mesos/worktrees/state-benchmarking/build-alexr/src/.libs/libmesos-1.8.0.so)
	    7fa493bf285a _ZNSt17_Function_handlerIFN7process6FutureINS0_4http8ResponseEEERKNS2_7RequestERK6OptionINS2_14authentication9PrincipalEEEZN5mesos8internal6master6Master10initializeEvEUlS7_SD_E13_E9_M_invokeERKSt9_Any_dataS7_SD_+0x4a (/home/bevers/src/mesos/worktrees/state-benchmarking/build-alexr/src/.libs/libmesos-1.8.0.so)
	    7fa494cc2351 _ZNO6lambda12CallableOnceIFN7process6FutureINS1_4http8ResponseEEEvEE10CallableFnINS_8internal7PartialIZZNS1_11ProcessBase8_consumeERKNSB_12HttpEndpointERKNSt7__cxx1112basic_stringIcSt11char_traitsIcESaIcEEERKNS1_5OwnedINS3_7RequestEEEENKUlRK6OptionINS3_14authentication20AuthenticationResultEEE0_clESX_EUlbE0_JbEEEEclEv+0x71 (/home/bevers/src/mesos/worktrees/state-benchmarking/build-alexr/src/.libs/libmesos-1.8.0.so)
	    7fa4939e8599 _ZNO6lambda12CallableOnceIFvPN7process11ProcessBaseEEE10CallableFnINS_8internal7PartialIZNS1_8internal8DispatchINS1_6FutureINS1_4http8ResponseEEEEclINS0_IFSE_vEEEEESE_RKNS1_4UPIDEOT_EUlSt10unique_ptrINS1_7PromiseISD_EESt14default_deleteISQ_EEOSI_S3_E_JST_SI_St12_PlaceholderILi1EEEEEEclEOS3_+0xc9 (/home/bevers/src/mesos/worktrees/state-benchmarking/build-alexr/src/.libs/libmesos-1.8.0.so)
	    7fa494cb80e2 _ZN7process11ProcessBase7consumeEONS_13DispatchEventE+0x32 (/home/bevers/src/mesos/worktrees/state-benchmarking/build-alexr/src/.libs/libmesos-1.8.0.so)
	    7fa494ccd332 _ZN7process14ProcessManager6resumeEPNS_11ProcessBaseE+0x492 (/home/bevers/src/mesos/worktrees/state-benchmarking/build-alexr/src/.libs/libmesos-1.8.0.so)
	    7fa494cd3606 _ZNSt6thread11_State_implINS_8_InvokerISt5tupleIJZN7process14ProcessManager12init_threadsEvEUlvE_EEEEE6_M_runEv+0x46 (/home/bevers/src/mesos/worktrees/state-benchmarking/build-alexr/src/.libs/libmesos-1.8.0.so)
	    7fa491e43733 [unknown] (/usr/lib/x86_64-linux-gnu/libstdc++.so.6.0.25)

master@127.0.1.1:5050 14784 182029.127927:       5000 cycles:uh: 
	    7fa493bd80f0 _ZNK7process6FutureINS_5OwnedIN5mesos15ObjectApproversEEEE11onAbandonedEON6lambda12CallableOnceIFvvEEE+0x0 (/home/bevers/src/mesos/worktrees/state-benchmarking/build-alexr/src/.libs/libmesos-1.8.0.so)
	    7fa493bb2f58 _ZNK5mesos8internal6master6Master4Http5stateERKN7process4http7RequestERK6OptionINS5_14authentication9PrincipalEE+0x228 (/home/bevers/src/mesos/worktrees/state-benchmarking/build-alexr/src/.libs/libmesos-1.8.0.so)
	    7fa493bf285a _ZNSt17_Function_handlerIFN7process6FutureINS0_4http8ResponseEEERKNS2_7RequestERK6OptionINS2_14authentication9PrincipalEEEZN5mesos8internal6master6Master10initializeEvEUlS7_SD_E13_E9_M_invokeERKSt9_Any_dataS7_SD_+0x4a (/home/bevers/src/mesos/worktrees/state-benchmarking/build-alexr/src/.libs/libmesos-1.8.0.so)
	    7fa494cc2351 _ZNO6lambda12CallableOnceIFN7process6FutureINS1_4http8ResponseEEEvEE10CallableFnINS_8internal7PartialIZZNS1_11ProcessBase8_consumeERKNSB_12HttpEndpointERKNSt7__cxx1112basic_stringIcSt11char_traitsIcESaIcEEERKNS1_5OwnedINS3_7RequestEEEENKUlRK6OptionINS3_14authentication20AuthenticationResultEEE0_clESX_EUlbE0_JbEEEEclEv+0x71 (/home/bevers/src/mesos/worktrees/state-benchmarking/build-alexr/src/.libs/libmesos-1.8.0.so)
	    7fa4939e8599 _ZNO6lambda12CallableOnceIFvPN7process11ProcessBaseEEE10CallableFnINS_8internal7PartialIZNS1_8internal8DispatchINS1_6FutureINS1_4http8ResponseEEEEclINS0_IFSE_vEEEEESE_RKNS1_4UPIDEOT_EUlSt10unique_ptrINS1_7PromiseISD_EESt14default_deleteISQ_EEOSI_S3_E_JST_SI_St12_PlaceholderILi1EEEEEEclEOS3_+0xc9 (/home/bevers/src/mesos/worktrees/state-benchmarking/build-alexr/src/.libs/libmesos-1.8.0.so)
	    7fa494cb80e2 _ZN7process11ProcessBase7consumeEONS_13DispatchEventE+0x32 (/home/bevers/src/mesos/worktrees/state-benchmarking/build-alexr/src/.libs/libmesos-1.8.0.so)
	    7fa494ccd332 _ZN7process14ProcessManager6resumeEPNS_11ProcessBaseE+0x492 (/home/bevers/src/mesos/worktrees/state-benchmarking/build-alexr/src/.libs/libmesos-1.8.0.so)
	    7fa494cd3606 _ZNSt6thread11_State_implINS_8_InvokerISt5tupleIJZN7process14ProcessManager12init_threadsEvEUlvE_EEEEE6_M_runEv+0x46 (/home/bevers/src/mesos/worktrees/state-benchmarking/build-alexr/src/.libs/libmesos-1.8.0.so)
	    7fa491e43733 [unknown] (/usr/lib/x86_64-linux-gnu/libstdc++.so.6.0.25)

master@127.0.1.1:5050 14784 182029.127930:       5000 cycles:uh: 
	    7fa49180ce30 cfree@GLIBC_2.2.5+0x4e0 (/lib/x86_64-linux-gnu/libc-2.27.so)

master@127.0.1.1:5050 14784 182029.127933:       5000 cycles:uh: 
	    7fa49180a0cb _int_malloc+0xdfb (/lib/x86_64-linux-gnu/libc-2.27.so)

master@127.0.1.1:5050 14784 182029.127935:       5000 cycles:uh: 
	    7fa4938f9e40 _ZN7processlsERSoRKNS_4UPIDE@plt+0x0 (/home/bevers/src/mesos/worktrees/state-benchmarking/build-alexr/src/.libs/libmesos-1.8.0.so)
	    7fa494c9a8bf _ZN7process16LibprocessTracer7disableEv+0x6f (/home/bevers/src/mesos/worktrees/state-benchmarking/build-alexr/src/.libs/libmesos-1.8.0.so)
	    7fa494ccd344 _ZN7process14ProcessManager6resumeEPNS_11ProcessBaseE+0x4a4 (/home/bevers/src/mesos/worktrees/state-benchmarking/build-alexr/src/.libs/libmesos-1.8.0.so)
	    7fa494cd3606 _ZNSt6thread11_State_implINS_8_InvokerISt5tupleIJZN7process14ProcessManager12init_threadsEvEUlvE_EEEEE6_M_runEv+0x46 (/home/bevers/src/mesos/worktrees/state-benchmarking/build-alexr/src/.libs/libmesos-1.8.0.so)
	    7fa491e43733 [unknown] (/usr/lib/x86_64-linux-gnu/libstdc++.so.6.0.25)

master@127.0.1.1:5050 14784 182029.127938:       5000 cycles:uh: 
	    7fa491e9c72a _ZSt16__ostream_insertIcSt11char_traitsIcEERSt13basic_ostreamIT_T0_ES6_PKS3_l+0x10a (/usr/lib/x86_64-linux-gnu/libstdc++.so.6.0.25)
	               6 [unknown] ([unknown])
	    7fa491ea0de0 _ZTv0_n24_NSt7__cxx1119basic_ostringstreamIcSt11char_traitsIcESaIcEED0Ev+0x0 (/usr/lib/x86_64-linux-gnu/libstdc++.so.6.0.25)
	2d058b48e8588b48 [unknown] ([unknown])

master@127.0.1.1:5050 14784 182029.127940:       5000 cycles:uh: 
	    7fa491802302 _IO_file_overflow@@GLIBC_2.2.5+0x2 (/lib/x86_64-linux-gnu/libc-2.27.so)
	    55af36f760a0 [unknown] ([unknown])
	8000000000000000 [unknown] ([unknown])

master@127.0.1.1:5050 14784 182029.129249:       5000 cycles:uh: 
	    7fa493b9b297 _ZNO6lambda12CallableOnceIFN7process6FutureINS1_4http8ResponseEEEvEE10CallableFnINS_8internal7PartialIZNK5mesos8internal6master6Master4Http5stateERKNS3_7RequestERK6OptionINS3_14authentication9PrincipalEEEUlRKNS1_5OwnedINSB_15ObjectApproversEEEE_JSR_EEEEclEv+0x27 (/home/bevers/src/mesos/worktrees/state-benchmarking/build-alexr/src/.libs/libmesos-1.8.0.so)
	    7fa4939e8599 _ZNO6lambda12CallableOnceIFvPN7process11ProcessBaseEEE10CallableFnINS_8internal7PartialIZNS1_8internal8DispatchINS1_6FutureINS1_4http8ResponseEEEEclINS0_IFSE_vEEEEESE_RKNS1_4UPIDEOT_EUlSt10unique_ptrINS1_7PromiseISD_EESt14default_deleteISQ_EEOSI_S3_E_JST_SI_St12_PlaceholderILi1EEEEEEclEOS3_+0xc9 (/home/bevers/src/mesos/worktrees/state-benchmarking/build-alexr/src/.libs/libmesos-1.8.0.so)
	    7fa494cb80e2 _ZN7process11ProcessBase7consumeEONS_13DispatchEventE+0x32 (/home/bevers/src/mesos/worktrees/state-benchmarking/build-alexr/src/.libs/libmesos-1.8.0.so)
	    7fa494ccd332 _ZN7process14ProcessManager6resumeEPNS_11ProcessBaseE+0x492 (/home/bevers/src/mesos/worktrees/state-benchmarking/build-alexr/src/.libs/libmesos-1.8.0.so)
	    7fa494cd3606 _ZNSt6thread11_State_implINS_8_InvokerISt5tupleIJZN7process14ProcessManager12init_threadsEvEUlvE_EEEEE6_M_runEv+0x46 (/home/bevers/src/mesos/worktrees/state-benchmarking/build-alexr/src/.libs/libmesos-1.8.0.so)
	    7fa491e43733 [unknown] (/usr/lib/x86_64-linux-gnu/libstdc++.so.6.0.25)

master@127.0.1.1:5050 14784 182029.129252:       5000 cycles:uh: 
	    7fa4939bde53 _ZNSt12__shared_ptrIN7process6FutureINS0_4http8ResponseEE4DataELN9__gnu_cxx12_Lock_policyE2EEC2ERKS8_+0x3 (/home/bevers/src/mesos/worktrees/state-benchmarking/build-alexr/src/.libs/libmesos-1.8.0.so)
	    7fa493b9b2ab _ZNO6lambda12CallableOnceIFN7process6FutureINS1_4http8ResponseEEEvEE10CallableFnINS_8internal7PartialIZNK5mesos8internal6master6Master4Http5stateERKNS3_7RequestERK6OptionINS3_14authentication9PrincipalEEEUlRKNS1_5OwnedINSB_15ObjectApproversEEEE_JSR_EEEEclEv+0x3b (/home/bevers/src/mesos/worktrees/state-benchmarking/build-alexr/src/.libs/libmesos-1.8.0.so)
	    7fa4939e8599 _ZNO6lambda12CallableOnceIFvPN7process11ProcessBaseEEE10CallableFnINS_8internal7PartialIZNS1_8internal8DispatchINS1_6FutureINS1_4http8ResponseEEEEclINS0_IFSE_vEEEEESE_RKNS1_4UPIDEOT_EUlSt10unique_ptrINS1_7PromiseISD_EESt14default_deleteISQ_EEOSI_S3_E_JST_SI_St12_PlaceholderILi1EEEEEEclEOS3_+0xc9 (/home/bevers/src/mesos/worktrees/state-benchmarking/build-alexr/src/.libs/libmesos-1.8.0.so)
	    7fa494cb80e2 _ZN7process11ProcessBase7consumeEONS_13DispatchEventE+0x32 (/home/bevers/src/mesos/worktrees/state-benchmarking/build-alexr/src/.libs/libmesos-1.8.0.so)
	    7fa494ccd332 _ZN7process14ProcessManager6resumeEPNS_11ProcessBaseE+0x492 (/home/bevers/src/mesos/worktrees/state-benchmarking/build-alexr/src/.libs/libmesos-1.8.0.so)
	    7fa494cd3606 _ZNSt6thread11_State_implINS_8_InvokerISt5tupleIJZN7process14ProcessManager12init_threadsEvEUlvE_EEEEE6_M_runEv+0x46 (/home/bevers/src/mesos/worktrees/state-benchmarking/build-alexr/src/.libs/libmesos-1.8.0.so)
	    7fa491e43733 [unknown] (/usr/lib/x86_64-linux-gnu/libstdc++.so.6.0.25)

master@127.0.1.1:5050 14784 182029.129255:       5000 cycles:uh: 
	    7fa493b9ae70 _ZNK5mesos8internal6master6Master4Http19deferBatchedRequestEMNS2_15ReadOnlyHandlerEKFN7process4http8ResponseERKNS6_7RequestERKNS5_5OwnedINS_15ObjectApproversEEEESA_SF_+0x5a0 (/home/bevers/src/mesos/worktrees/state-benchmarking/build-alexr/src/.libs/libmesos-1.8.0.so)
	    7fa493b9b2ab _ZNO6lambda12CallableOnceIFN7process6FutureINS1_4http8ResponseEEEvEE10CallableFnINS_8internal7PartialIZNK5mesos8internal6master6Master4Http5stateERKNS3_7RequestERK6OptionINS3_14authentication9PrincipalEEEUlRKNS1_5OwnedINSB_15ObjectApproversEEEE_JSR_EEEEclEv+0x3b (/home/bevers/src/mesos/worktrees/state-benchmarking/build-alexr/src/.libs/libmesos-1.8.0.so)
	    7fa4939e8599 _ZNO6lambda12CallableOnceIFvPN7process11ProcessBaseEEE10CallableFnINS_8internal7PartialIZNS1_8internal8DispatchINS1_6FutureINS1_4http8ResponseEEEEclINS0_IFSE_vEEEEESE_RKNS1_4UPIDEOT_EUlSt10unique_ptrINS1_7PromiseISD_EESt14default_deleteISQ_EEOSI_S3_E_JST_SI_St12_PlaceholderILi1EEEEEEclEOS3_+0xc9 (/home/bevers/src/mesos/worktrees/state-benchmarking/build-alexr/src/.libs/libmesos-1.8.0.so)
	    7fa494cb80e2 _ZN7process11ProcessBase7consumeEONS_13DispatchEventE+0x32 (/home/bevers/src/mesos/worktrees/state-benchmarking/build-alexr/src/.libs/libmesos-1.8.0.so)
	    7fa494ccd332 _ZN7process14ProcessManager6resumeEPNS_11ProcessBaseE+0x492 (/home/bevers/src/mesos/worktrees/state-benchmarking/build-alexr/src/.libs/libmesos-1.8.0.so)
	    7fa494cd3606 _ZNSt6thread11_State_implINS_8_InvokerISt5tupleIJZN7process14ProcessManager12init_threadsEvEUlvE_EEEEE6_M_runEv+0x46 (/home/bevers/src/mesos/worktrees/state-benchmarking/build-alexr/src/.libs/libmesos-1.8.0.so)
	    7fa491e43733 [unknown] (/usr/lib/x86_64-linux-gnu/libstdc++.so.6.0.25)

master@127.0.1.1:5050 14784 182029.129258:       5000 cycles:uh: 
	    7fa493974070 _ZNSt10_HashtableINSt7__cxx1112basic_stringIcSt11char_traitsIcESaIcEEESt4pairIKS5_S5_ESaIS8_ENSt8__detail10_Select1stEN7process4http20CaseInsensitiveEqualENSD_19CaseInsensitiveHashENSA_18_Mod_range_hashingENSA_20_Default_ranged_hashENSA_20_Prime_rehash_policyENSA_17_Hashtable_traitsILb1ELb0ELb1EEEEC1EOSL_+0x0 (/home/bevers/src/mesos/worktrees/state-benchmarking/build-alexr/src/.libs/libmesos-1.8.0.so)
	    7fa493b9ae80 _ZNK5mesos8internal6master6Master4Http19deferBatchedRequestEMNS2_15ReadOnlyHandlerEKFN7process4http8ResponseERKNS6_7RequestERKNS5_5OwnedINS_15ObjectApproversEEEESA_SF_+0x5b0 (/home/bevers/src/mesos/worktrees/state-benchmarking/build-alexr/src/.libs/libmesos-1.8.0.so)
	    7fa493b9b2ab _ZNO6lambda12CallableOnceIFN7process6FutureINS1_4http8ResponseEEEvEE10CallableFnINS_8internal7PartialIZNK5mesos8internal6master6Master4Http5stateERKNS3_7RequestERK6OptionINS3_14authentication9PrincipalEEEUlRKNS1_5OwnedINSB_15ObjectApproversEEEE_JSR_EEEEclEv+0x3b (/home/bevers/src/mesos/worktrees/state-benchmarking/build-alexr/src/.libs/libmesos-1.8.0.so)
	    7fa4939e8599 _ZNO6lambda12CallableOnceIFvPN7process11ProcessBaseEEE10CallableFnINS_8internal7PartialIZNS1_8internal8DispatchINS1_6FutureINS1_4http8ResponseEEEEclINS0_IFSE_vEEEEESE_RKNS1_4UPIDEOT_EUlSt10unique_ptrINS1_7PromiseISD_EESt14default_deleteISQ_EEOSI_S3_E_JST_SI_St12_PlaceholderILi1EEEEEEclEOS3_+0xc9 (/home/bevers/src/mesos/worktrees/state-benchmarking/build-alexr/src/.libs/libmesos-1.8.0.so)
	    7fa494cb80e2 _ZN7process11ProcessBase7consumeEONS_13DispatchEventE+0x32 (/home/bevers/src/mesos/worktrees/state-benchmarking/build-alexr/src/.libs/libmesos-1.8.0.so)
	    7fa494ccd332 _ZN7process14ProcessManager6resumeEPNS_11ProcessBaseE+0x492 (/home/bevers/src/mesos/worktrees/state-benchmarking/build-alexr/src/.libs/libmesos-1.8.0.so)
	    7fa494cd3606 _ZNSt6thread11_State_implINS_8_InvokerISt5tupleIJZN7process14ProcessManager12init_threadsEvEUlvE_EEEEE6_M_runEv+0x46 (/home/bevers/src/mesos/worktrees/state-benchmarking/build-alexr/src/.libs/libmesos-1.8.0.so)
	    7fa491e43733 [unknown] (/usr/lib/x86_64-linux-gnu/libstdc++.so.6.0.25)

master@127.0.1.1:5050 14784 182029.129261:       5000 cycles:uh: 
	    7fa494cbe240 _ZN7process14ProcessManager7deliverEPNS_11ProcessBaseEPNS_5EventES2_+0x0 (/home/bevers/src/mesos/worktrees/state-benchmarking/build-alexr/src/.libs/libmesos-1.8.0.so)
	    7fa494cc92a7 _ZN7process8internal8dispatchERKNS_4UPIDESt10unique_ptrIN6lambda12CallableOnceIFvPNS_11ProcessBaseEEEESt14default_deleteISA_EERK6OptionIPKSt9type_infoE+0x267 (/home/bevers/src/mesos/worktrees/state-benchmarking/build-alexr/src/.libs/libmesos-1.8.0.so)
	    7fa493b9ae52 _ZNK5mesos8internal6master6Master4Http19deferBatchedRequestEMNS2_15ReadOnlyHandlerEKFN7process4http8ResponseERKNS6_7RequestERKNS5_5OwnedINS_15ObjectApproversEEEESA_SF_+0x582 (/home/bevers/src/mesos/worktrees/state-benchmarking/build-alexr/src/.libs/libmesos-1.8.0.so)
	    7fa493b9b2ab _ZNO6lambda12CallableOnceIFN7process6FutureINS1_4http8ResponseEEEvEE10CallableFnINS_8internal7PartialIZNK5mesos8internal6master6Master4Http5stateERKNS3_7RequestERK6OptionINS3_14authentication9PrincipalEEEUlRKNS1_5OwnedINSB_15ObjectApproversEEEE_JSR_EEEEclEv+0x3b (/home/bevers/src/mesos/worktrees/state-benchmarking/build-alexr/src/.libs/libmesos-1.8.0.so)
	    7fa4939e8599 _ZNO6lambda12CallableOnceIFvPN7process11ProcessBaseEEE10CallableFnINS_8internal7PartialIZNS1_8internal8DispatchINS1_6FutureINS1_4http8ResponseEEEEclINS0_IFSE_vEEEEESE_RKNS1_4UPIDEOT_EUlSt10unique_ptrINS1_7PromiseISD_EESt14default_deleteISQ_EEOSI_S3_E_JST_SI_St12_PlaceholderILi1EEEEEEclEOS3_+0xc9 (/home/bevers/src/mesos/worktrees/state-benchmarking/build-alexr/src/.libs/libmesos-1.8.0.so)
	    7fa494cb80e2 _ZN7process11ProcessBase7consumeEONS_13DispatchEventE+0x32 (/home/bevers/src/mesos/worktrees/state-benchmarking/build-alexr/src/.libs/libmesos-1.8.0.so)
	    7fa494ccd332 _ZN7process14ProcessManager6resumeEPNS_11ProcessBaseE+0x492 (/home/bevers/src/mesos/worktrees/state-benchmarking/build-alexr/src/.libs/libmesos-1.8.0.so)
	    7fa494cd3606 _ZNSt6thread11_State_implINS_8_InvokerISt5tupleIJZN7process14ProcessManager12init_threadsEvEUlvE_EEEEE6_M_runEv+0x46 (/home/bevers/src/mesos/worktrees/state-benchmarking/build-alexr/src/.libs/libmesos-1.8.0.so)
	    7fa491e43733 [unknown] (/usr/lib/x86_64-linux-gnu/libstdc++.so.6.0.25)

master@127.0.1.1:5050 14784 182029.129265:       5000 cycles:uh: 
	    7fa4939cf090 _ZNK7process6FutureINS_4http8ResponseEE8onFailedEON6lambda12CallableOnceIFvRKNSt7__cxx1112basic_stringIcSt11char_traitsIcESaIcEEEEEE+0x0 (/home/bevers/src/mesos/worktrees/state-benchmarking/build-alexr/src/.libs/libmesos-1.8.0.so)
	    7fa4939e8558 _ZNO6lambda12CallableOnceIFvPN7process11ProcessBaseEEE10CallableFnINS_8internal7PartialIZNS1_8internal8DispatchINS1_6FutureINS1_4http8ResponseEEEEclINS0_IFSE_vEEEEESE_RKNS1_4UPIDEOT_EUlSt10unique_ptrINS1_7PromiseISD_EESt14default_deleteISQ_EEOSI_S3_E_JST_SI_St12_PlaceholderILi1EEEEEEclEOS3_+0x88 (/home/bevers/src/mesos/worktrees/state-benchmarking/build-alexr/src/.libs/libmesos-1.8.0.so)
	    7fa494cb80e2 _ZN7process11ProcessBase7consumeEONS_13DispatchEventE+0x32 (/home/bevers/src/mesos/worktrees/state-benchmarking/build-alexr/src/.libs/libmesos-1.8.0.so)
	    7fa494ccd332 _ZN7process14ProcessManager6resumeEPNS_11ProcessBaseE+0x492 (/home/bevers/src/mesos/worktrees/state-benchmarking/build-alexr/src/.libs/libmesos-1.8.0.so)
	    7fa494cd3606 _ZNSt6thread11_State_implINS_8_InvokerISt5tupleIJZN7process14ProcessManager12init_threadsEvEUlvE_EEEEE6_M_runEv+0x46 (/home/bevers/src/mesos/worktrees/state-benchmarking/build-alexr/src/.libs/libmesos-1.8.0.so)
	    7fa491e43733 [unknown] (/usr/lib/x86_64-linux-gnu/libstdc++.so.6.0.25)

master@127.0.1.1:5050 14784 182029.129268:       5000 cycles:uh: 
	    7fa491e10730 _ZNSt9basic_iosIcSt11char_traitsIcEE4initEPSt15basic_streambufIcS1_E@plt+0x0 (/usr/lib/x86_64-linux-gnu/libstdc++.so.6.0.25)
	               0 [unknown] ([unknown])
	               0 [unknown] ([unknown])

master@127.0.1.1:5050 14784 182029.129271:       5000 cycles:uh: 
	    7fa4918b79a0 inet_ntop+0x0 (/lib/x86_64-linux-gnu/libc-2.27.so)
	    7fa494c9dc2d _ZN7processlsERSoRKNS_4UPIDE+0x4d (/home/bevers/src/mesos/worktrees/state-benchmarking/build-alexr/src/.libs/libmesos-1.8.0.so)
	    7fa493c69564 _Z9stringifyIN7process4UPIDEENSt7__cxx1112basic_stringIcSt11char_traitsIcESaIcEEERKT_+0x44 (/home/bevers/src/mesos/worktrees/state-benchmarking/build-alexr/src/.libs/libmesos-1.8.0.so)
	    7fa494c9a8bf _ZN7process16LibprocessTracer7disableEv+0x6f (/home/bevers/src/mesos/worktrees/state-benchmarking/build-alexr/src/.libs/libmesos-1.8.0.so)
	    7fa494ccd344 _ZN7process14ProcessManager6resumeEPNS_11ProcessBaseE+0x4a4 (/home/bevers/src/mesos/worktrees/state-benchmarking/build-alexr/src/.libs/libmesos-1.8.0.so)
	    7fa494cd3606 _ZNSt6thread11_State_implINS_8_InvokerISt5tupleIJZN7process14ProcessManager12init_threadsEvEUlvE_EEEEE6_M_runEv+0x46 (/home/bevers/src/mesos/worktrees/state-benchmarking/build-alexr/src/.libs/libmesos-1.8.0.so)
	    7fa491e43733 [unknown] (/usr/lib/x86_64-linux-gnu/libstdc++.so.6.0.25)

master@127.0.1.1:5050 14784 182029.129274:       5000 cycles:uh: 
	    7fa494c9dc2d _ZN7processlsERSoRKNS_4UPIDE+0x4d (/home/bevers/src/mesos/worktrees/state-benchmarking/build-alexr/src/.libs/libmesos-1.8.0.so)
	    7fa493c69564 _Z9stringifyIN7process4UPIDEENSt7__cxx1112basic_stringIcSt11char_traitsIcESaIcEEERKT_+0x44 (/home/bevers/src/mesos/worktrees/state-benchmarking/build-alexr/src/.libs/libmesos-1.8.0.so)
	    7fa494c9a8bf _ZN7process16LibprocessTracer7disableEv+0x6f (/home/bevers/src/mesos/worktrees/state-benchmarking/build-alexr/src/.libs/libmesos-1.8.0.so)
	    7fa494ccd344 _ZN7process14ProcessManager6resumeEPNS_11ProcessBaseE+0x4a4 (/home/bevers/src/mesos/worktrees/state-benchmarking/build-alexr/src/.libs/libmesos-1.8.0.so)
	    7fa494cd3606 _ZNSt6thread11_State_implINS_8_InvokerISt5tupleIJZN7process14ProcessManager12init_threadsEvEUlvE_EEEEE6_M_runEv+0x46 (/home/bevers/src/mesos/worktrees/state-benchmarking/build-alexr/src/.libs/libmesos-1.8.0.so)
	    7fa491e43733 [unknown] (/usr/lib/x86_64-linux-gnu/libstdc++.so.6.0.25)

master@127.0.1.1:5050 14784 182029.129277:       5000 cycles:uh: 
	    7fa4918a56e0 __libc_enable_asynccancel+0x0 (/lib/x86_64-linux-gnu/libc-2.27.so)
	7220667265702067 [unknown] ([unknown])

__async_executor__(1)@127.0.1.1:5050 14787 182029.130724:       5000 cycles:uh: 
	    7fa493b9e7fc _ZZN7process8dispatchINS_4http8ResponseENS_20AsyncExecutorProcessERKZNK5mesos8internal6master6Master4Http20processRequestsBatchEvEUlMNS7_15ReadOnlyHandlerEKFS2_RKNS1_7RequestERKNS_5OwnedINS4_15ObjectApproversEEEESC_SH_E_SJ_SA_SF_SM_RSJ_RSA_RSF_EENS_6FutureIT_EERKNS_3PIDIT0_EEMSU_FSR_T1_T2_T3_T4_EOT5_OT6_OT7_OT8_ENKUlSt10unique_ptrINS_7PromiseIS2_EESt14default_deleteIS1E_EEOSK_OSJ_OSA_OSF_PNS_11ProcessBaseEE_clES1H_S1I_S1J_S1K_S1L_S1N_+0x24c (/home/bevers/src/mesos/worktrees/state-benchmarking/build-alexr/src/.libs/libmesos-1.8.0.so)
	    7fa493b9eb09 _ZNO6lambda12CallableOnceIFvPN7process11ProcessBaseEEE10CallableFnINS_8internal7PartialIZNS1_8dispatchINS1_4http8ResponseENS1_20AsyncExecutorProcessERKZNK5mesos8internal6master6Master4Http20processRequestsBatchEvEUlMNSG_15ReadOnlyHandlerEKFSB_RKNSA_7RequestERKNS1_5OwnedINSD_15ObjectApproversEEEESL_SQ_E_SS_SJ_SO_SV_RSS_RSJ_RSO_EENS1_6FutureIT_EERKNS1_3PIDIT0_EEMS13_FS10_T1_T2_T3_T4_EOT5_OT6_OT7_OT8_EUlSt10unique_ptrINS1_7PromiseISB_EESt14default_deleteIS1N_EEOST_OSS_OSJ_OSO_S3_E_JS1Q_ST_SS_SJ_SO_St12_PlaceholderILi1EEEEEEclEOS3_+0x59 (/home/bevers/src/mesos/worktrees/state-benchmarking/build-alexr/src/.libs/libmesos-1.8.0.so)
	    7fa494cb80e2 _ZN7process11ProcessBase7consumeEONS_13DispatchEventE+0x32 (/home/bevers/src/mesos/worktrees/state-benchmarking/build-alexr/src/.libs/libmesos-1.8.0.so)
	    7fa494ccd332 _ZN7process14ProcessManager6resumeEPNS_11ProcessBaseE+0x492 (/home/bevers/src/mesos/worktrees/state-benchmarking/build-alexr/src/.libs/libmesos-1.8.0.so)
	    7fa494cd3606 _ZNSt6thread11_State_implINS_8_InvokerISt5tupleIJZN7process14ProcessManager12init_threadsEvEUlvE_EEEEE6_M_runEv+0x46 (/home/bevers/src/mesos/worktrees/state-benchmarking/build-alexr/src/.libs/libmesos-1.8.0.so)
	    7fa491e43733 [unknown] (/usr/lib/x86_64-linux-gnu/libstdc++.so.6.0.25)

__async_executor__(1)@127.0.1.1:5050 14787 182029.130728:       5000 cycles:uh: 
	    7fa49180c20a malloc+0x19a (/lib/x86_64-linux-gnu/libc-2.27.so)

__async_executor__(1)@127.0.1.1:5050 14787 182029.130730:       5000 cycles:uh: 
	    7fa4938e0c60 memcpy@plt+0x0 (/home/bevers/src/mesos/worktrees/state-benchmarking/build-alexr/src/.libs/libmesos-1.8.0.so)
	    7fa493cea9b7 _ZNK5mesos8internal6master6Master15ReadOnlyHandler5stateERKN7process4http7RequestERKNS4_5OwnedINS_15ObjectApproversEEE+0x57 (/home/bevers/src/mesos/worktrees/state-benchmarking/build-alexr/src/.libs/libmesos-1.8.0.so)
	    7fa493b904c8 _ZN7process20AsyncExecutorProcess7executeIZNK5mesos8internal6master6Master4Http20processRequestsBatchEvEUlMNS5_15ReadOnlyHandlerEKFNS_4http8ResponseERKNS8_7RequestERKNS_5OwnedINS2_15ObjectApproversEEEESC_SH_E_SJ_SA_SF_Li0EEENSt9result_ofIFT_T0_T1_T2_EE4typeERKSM_SN_SO_SP_+0x88 (/home/bevers/src/mesos/worktrees/state-benchmarking/build-alexr/src/.libs/libmesos-1.8.0.so)
	    7fa493b9e937 _ZZN7process8dispatchINS_4http8ResponseENS_20AsyncExecutorProcessERKZNK5mesos8internal6master6Master4Http20processRequestsBatchEvEUlMNS7_15ReadOnlyHandlerEKFS2_RKNS1_7RequestERKNS_5OwnedINS4_15ObjectApproversEEEESC_SH_E_SJ_SA_SF_SM_RSJ_RSA_RSF_EENS_6FutureIT_EERKNS_3PIDIT0_EEMSU_FSR_T1_T2_T3_T4_EOT5_OT6_OT7_OT8_ENKUlSt10unique_ptrINS_7PromiseIS2_EESt14default_deleteIS1E_EEOSK_OSJ_OSA_OSF_PNS_11ProcessBaseEE_clES1H_S1I_S1J_S1K_S1L_S1N_+0x387 (/home/bevers/src/mesos/worktrees/state-benchmarking/build-alexr/src/.libs/libmesos-1.8.0.so)
	    7fa493b9eb09 _ZNO6lambda12CallableOnceIFvPN7process11ProcessBaseEEE10CallableFnINS_8internal7PartialIZNS1_8dispatchINS1_4http8ResponseENS1_20AsyncExecutorProcessERKZNK5mesos8internal6master6Master4Http20processRequestsBatchEvEUlMNSG_15ReadOnlyHandlerEKFSB_RKNSA_7RequestERKNS1_5OwnedINSD_15ObjectApproversEEEESL_SQ_E_SS_SJ_SO_SV_RSS_RSJ_RSO_EENS1_6FutureIT_EERKNS1_3PIDIT0_EEMS13_FS10_T1_T2_T3_T4_EOT5_OT6_OT7_OT8_EUlSt10unique_ptrINS1_7PromiseISB_EESt14default_deleteIS1N_EEOST_OSS_OSJ_OSO_S3_E_JS1Q_ST_SS_SJ_SO_St12_PlaceholderILi1EEEEEEclEOS3_+0x59 (/home/bevers/src/mesos/worktrees/state-benchmarking/build-alexr/src/.libs/libmesos-1.8.0.so)
	    7fa494cb80e2 _ZN7process11ProcessBase7consumeEONS_13DispatchEventE+0x32 (/home/bevers/src/mesos/worktrees/state-benchmarking/build-alexr/src/.libs/libmesos-1.8.0.so)
	    7fa494ccd332 _ZN7process14ProcessManager6resumeEPNS_11ProcessBaseE+0x492 (/home/bevers/src/mesos/worktrees/state-benchmarking/build-alexr/src/.libs/libmesos-1.8.0.so)
	    7fa494cd3606 _ZNSt6thread11_State_implINS_8_InvokerISt5tupleIJZN7process14ProcessManager12init_threadsEvEUlvE_EEEEE6_M_runEv+0x46 (/home/bevers/src/mesos/worktrees/state-benchmarking/build-alexr/src/.libs/libmesos-1.8.0.so)
	    7fa491e43733 [unknown] (/usr/lib/x86_64-linux-gnu/libstdc++.so.6.0.25)

__async_executor__(1)@127.0.1.1:5050 14787 182029.130733:       5000 cycles:uh: 
	    7fa495d42709 do_lookup_x+0x4c9 (/lib/x86_64-linux-gnu/ld-2.27.so)
	               0 [unknown] ([unknown])

__async_executor__(1)@127.0.1.1:5050 14787 182029.130736:       5000 cycles:uh: 
	    7fa495d42706 do_lookup_x+0x4c6 (/lib/x86_64-linux-gnu/ld-2.27.so)
	               0 [unknown] ([unknown])

__async_executor__(1)@127.0.1.1:5050 14787 182029.130739:       5000 cycles:uh: 
	    7fa495d42734 do_lookup_x+0x4f4 (/lib/x86_64-linux-gnu/ld-2.27.so)
	               0 [unknown] ([unknown])

__async_executor__(1)@127.0.1.1:5050 14787 182029.130742:       5000 cycles:uh: 
	    7fa494c0b886 _ZNSt7__cxx1112basic_stringIcSt11char_traitsIcESaIcEEC2EPKcRKS3_.isra.1261+0x26 (/home/bevers/src/mesos/worktrees/state-benchmarking/build-alexr/src/.libs/libmesos-1.8.0.so)
	    7fa494c15985 _ZN7process4http2OKC2EON4JSON5ProxyERK6OptionINSt7__cxx1112basic_stringIcSt11char_traitsIcESaIcEEEE+0x115 (/home/bevers/src/mesos/worktrees/state-benchmarking/build-alexr/src/.libs/libmesos-1.8.0.so)
	    7fa493ceaa0f _ZNK5mesos8internal6master6Master15ReadOnlyHandler5stateERKN7process4http7RequestERKNS4_5OwnedINS_15ObjectApproversEEE+0xaf (/home/bevers/src/mesos/worktrees/state-benchmarking/build-alexr/src/.libs/libmesos-1.8.0.so)
	    7fa493b904c8 _ZN7process20AsyncExecutorProcess7executeIZNK5mesos8internal6master6Master4Http20processRequestsBatchEvEUlMNS5_15ReadOnlyHandlerEKFNS_4http8ResponseERKNS8_7RequestERKNS_5OwnedINS2_15ObjectApproversEEEESC_SH_E_SJ_SA_SF_Li0EEENSt9result_ofIFT_T0_T1_T2_EE4typeERKSM_SN_SO_SP_+0x88 (/home/bevers/src/mesos/worktrees/state-benchmarking/build-alexr/src/.libs/libmesos-1.8.0.so)
	    7fa493b9e937 _ZZN7process8dispatchINS_4http8ResponseENS_20AsyncExecutorProcessERKZNK5mesos8internal6master6Master4Http20processRequestsBatchEvEUlMNS7_15ReadOnlyHandlerEKFS2_RKNS1_7RequestERKNS_5OwnedINS4_15ObjectApproversEEEESC_SH_E_SJ_SA_SF_SM_RSJ_RSA_RSF_EENS_6FutureIT_EERKNS_3PIDIT0_EEMSU_FSR_T1_T2_T3_T4_EOT5_OT6_OT7_OT8_ENKUlSt10unique_ptrINS_7PromiseIS2_EESt14default_deleteIS1E_EEOSK_OSJ_OSA_OSF_PNS_11ProcessBaseEE_clES1H_S1I_S1J_S1K_S1L_S1N_+0x387 (/home/bevers/src/mesos/worktrees/state-benchmarking/build-alexr/src/.libs/libmesos-1.8.0.so)
	    7fa493b9eb09 _ZNO6lambda12CallableOnceIFvPN7process11ProcessBaseEEE10CallableFnINS_8internal7PartialIZNS1_8dispatchINS1_4http8ResponseENS1_20AsyncExecutorProcessERKZNK5mesos8internal6master6Master4Http20processRequestsBatchEvEUlMNSG_15ReadOnlyHandlerEKFSB_RKNSA_7RequestERKNS1_5OwnedINSD_15ObjectApproversEEEESL_SQ_E_SS_SJ_SO_SV_RSS_RSJ_RSO_EENS1_6FutureIT_EERKNS1_3PIDIT0_EEMS13_FS10_T1_T2_T3_T4_EOT5_OT6_OT7_OT8_EUlSt10unique_ptrINS1_7PromiseISB_EESt14default_deleteIS1N_EEOST_OSS_OSJ_OSO_S3_E_JS1Q_ST_SS_SJ_SO_St12_PlaceholderILi1EEEEEEclEOS3_+0x59 (/home/bevers/src/mesos/worktrees/state-benchmarking/build-alexr/src/.libs/libmesos-1.8.0.so)
	    7fa494cb80e2 _ZN7process11ProcessBase7consumeEONS_13DispatchEventE+0x32 (/home/bevers/src/mesos/worktrees/state-benchmarking/build-alexr/src/.libs/libmesos-1.8.0.so)
	    7fa494ccd332 _ZN7process14ProcessManager6resumeEPNS_11ProcessBaseE+0x492 (/home/bevers/src/mesos/worktrees/state-benchmarking/build-alexr/src/.libs/libmesos-1.8.0.so)
	    7fa494cd3606 _ZNSt6thread11_State_implINS_8_InvokerISt5tupleIJZN7process14ProcessManager12init_threadsEvEUlvE_EEEEE6_M_runEv+0x46 (/home/bevers/src/mesos/worktrees/state-benchmarking/build-alexr/src/.libs/libmesos-1.8.0.so)
	    7fa491e43733 [unknown] (/usr/lib/x86_64-linux-gnu/libstdc++.so.6.0.25)

__async_executor__(1)@127.0.1.1:5050 14787 182029.130745:       5000 cycles:uh: 
	    7fa495d47e1d _dl_fixup+0x2d (/lib/x86_64-linux-gnu/ld-2.27.so)
	    7fa493ceaa0f _ZNK5mesos8internal6master6Master15ReadOnlyHandler5stateERKN7process4http7RequestERKNS4_5OwnedINS_15ObjectApproversEEE+0xaf (/home/bevers/src/mesos/worktrees/state-benchmarking/build-alexr/src/.libs/libmesos-1.8.0.so)
	    7fa493b904c8 _ZN7process20AsyncExecutorProcess7executeIZNK5mesos8internal6master6Master4Http20processRequestsBatchEvEUlMNS5_15ReadOnlyHandlerEKFNS_4http8ResponseERKNS8_7RequestERKNS_5OwnedINS2_15ObjectApproversEEEESC_SH_E_SJ_SA_SF_Li0EEENSt9result_ofIFT_T0_T1_T2_EE4typeERKSM_SN_SO_SP_+0x88 (/home/bevers/src/mesos/worktrees/state-benchmarking/build-alexr/src/.libs/libmesos-1.8.0.so)
	    7fa493b9e937 _ZZN7process8dispatchINS_4http8ResponseENS_20AsyncExecutorProcessERKZNK5mesos8internal6master6Master4Http20processRequestsBatchEvEUlMNS7_15ReadOnlyHandlerEKFS2_RKNS1_7RequestERKNS_5OwnedINS4_15ObjectApproversEEEESC_SH_E_SJ_SA_SF_SM_RSJ_RSA_RSF_EENS_6FutureIT_EERKNS_3PIDIT0_EEMSU_FSR_T1_T2_T3_T4_EOT5_OT6_OT7_OT8_ENKUlSt10unique_ptrINS_7PromiseIS2_EESt14default_deleteIS1E_EEOSK_OSJ_OSA_OSF_PNS_11ProcessBaseEE_clES1H_S1I_S1J_S1K_S1L_S1N_+0x387 (/home/bevers/src/mesos/worktrees/state-benchmarking/build-alexr/src/.libs/libmesos-1.8.0.so)
	    7fa493b9eb09 _ZNO6lambda12CallableOnceIFvPN7process11ProcessBaseEEE10CallableFnINS_8internal7PartialIZNS1_8dispatchINS1_4http8ResponseENS1_20AsyncExecutorProcessERKZNK5mesos8internal6master6Master4Http20processRequestsBatchEvEUlMNSG_15ReadOnlyHandlerEKFSB_RKNSA_7RequestERKNS1_5OwnedINSD_15ObjectApproversEEEESL_SQ_E_SS_SJ_SO_SV_RSS_RSJ_RSO_EENS1_6FutureIT_EERKNS1_3PIDIT0_EEMS13_FS10_T1_T2_T3_T4_EOT5_OT6_OT7_OT8_EUlSt10unique_ptrINS1_7PromiseISB_EESt14default_deleteIS1N_EEOST_OSS_OSJ_OSO_S3_E_JS1Q_ST_SS_SJ_SO_St12_PlaceholderILi1EEEEEEclEOS3_+0x59 (/home/bevers/src/mesos/worktrees/state-benchmarking/build-alexr/src/.libs/libmesos-1.8.0.so)
	    7fa494cb80e2 _ZN7process11ProcessBase7consumeEONS_13DispatchEventE+0x32 (/home/bevers/src/mesos/worktrees/state-benchmarking/build-alexr/src/.libs/libmesos-1.8.0.so)
	    7fa494ccd332 _ZN7process14ProcessManager6resumeEPNS_11ProcessBaseE+0x492 (/home/bevers/src/mesos/worktrees/state-benchmarking/build-alexr/src/.libs/libmesos-1.8.0.so)
	    7fa494cd3606 _ZNSt6thread11_State_implINS_8_InvokerISt5tupleIJZN7process14ProcessManager12init_threadsEvEUlvE_EEEEE6_M_runEv+0x46 (/home/bevers/src/mesos/worktrees/state-benchmarking/build-alexr/src/.libs/libmesos-1.8.0.so)
	    7fa491e43733 [unknown] (/usr/lib/x86_64-linux-gnu/libstdc++.so.6.0.25)

__async_executor__(1)@127.0.1.1:5050 14787 182029.130748:       5000 cycles:uh: 
	    7fa495d47e4b _dl_fixup+0x5b (/lib/x86_64-linux-gnu/ld-2.27.so)
	    7fa493ceaa0f _ZNK5mesos8internal6master6Master15ReadOnlyHandler5stateERKN7process4http7RequestERKNS4_5OwnedINS_15ObjectApproversEEE+0xaf (/home/bevers/src/mesos/worktrees/state-benchmarking/build-alexr/src/.libs/libmesos-1.8.0.so)
	    7fa493b904c8 _ZN7process20AsyncExecutorProcess7executeIZNK5mesos8internal6master6Master4Http20processRequestsBatchEvEUlMNS5_15ReadOnlyHandlerEKFNS_4http8ResponseERKNS8_7RequestERKNS_5OwnedINS2_15ObjectApproversEEEESC_SH_E_SJ_SA_SF_Li0EEENSt9result_ofIFT_T0_T1_T2_EE4typeERKSM_SN_SO_SP_+0x88 (/home/bevers/src/mesos/worktrees/state-benchmarking/build-alexr/src/.libs/libmesos-1.8.0.so)
	    7fa493b9e937 _ZZN7process8dispatchINS_4http8ResponseENS_20AsyncExecutorProcessERKZNK5mesos8internal6master6Master4Http20processRequestsBatchEvEUlMNS7_15ReadOnlyHandlerEKFS2_RKNS1_7RequestERKNS_5OwnedINS4_15ObjectApproversEEEESC_SH_E_SJ_SA_SF_SM_RSJ_RSA_RSF_EENS_6FutureIT_EERKNS_3PIDIT0_EEMSU_FSR_T1_T2_T3_T4_EOT5_OT6_OT7_OT8_ENKUlSt10unique_ptrINS_7PromiseIS2_EESt14default_deleteIS1E_EEOSK_OSJ_OSA_OSF_PNS_11ProcessBaseEE_clES1H_S1I_S1J_S1K_S1L_S1N_+0x387 (/home/bevers/src/mesos/worktrees/state-benchmarking/build-alexr/src/.libs/libmesos-1.8.0.so)
	    7fa493b9eb09 _ZNO6lambda12CallableOnceIFvPN7process11ProcessBaseEEE10CallableFnINS_8internal7PartialIZNS1_8dispatchINS1_4http8ResponseENS1_20AsyncExecutorProcessERKZNK5mesos8internal6master6Master4Http20processRequestsBatchEvEUlMNSG_15ReadOnlyHandlerEKFSB_RKNSA_7RequestERKNS1_5OwnedINSD_15ObjectApproversEEEESL_SQ_E_SS_SJ_SO_SV_RSS_RSJ_RSO_EENS1_6FutureIT_EERKNS1_3PIDIT0_EEMS13_FS10_T1_T2_T3_T4_EOT5_OT6_OT7_OT8_EUlSt10unique_ptrINS1_7PromiseISB_EESt14default_deleteIS1N_EEOST_OSS_OSJ_OSO_S3_E_JS1Q_ST_SS_SJ_SO_St12_PlaceholderILi1EEEEEEclEOS3_+0x59 (/home/bevers/src/mesos/worktrees/state-benchmarking/build-alexr/src/.libs/libmesos-1.8.0.so)
	    7fa494cb80e2 _ZN7process11ProcessBase7consumeEONS_13DispatchEventE+0x32 (/home/bevers/src/mesos/worktrees/state-benchmarking/build-alexr/src/.libs/libmesos-1.8.0.so)
	    7fa494ccd332 _ZN7process14ProcessManager6resumeEPNS_11ProcessBaseE+0x492 (/home/bevers/src/mesos/worktrees/state-benchmarking/build-alexr/src/.libs/libmesos-1.8.0.so)
	    7fa494cd3606 _ZNSt6thread11_State_implINS_8_InvokerISt5tupleIJZN7process14ProcessManager12init_threadsEvEUlvE_EEEEE6_M_runEv+0x46 (/home/bevers/src/mesos/worktrees/state-benchmarking/build-alexr/src/.libs/libmesos-1.8.0.so)
	    7fa491e43733 [unknown] (/usr/lib/x86_64-linux-gnu/libstdc++.so.6.0.25)

__async_executor__(1)@127.0.1.1:5050 14787 182029.130752:       5000 cycles:uh: 
	    7fa495d42715 do_lookup_x+0x4d5 (/lib/x86_64-linux-gnu/ld-2.27.so)
	               0 [unknown] ([unknown])

__async_executor__(1)@127.0.1.1:5050 14787 182029.130755:       5000 cycles:uh: 
	    7fa491eaee00 _ZNSt7__cxx1112basic_stringIcSt11char_traitsIcESaIcEE6assignEPKc+0x0 (/usr/lib/x86_64-linux-gnu/libstdc++.so.6.0.25)
	    7fa493ceaa0f _ZNK5mesos8internal6master6Master15ReadOnlyHandler5stateERKN7process4http7RequestERKNS4_5OwnedINS_15ObjectApproversEEE+0xaf (/home/bevers/src/mesos/worktrees/state-benchmarking/build-alexr/src/.libs/libmesos-1.8.0.so)
	    7fa493b904c8 _ZN7process20AsyncExecutorProcess7executeIZNK5mesos8internal6master6Master4Http20processRequestsBatchEvEUlMNS5_15ReadOnlyHandlerEKFNS_4http8ResponseERKNS8_7RequestERKNS_5OwnedINS2_15ObjectApproversEEEESC_SH_E_SJ_SA_SF_Li0EEENSt9result_ofIFT_T0_T1_T2_EE4typeERKSM_SN_SO_SP_+0x88 (/home/bevers/src/mesos/worktrees/state-benchmarking/build-alexr/src/.libs/libmesos-1.8.0.so)
	    7fa493b9e937 _ZZN7process8dispatchINS_4http8ResponseENS_20AsyncExecutorProcessERKZNK5mesos8internal6master6Master4Http20processRequestsBatchEvEUlMNS7_15ReadOnlyHandlerEKFS2_RKNS1_7RequestERKNS_5OwnedINS4_15ObjectApproversEEEESC_SH_E_SJ_SA_SF_SM_RSJ_RSA_RSF_EENS_6FutureIT_EERKNS_3PIDIT0_EEMSU_FSR_T1_T2_T3_T4_EOT5_OT6_OT7_OT8_ENKUlSt10unique_ptrINS_7PromiseIS2_EESt14default_deleteIS1E_EEOSK_OSJ_OSA_OSF_PNS_11ProcessBaseEE_clES1H_S1I_S1J_S1K_S1L_S1N_+0x387 (/home/bevers/src/mesos/worktrees/state-benchmarking/build-alexr/src/.libs/libmesos-1.8.0.so)
	    7fa493b9eb09 _ZNO6lambda12CallableOnceIFvPN7process11ProcessBaseEEE10CallableFnINS_8internal7PartialIZNS1_8dispatchINS1_4http8ResponseENS1_20AsyncExecutorProcessERKZNK5mesos8internal6master6Master4Http20processRequestsBatchEvEUlMNSG_15ReadOnlyHandlerEKFSB_RKNSA_7RequestERKNS1_5OwnedINSD_15ObjectApproversEEEESL_SQ_E_SS_SJ_SO_SV_RSS_RSJ_RSO_EENS1_6FutureIT_EERKNS1_3PIDIT0_EEMS13_FS10_T1_T2_T3_T4_EOT5_OT6_OT7_OT8_EUlSt10unique_ptrINS1_7PromiseISB_EESt14default_deleteIS1N_EEOST_OSS_OSJ_OSO_S3_E_JS1Q_ST_SS_SJ_SO_St12_PlaceholderILi1EEEEEEclEOS3_+0x59 (/home/bevers/src/mesos/worktrees/state-benchmarking/build-alexr/src/.libs/libmesos-1.8.0.so)
	    7fa494cb80e2 _ZN7process11ProcessBase7consumeEONS_13DispatchEventE+0x32 (/home/bevers/src/mesos/worktrees/state-benchmarking/build-alexr/src/.libs/libmesos-1.8.0.so)
	    7fa494ccd332 _ZN7process14ProcessManager6resumeEPNS_11ProcessBaseE+0x492 (/home/bevers/src/mesos/worktrees/state-benchmarking/build-alexr/src/.libs/libmesos-1.8.0.so)
	    7fa494cd3606 _ZNSt6thread11_State_implINS_8_InvokerISt5tupleIJZN7process14ProcessManager12init_threadsEvEUlvE_EEEEE6_M_runEv+0x46 (/home/bevers/src/mesos/worktrees/state-benchmarking/build-alexr/src/.libs/libmesos-1.8.0.so)
	    7fa491e43733 [unknown] (/usr/lib/x86_64-linux-gnu/libstdc++.so.6.0.25)

__async_executor__(1)@127.0.1.1:5050 14787 182029.130764:       5000 cycles:uh: 
	    7fa4919035a5 __strlen_avx2+0x15 (/lib/x86_64-linux-gnu/libc-2.27.so)
	6e6f736a2f6e6f69 [unknown] ([unknown])

__async_executor__(1)@127.0.1.1:5050 14787 182029.130767:       5000 cycles:uh: 
	    7fa49180c20a malloc+0x19a (/lib/x86_64-linux-gnu/libc-2.27.so)

__async_executor__(1)@127.0.1.1:5050 14787 182029.130772:       5000 cycles:uh: 
	    7fa493cf99a1 _ZNSt17_Function_handlerIFvPN9rapidjson6WriterINS0_19GenericStringBufferINS0_4UTF8IcEENS0_12CrtAllocatorEEES4_S4_S5_Lj0EEEEZN4JSON8internal7jsonifyIZNK5mesos8internal6master6Master15ReadOnlyHandler5stateERKN7process4http7RequestERKNSI_5OwnedINSD_15ObjectApproversEEEEUlPNSA_12ObjectWriterEE_vEESt8functionIS9_ERKT_NSB_6PreferEEUlS8_E_E9_M_invokeERKSt9_Any_dataOS8_+0x1 (/home/bevers/src/mesos/worktrees/state-benchmarking/build-alexr/src/.libs/libmesos-1.8.0.so)
	    7fa494c159c1 _ZN7process4http2OKC2EON4JSON5ProxyERK6OptionINSt7__cxx1112basic_stringIcSt11char_traitsIcESaIcEEEE+0x151 (/home/bevers/src/mesos/worktrees/state-benchmarking/build-alexr/src/.libs/libmesos-1.8.0.so)
	    7fa493ceaa0f _ZNK5mesos8internal6master6Master15ReadOnlyHandler5stateERKN7process4http7RequestERKNS4_5OwnedINS_15ObjectApproversEEE+0xaf (/home/bevers/src/mesos/worktrees/state-benchmarking/build-alexr/src/.libs/libmesos-1.8.0.so)
	    7fa493b904c8 _ZN7process20AsyncExecutorProcess7executeIZNK5mesos8internal6master6Master4Http20processRequestsBatchEvEUlMNS5_15ReadOnlyHandlerEKFNS_4http8ResponseERKNS8_7RequestERKNS_5OwnedINS2_15ObjectApproversEEEESC_SH_E_SJ_SA_SF_Li0EEENSt9result_ofIFT_T0_T1_T2_EE4typeERKSM_SN_SO_SP_+0x88 (/home/bevers/src/mesos/worktrees/state-benchmarking/build-alexr/src/.libs/libmesos-1.8.0.so)
	    7fa493b9e937 _ZZN7process8dispatchINS_4http8ResponseENS_20AsyncExecutorProcessERKZNK5mesos8internal6master6Master4Http20processRequestsBatchEvEUlMNS7_15ReadOnlyHandlerEKFS2_RKNS1_7RequestERKNS_5OwnedINS4_15ObjectApproversEEEESC_SH_E_SJ_SA_SF_SM_RSJ_RSA_RSF_EENS_6FutureIT_EERKNS_3PIDIT0_EEMSU_FSR_T1_T2_T3_T4_EOT5_OT6_OT7_OT8_ENKUlSt10unique_ptrINS_7PromiseIS2_EESt14default_deleteIS1E_EEOSK_OSJ_OSA_OSF_PNS_11ProcessBaseEE_clES1H_S1I_S1J_S1K_S1L_S1N_+0x387 (/home/bevers/src/mesos/worktrees/state-benchmarking/build-alexr/src/.libs/libmesos-1.8.0.so)
	    7fa493b9eb09 _ZNO6lambda12CallableOnceIFvPN7process11ProcessBaseEEE10CallableFnINS_8internal7PartialIZNS1_8dispatchINS1_4http8ResponseENS1_20AsyncExecutorProcessERKZNK5mesos8internal6master6Master4Http20processRequestsBatchEvEUlMNSG_15ReadOnlyHandlerEKFSB_RKNSA_7RequestERKNS1_5OwnedINSD_15ObjectApproversEEEESL_SQ_E_SS_SJ_SO_SV_RSS_RSJ_RSO_EENS1_6FutureIT_EERKNS1_3PIDIT0_EEMS13_FS10_T1_T2_T3_T4_EOT5_OT6_OT7_OT8_EUlSt10unique_ptrINS1_7PromiseISB_EESt14default_deleteIS1N_EEOST_OSS_OSJ_OSO_S3_E_JS1Q_ST_SS_SJ_SO_St12_PlaceholderILi1EEEEEEclEOS3_+0x59 (/home/bevers/src/mesos/worktrees/state-benchmarking/build-alexr/src/.libs/libmesos-1.8.0.so)
	    7fa494cb80e2 _ZN7process11ProcessBase7consumeEONS_13DispatchEventE+0x32 (/home/bevers/src/mesos/worktrees/state-benchmarking/build-alexr/src/.libs/libmesos-1.8.0.so)
	    7fa494ccd332 _ZN7process14ProcessManager6resumeEPNS_11ProcessBaseE+0x492 (/home/bevers/src/mesos/worktrees/state-benchmarking/build-alexr/src/.libs/libmesos-1.8.0.so)
	    7fa494cd3606 _ZNSt6thread11_State_implINS_8_InvokerISt5tupleIJZN7process14ProcessManager12init_threadsEvEUlvE_EEEEE6_M_runEv+0x46 (/home/bevers/src/mesos/worktrees/state-benchmarking/build-alexr/src/.libs/libmesos-1.8.0.so)
	    7fa491e43733 [unknown] (/usr/lib/x86_64-linux-gnu/libstdc++.so.6.0.25)

__async_executor__(1)@127.0.1.1:5050 14787 182029.130776:       5000 cycles:uh: 
	    7fa495d430ff _dl_lookup_symbol_x+0x4f (/lib/x86_64-linux-gnu/ld-2.27.so)

__async_executor__(1)@127.0.1.1:5050 14787 182029.130779:       5000 cycles:uh: 
	    7fa495d47e4b _dl_fixup+0x5b (/lib/x86_64-linux-gnu/ld-2.27.so)
	    7fa493cf99d1 _ZNSt17_Function_handlerIFvPN9rapidjson6WriterINS0_19GenericStringBufferINS0_4UTF8IcEENS0_12CrtAllocatorEEES4_S4_S5_Lj0EEEEZN4JSON8internal7jsonifyIZNK5mesos8internal6master6Master15ReadOnlyHandler5stateERKN7process4http7RequestERKNSI_5OwnedINSD_15ObjectApproversEEEEUlPNSA_12ObjectWriterEE_vEESt8functionIS9_ERKT_NSB_6PreferEEUlS8_E_E9_M_invokeERKSt9_Any_dataOS8_+0x31 (/home/bevers/src/mesos/worktrees/state-benchmarking/build-alexr/src/.libs/libmesos-1.8.0.so)
	    7fa493a0c402 _ZNO4JSON5ProxycvNSt7__cxx1112basic_stringIcSt11char_traitsIcESaIcEEEB5cxx11Ev+0xc2 (/home/bevers/src/mesos/worktrees/state-benchmarking/build-alexr/src/.libs/libmesos-1.8.0.so)
	    7fa494c159c1 _ZN7process4http2OKC2EON4JSON5ProxyERK6OptionINSt7__cxx1112basic_stringIcSt11char_traitsIcESaIcEEEE+0x151 (/home/bevers/src/mesos/worktrees/state-benchmarking/build-alexr/src/.libs/libmesos-1.8.0.so)
	    7fa493ceaa0f _ZNK5mesos8internal6master6Master15ReadOnlyHandler5stateERKN7process4http7RequestERKNS4_5OwnedINS_15ObjectApproversEEE+0xaf (/home/bevers/src/mesos/worktrees/state-benchmarking/build-alexr/src/.libs/libmesos-1.8.0.so)
	    7fa493b904c8 _ZN7process20AsyncExecutorProcess7executeIZNK5mesos8internal6master6Master4Http20processRequestsBatchEvEUlMNS5_15ReadOnlyHandlerEKFNS_4http8ResponseERKNS8_7RequestERKNS_5OwnedINS2_15ObjectApproversEEEESC_SH_E_SJ_SA_SF_Li0EEENSt9result_ofIFT_T0_T1_T2_EE4typeERKSM_SN_SO_SP_+0x88 (/home/bevers/src/mesos/worktrees/state-benchmarking/build-alexr/src/.libs/libmesos-1.8.0.so)
	    7fa493b9e937 _ZZN7process8dispatchINS_4http8ResponseENS_20AsyncExecutorProcessERKZNK5mesos8internal6master6Master4Http20processRequestsBatchEvEUlMNS7_15ReadOnlyHandlerEKFS2_RKNS1_7RequestERKNS_5OwnedINS4_15ObjectApproversEEEESC_SH_E_SJ_SA_SF_SM_RSJ_RSA_RSF_EENS_6FutureIT_EERKNS_3PIDIT0_EEMSU_FSR_T1_T2_T3_T4_EOT5_OT6_OT7_OT8_ENKUlSt10unique_ptrINS_7PromiseIS2_EESt14default_deleteIS1E_EEOSK_OSJ_OSA_OSF_PNS_11ProcessBaseEE_clES1H_S1I_S1J_S1K_S1L_S1N_+0x387 (/home/bevers/src/mesos/worktrees/state-benchmarking/build-alexr/src/.libs/libmesos-1.8.0.so)
	    7fa493b9eb09 _ZNO6lambda12CallableOnceIFvPN7process11ProcessBaseEEE10CallableFnINS_8internal7PartialIZNS1_8dispatchINS1_4http8ResponseENS1_20AsyncExecutorProcessERKZNK5mesos8internal6master6Master4Http20processRequestsBatchEvEUlMNSG_15ReadOnlyHandlerEKFSB_RKNSA_7RequestERKNS1_5OwnedINSD_15ObjectApproversEEEESL_SQ_E_SS_SJ_SO_SV_RSS_RSJ_RSO_EENS1_6FutureIT_EERKNS1_3PIDIT0_EEMS13_FS10_T1_T2_T3_T4_EOT5_OT6_OT7_OT8_EUlSt10unique_ptrINS1_7PromiseISB_EESt14default_deleteIS1N_EEOST_OSS_OSJ_OSO_S3_E_JS1Q_ST_SS_SJ_SO_St12_PlaceholderILi1EEEEEEclEOS3_+0x59 (/home/bevers/src/mesos/worktrees/state-benchmarking/build-alexr/src/.libs/libmesos-1.8.0.so)
	    7fa494cb80e2 _ZN7process11ProcessBase7consumeEONS_13DispatchEventE+0x32 (/home/bevers/src/mesos/worktrees/state-benchmarking/build-alexr/src/.libs/libmesos-1.8.0.so)
	    7fa494ccd332 _ZN7process14ProcessManager6resumeEPNS_11ProcessBaseE+0x492 (/home/bevers/src/mesos/worktrees/state-benchmarking/build-alexr/src/.libs/libmesos-1.8.0.so)
	    7fa494cd3606 _ZNSt6thread11_State_implINS_8_InvokerISt5tupleIJZN7process14ProcessManager12init_threadsEvEUlvE_EEEEE6_M_runEv+0x46 (/home/bevers/src/mesos/worktrees/state-benchmarking/build-alexr/src/.libs/libmesos-1.8.0.so)
	    7fa491e43733 [unknown] (/usr/lib/x86_64-linux-gnu/libstdc++.so.6.0.25)

__async_executor__(1)@127.0.1.1:5050 14787 182029.130782:       5000 cycles:uh: 
	    7fa495d422fb do_lookup_x+0xbb (/lib/x86_64-linux-gnu/ld-2.27.so)

__async_executor__(1)@127.0.1.1:5050 14787 182029.130784:       5000 cycles:uh: 
	    7fa495d47e4b _dl_fixup+0x5b (/lib/x86_64-linux-gnu/ld-2.27.so)
	    7fa493cf99e4 _ZNSt17_Function_handlerIFvPN9rapidjson6WriterINS0_19GenericStringBufferINS0_4UTF8IcEENS0_12CrtAllocatorEEES4_S4_S5_Lj0EEEEZN4JSON8internal7jsonifyIZNK5mesos8internal6master6Master15ReadOnlyHandler5stateERKN7process4http7RequestERKNSI_5OwnedINSD_15ObjectApproversEEEEUlPNSA_12ObjectWriterEE_vEESt8functionIS9_ERKT_NSB_6PreferEEUlS8_E_E9_M_invokeERKSt9_Any_dataOS8_+0x44 (/home/bevers/src/mesos/worktrees/state-benchmarking/build-alexr/src/.libs/libmesos-1.8.0.so)
	    7fa493a0c402 _ZNO4JSON5ProxycvNSt7__cxx1112basic_stringIcSt11char_traitsIcESaIcEEEB5cxx11Ev+0xc2 (/home/bevers/src/mesos/worktrees/state-benchmarking/build-alexr/src/.libs/libmesos-1.8.0.so)
	    7fa494c159c1 _ZN7process4http2OKC2EON4JSON5ProxyERK6OptionINSt7__cxx1112basic_stringIcSt11char_traitsIcESaIcEEEE+0x151 (/home/bevers/src/mesos/worktrees/state-benchmarking/build-alexr/src/.libs/libmesos-1.8.0.so)
	    7fa493ceaa0f _ZNK5mesos8internal6master6Master15ReadOnlyHandler5stateERKN7process4http7RequestERKNS4_5OwnedINS_15ObjectApproversEEE+0xaf (/home/bevers/src/mesos/worktrees/state-benchmarking/build-alexr/src/.libs/libmesos-1.8.0.so)
	    7fa493b904c8 _ZN7process20AsyncExecutorProcess7executeIZNK5mesos8internal6master6Master4Http20processRequestsBatchEvEUlMNS5_15ReadOnlyHandlerEKFNS_4http8ResponseERKNS8_7RequestERKNS_5OwnedINS2_15ObjectApproversEEEESC_SH_E_SJ_SA_SF_Li0EEENSt9result_ofIFT_T0_T1_T2_EE4typeERKSM_SN_SO_SP_+0x88 (/home/bevers/src/mesos/worktrees/state-benchmarking/build-alexr/src/.libs/libmesos-1.8.0.so)
	    7fa493b9e937 _ZZN7process8dispatchINS_4http8ResponseENS_20AsyncExecutorProcessERKZNK5mesos8internal6master6Master4Http20processRequestsBatchEvEUlMNS7_15ReadOnlyHandlerEKFS2_RKNS1_7RequestERKNS_5OwnedINS4_15ObjectApproversEEEESC_SH_E_SJ_SA_SF_SM_RSJ_RSA_RSF_EENS_6FutureIT_EERKNS_3PIDIT0_EEMSU_FSR_T1_T2_T3_T4_EOT5_OT6_OT7_OT8_ENKUlSt10unique_ptrINS_7PromiseIS2_EESt14default_deleteIS1E_EEOSK_OSJ_OSA_OSF_PNS_11ProcessBaseEE_clES1H_S1I_S1J_S1K_S1L_S1N_+0x387 (/home/bevers/src/mesos/worktrees/state-benchmarking/build-alexr/src/.libs/libmesos-1.8.0.so)
	    7fa493b9eb09 _ZNO6lambda12CallableOnceIFvPN7process11ProcessBaseEEE10CallableFnINS_8internal7PartialIZNS1_8dispatchINS1_4http8ResponseENS1_20AsyncExecutorProcessERKZNK5mesos8internal6master6Master4Http20processRequestsBatchEvEUlMNSG_15ReadOnlyHandlerEKFSB_RKNSA_7RequestERKNS1_5OwnedINSD_15ObjectApproversEEEESL_SQ_E_SS_SJ_SO_SV_RSS_RSJ_RSO_EENS1_6FutureIT_EERKNS1_3PIDIT0_EEMS13_FS10_T1_T2_T3_T4_EOT5_OT6_OT7_OT8_EUlSt10unique_ptrINS1_7PromiseISB_EESt14default_deleteIS1N_EEOST_OSS_OSJ_OSO_S3_E_JS1Q_ST_SS_SJ_SO_St12_PlaceholderILi1EEEEEEclEOS3_+0x59 (/home/bevers/src/mesos/worktrees/state-benchmarking/build-alexr/src/.libs/libmesos-1.8.0.so)
	    7fa494cb80e2 _ZN7process11ProcessBase7consumeEONS_13DispatchEventE+0x32 (/home/bevers/src/mesos/worktrees/state-benchmarking/build-alexr/src/.libs/libmesos-1.8.0.so)
	    7fa494ccd332 _ZN7process14ProcessManager6resumeEPNS_11ProcessBaseE+0x492 (/home/bevers/src/mesos/worktrees/state-benchmarking/build-alexr/src/.libs/libmesos-1.8.0.so)
	    7fa494cd3606 _ZNSt6thread11_State_implINS_8_InvokerISt5tupleIJZN7process14ProcessManager12init_threadsEvEUlvE_EEEEE6_M_runEv+0x46 (/home/bevers/src/mesos/worktrees/state-benchmarking/build-alexr/src/.libs/libmesos-1.8.0.so)
	    7fa491e43733 [unknown] (/usr/lib/x86_64-linux-gnu/libstdc++.so.6.0.25)

__async_executor__(1)@127.0.1.1:5050 14787 182029.130788:       5000 cycles:uh: 
	    7fa495d47e1d _dl_fixup+0x2d (/lib/x86_64-linux-gnu/ld-2.27.so)
	    7fa493cf99e4 _ZNSt17_Function_handlerIFvPN9rapidjson6WriterINS0_19GenericStringBufferINS0_4UTF8IcEENS0_12CrtAllocatorEEES4_S4_S5_Lj0EEEEZN4JSON8internal7jsonifyIZNK5mesos8internal6master6Master15ReadOnlyHandler5stateERKN7process4http7RequestERKNSI_5OwnedINSD_15ObjectApproversEEEEUlPNSA_12ObjectWriterEE_vEESt8functionIS9_ERKT_NSB_6PreferEEUlS8_E_E9_M_invokeERKSt9_Any_dataOS8_+0x44 (/home/bevers/src/mesos/worktrees/state-benchmarking/build-alexr/src/.libs/libmesos-1.8.0.so)
	    7fa493a0c402 _ZNO4JSON5ProxycvNSt7__cxx1112basic_stringIcSt11char_traitsIcESaIcEEEB5cxx11Ev+0xc2 (/home/bevers/src/mesos/worktrees/state-benchmarking/build-alexr/src/.libs/libmesos-1.8.0.so)
	    7fa494c159c1 _ZN7process4http2OKC2EON4JSON5ProxyERK6OptionINSt7__cxx1112basic_stringIcSt11char_traitsIcESaIcEEEE+0x151 (/home/bevers/src/mesos/worktrees/state-benchmarking/build-alexr/src/.libs/libmesos-1.8.0.so)
	    7fa493ceaa0f _ZNK5mesos8internal6master6Master15ReadOnlyHandler5stateERKN7process4http7RequestERKNS4_5OwnedINS_15ObjectApproversEEE+0xaf (/home/bevers/src/mesos/worktrees/state-benchmarking/build-alexr/src/.libs/libmesos-1.8.0.so)
	    7fa493b904c8 _ZN7process20AsyncExecutorProcess7executeIZNK5mesos8internal6master6Master4Http20processRequestsBatchEvEUlMNS5_15ReadOnlyHandlerEKFNS_4http8ResponseERKNS8_7RequestERKNS_5OwnedINS2_15ObjectApproversEEEESC_SH_E_SJ_SA_SF_Li0EEENSt9result_ofIFT_T0_T1_T2_EE4typeERKSM_SN_SO_SP_+0x88 (/home/bevers/src/mesos/worktrees/state-benchmarking/build-alexr/src/.libs/libmesos-1.8.0.so)
	    7fa493b9e937 _ZZN7process8dispatchINS_4http8ResponseENS_20AsyncExecutorProcessERKZNK5mesos8internal6master6Master4Http20processRequestsBatchEvEUlMNS7_15ReadOnlyHandlerEKFS2_RKNS1_7RequestERKNS_5OwnedINS4_15ObjectApproversEEEESC_SH_E_SJ_SA_SF_SM_RSJ_RSA_RSF_EENS_6FutureIT_EERKNS_3PIDIT0_EEMSU_FSR_T1_T2_T3_T4_EOT5_OT6_OT7_OT8_ENKUlSt10unique_ptrINS_7PromiseIS2_EESt14default_deleteIS1E_EEOSK_OSJ_OSA_OSF_PNS_11ProcessBaseEE_clES1H_S1I_S1J_S1K_S1L_S1N_+0x387 (/home/bevers/src/mesos/worktrees/state-benchmarking/build-alexr/src/.libs/libmesos-1.8.0.so)
	    7fa493b9eb09 _ZNO6lambda12CallableOnceIFvPN7process11ProcessBaseEEE10CallableFnINS_8internal7PartialIZNS1_8dispatchINS1_4http8ResponseENS1_20AsyncExecutorProcessERKZNK5mesos8internal6master6Master4Http20processRequestsBatchEvEUlMNSG_15ReadOnlyHandlerEKFSB_RKNSA_7RequestERKNS1_5OwnedINSD_15ObjectApproversEEEESL_SQ_E_SS_SJ_SO_SV_RSS_RSJ_RSO_EENS1_6FutureIT_EERKNS1_3PIDIT0_EEMS13_FS10_T1_T2_T3_T4_EOT5_OT6_OT7_OT8_EUlSt10unique_ptrINS1_7PromiseISB_EESt14default_deleteIS1N_EEOST_OSS_OSJ_OSO_S3_E_JS1Q_ST_SS_SJ_SO_St12_PlaceholderILi1EEEEEEclEOS3_+0x59 (/home/bevers/src/mesos/worktrees/state-benchmarking/build-alexr/src/.libs/libmesos-1.8.0.so)
	    7fa494cb80e2 _ZN7process11ProcessBase7consumeEONS_13DispatchEventE+0x32 (/home/bevers/src/mesos/worktrees/state-benchmarking/build-alexr/src/.libs/libmesos-1.8.0.so)
	    7fa494ccd332 _ZN7process14ProcessManager6resumeEPNS_11ProcessBaseE+0x492 (/home/bevers/src/mesos/worktrees/state-benchmarking/build-alexr/src/.libs/libmesos-1.8.0.so)
	    7fa494cd3606 _ZNSt6thread11_State_implINS_8_InvokerISt5tupleIJZN7process14ProcessManager12init_threadsEvEUlvE_EEEEE6_M_runEv+0x46 (/home/bevers/src/mesos/worktrees/state-benchmarking/build-alexr/src/.libs/libmesos-1.8.0.so)
	    7fa491e43733 [unknown] (/usr/lib/x86_64-linux-gnu/libstdc++.so.6.0.25)

__async_executor__(1)@127.0.1.1:5050 14787 182029.130791:       5000 cycles:uh: 
	    7fa495d47e4b _dl_fixup+0x5b (/lib/x86_64-linux-gnu/ld-2.27.so)
	    7fa493cf99e4 _ZNSt17_Function_handlerIFvPN9rapidjson6WriterINS0_19GenericStringBufferINS0_4UTF8IcEENS0_12CrtAllocatorEEES4_S4_S5_Lj0EEEEZN4JSON8internal7jsonifyIZNK5mesos8internal6master6Master15ReadOnlyHandler5stateERKN7process4http7RequestERKNSI_5OwnedINSD_15ObjectApproversEEEEUlPNSA_12ObjectWriterEE_vEESt8functionIS9_ERKT_NSB_6PreferEEUlS8_E_E9_M_invokeERKSt9_Any_dataOS8_+0x44 (/home/bevers/src/mesos/worktrees/state-benchmarking/build-alexr/src/.libs/libmesos-1.8.0.so)
	    7fa493a0c402 _ZNO4JSON5ProxycvNSt7__cxx1112basic_stringIcSt11char_traitsIcESaIcEEEB5cxx11Ev+0xc2 (/home/bevers/src/mesos/worktrees/state-benchmarking/build-alexr/src/.libs/libmesos-1.8.0.so)
	    7fa494c159c1 _ZN7process4http2OKC2EON4JSON5ProxyERK6OptionINSt7__cxx1112basic_stringIcSt11char_traitsIcESaIcEEEE+0x151 (/home/bevers/src/mesos/worktrees/state-benchmarking/build-alexr/src/.libs/libmesos-1.8.0.so)
	    7fa493ceaa0f _ZNK5mesos8internal6master6Master15ReadOnlyHandler5stateERKN7process4http7RequestERKNS4_5OwnedINS_15ObjectApproversEEE+0xaf (/home/bevers/src/mesos/worktrees/state-benchmarking/build-alexr/src/.libs/libmesos-1.8.0.so)
	    7fa493b904c8 _ZN7process20AsyncExecutorProcess7executeIZNK5mesos8internal6master6Master4Http20processRequestsBatchEvEUlMNS5_15ReadOnlyHandlerEKFNS_4http8ResponseERKNS8_7RequestERKNS_5OwnedINS2_15ObjectApproversEEEESC_SH_E_SJ_SA_SF_Li0EEENSt9result_ofIFT_T0_T1_T2_EE4typeERKSM_SN_SO_SP_+0x88 (/home/bevers/src/mesos/worktrees/state-benchmarking/build-alexr/src/.libs/libmesos-1.8.0.so)
	    7fa493b9e937 _ZZN7process8dispatchINS_4http8ResponseENS_20AsyncExecutorProcessERKZNK5mesos8internal6master6Master4Http20processRequestsBatchEvEUlMNS7_15ReadOnlyHandlerEKFS2_RKNS1_7RequestERKNS_5OwnedINS4_15ObjectApproversEEEESC_SH_E_SJ_SA_SF_SM_RSJ_RSA_RSF_EENS_6FutureIT_EERKNS_3PIDIT0_EEMSU_FSR_T1_T2_T3_T4_EOT5_OT6_OT7_OT8_ENKUlSt10unique_ptrINS_7PromiseIS2_EESt14default_deleteIS1E_EEOSK_OSJ_OSA_OSF_PNS_11ProcessBaseEE_clES1H_S1I_S1J_S1K_S1L_S1N_+0x387 (/home/bevers/src/mesos/worktrees/state-benchmarking/build-alexr/src/.libs/libmesos-1.8.0.so)
	    7fa493b9eb09 _ZNO6lambda12CallableOnceIFvPN7process11ProcessBaseEEE10CallableFnINS_8internal7PartialIZNS1_8dispatchINS1_4http8ResponseENS1_20AsyncExecutorProcessERKZNK5mesos8internal6master6Master4Http20processRequestsBatchEvEUlMNSG_15ReadOnlyHandlerEKFSB_RKNSA_7RequestERKNS1_5OwnedINSD_15ObjectApproversEEEESL_SQ_E_SS_SJ_SO_SV_RSS_RSJ_RSO_EENS1_6FutureIT_EERKNS1_3PIDIT0_EEMS13_FS10_T1_T2_T3_T4_EOT5_OT6_OT7_OT8_EUlSt10unique_ptrINS1_7PromiseISB_EESt14default_deleteIS1N_EEOST_OSS_OSJ_OSO_S3_E_JS1Q_ST_SS_SJ_SO_St12_PlaceholderILi1EEEEEEclEOS3_+0x59 (/home/bevers/src/mesos/worktrees/state-benchmarking/build-alexr/src/.libs/libmesos-1.8.0.so)
	    7fa494cb80e2 _ZN7process11ProcessBase7consumeEONS_13DispatchEventE+0x32 (/home/bevers/src/mesos/worktrees/state-benchmarking/build-alexr/src/.libs/libmesos-1.8.0.so)
	    7fa494ccd332 _ZN7process14ProcessManager6resumeEPNS_11ProcessBaseE+0x492 (/home/bevers/src/mesos/worktrees/state-benchmarking/build-alexr/src/.libs/libmesos-1.8.0.so)
	    7fa494cd3606 _ZNSt6thread11_State_implINS_8_InvokerISt5tupleIJZN7process14ProcessManager12init_threadsEvEUlvE_EEEEE6_M_runEv+0x46 (/home/bevers/src/mesos/worktrees/state-benchmarking/build-alexr/src/.libs/libmesos-1.8.0.so)
	    7fa491e43733 [unknown] (/usr/lib/x86_64-linux-gnu/libstdc++.so.6.0.25)

__async_executor__(1)@127.0.1.1:5050 14787 182029.130794:       5000 cycles:uh: 
	    7fa495d422fb do_lookup_x+0xbb (/lib/x86_64-linux-gnu/ld-2.27.so)

__async_executor__(1)@127.0.1.1:5050 14787 182029.130797:       5000 cycles:uh: 
	    7fa493a0ee50 _ZN4JSON12ObjectWriter5fieldIdEEvRKNSt7__cxx1112basic_stringIcSt11char_traitsIcESaIcEEERKT_+0x60 (/home/bevers/src/mesos/worktrees/state-benchmarking/build-alexr/src/.libs/libmesos-1.8.0.so)
	    7fa493cf7cea _ZZNK5mesos8internal6master6Master15ReadOnlyHandler5stateERKN7process4http7RequestERKNS4_5OwnedINS_15ObjectApproversEEEENKUlPN4JSON12ObjectWriterEE_clESG_+0x2aa (/home/bevers/src/mesos/worktrees/state-benchmarking/build-alexr/src/.libs/libmesos-1.8.0.so)
	    7fa493cf99e4 _ZNSt17_Function_handlerIFvPN9rapidjson6WriterINS0_19GenericStringBufferINS0_4UTF8IcEENS0_12CrtAllocatorEEES4_S4_S5_Lj0EEEEZN4JSON8internal7jsonifyIZNK5mesos8internal6master6Master15ReadOnlyHandler5stateERKN7process4http7RequestERKNSI_5OwnedINSD_15ObjectApproversEEEEUlPNSA_12ObjectWriterEE_vEESt8functionIS9_ERKT_NSB_6PreferEEUlS8_E_E9_M_invokeERKSt9_Any_dataOS8_+0x44 (/home/bevers/src/mesos/worktrees/state-benchmarking/build-alexr/src/.libs/libmesos-1.8.0.so)
	    7fa493a0c402 _ZNO4JSON5ProxycvNSt7__cxx1112basic_stringIcSt11char_traitsIcESaIcEEEB5cxx11Ev+0xc2 (/home/bevers/src/mesos/worktrees/state-benchmarking/build-alexr/src/.libs/libmesos-1.8.0.so)
	    7fa494c159c1 _ZN7process4http2OKC2EON4JSON5ProxyERK6OptionINSt7__cxx1112basic_stringIcSt11char_traitsIcESaIcEEEE+0x151 (/home/bevers/src/mesos/worktrees/state-benchmarking/build-alexr/src/.libs/libmesos-1.8.0.so)
	    7fa493ceaa0f _ZNK5mesos8internal6master6Master15ReadOnlyHandler5stateERKN7process4http7RequestERKNS4_5OwnedINS_15ObjectApproversEEE+0xaf (/home/bevers/src/mesos/worktrees/state-benchmarking/build-alexr/src/.libs/libmesos-1.8.0.so)
	    7fa493b904c8 _ZN7process20AsyncExecutorProcess7executeIZNK5mesos8internal6master6Master4Http20processRequestsBatchEvEUlMNS5_15ReadOnlyHandlerEKFNS_4http8ResponseERKNS8_7RequestERKNS_5OwnedINS2_15ObjectApproversEEEESC_SH_E_SJ_SA_SF_Li0EEENSt9result_ofIFT_T0_T1_T2_EE4typeERKSM_SN_SO_SP_+0x88 (/home/bevers/src/mesos/worktrees/state-benchmarking/build-alexr/src/.libs/libmesos-1.8.0.so)
	    7fa493b9e937 _ZZN7process8dispatchINS_4http8ResponseENS_20AsyncExecutorProcessERKZNK5mesos8internal6master6Master4Http20processRequestsBatchEvEUlMNS7_15ReadOnlyHandlerEKFS2_RKNS1_7RequestERKNS_5OwnedINS4_15ObjectApproversEEEESC_SH_E_SJ_SA_SF_SM_RSJ_RSA_RSF_EENS_6FutureIT_EERKNS_3PIDIT0_EEMSU_FSR_T1_T2_T3_T4_EOT5_OT6_OT7_OT8_ENKUlSt10unique_ptrINS_7PromiseIS2_EESt14default_deleteIS1E_EEOSK_OSJ_OSA_OSF_PNS_11ProcessBaseEE_clES1H_S1I_S1J_S1K_S1L_S1N_+0x387 (/home/bevers/src/mesos/worktrees/state-benchmarking/build-alexr/src/.libs/libmesos-1.8.0.so)
	    7fa493b9eb09 _ZNO6lambda12CallableOnceIFvPN7process11ProcessBaseEEE10CallableFnINS_8internal7PartialIZNS1_8dispatchINS1_4http8ResponseENS1_20AsyncExecutorProcessERKZNK5mesos8internal6master6Master4Http20processRequestsBatchEvEUlMNSG_15ReadOnlyHandlerEKFSB_RKNSA_7RequestERKNS1_5OwnedINSD_15ObjectApproversEEEESL_SQ_E_SS_SJ_SO_SV_RSS_RSJ_RSO_EENS1_6FutureIT_EERKNS1_3PIDIT0_EEMS13_FS10_T1_T2_T3_T4_EOT5_OT6_OT7_OT8_EUlSt10unique_ptrINS1_7PromiseISB_EESt14default_deleteIS1N_EEOST_OSS_OSJ_OSO_S3_E_JS1Q_ST_SS_SJ_SO_St12_PlaceholderILi1EEEEEEclEOS3_+0x59 (/home/bevers/src/mesos/worktrees/state-benchmarking/build-alexr/src/.libs/libmesos-1.8.0.so)
	    7fa494cb80e2 _ZN7process11ProcessBase7consumeEONS_13DispatchEventE+0x32 (/home/bevers/src/mesos/worktrees/state-benchmarking/build-alexr/src/.libs/libmesos-1.8.0.so)
	    7fa494ccd332 _ZN7process14ProcessManager6resumeEPNS_11ProcessBaseE+0x492 (/home/bevers/src/mesos/worktrees/state-benchmarking/build-alexr/src/.libs/libmesos-1.8.0.so)
	    7fa494cd3606 _ZNSt6thread11_State_implINS_8_InvokerISt5tupleIJZN7process14ProcessManager12init_threadsEvEUlvE_EEEEE6_M_runEv+0x46 (/home/bevers/src/mesos/worktrees/state-benchmarking/build-alexr/src/.libs/libmesos-1.8.0.so)
	    7fa491e43733 [unknown] (/usr/lib/x86_64-linux-gnu/libstdc++.so.6.0.25)

__async_executor__(1)@127.0.1.1:5050 14787 182029.130800:       5000 cycles:uh: 
	    7fa4918097ba _int_malloc+0x4ea (/lib/x86_64-linux-gnu/libc-2.27.so)

__async_executor__(1)@127.0.1.1:5050 14787 182029.130802:       5000 cycles:uh: 
	    7fa49461bad0 _ZN6google8protobuf8internal18GenericTypeHandlerIN5mesos21MasterInfo_CapabilityEE5MergeERKS4_PS4_+0x0 (/home/bevers/src/mesos/worktrees/state-benchmarking/build-alexr/src/.libs/libmesos-1.8.0.so)
	    7fa4945f5450 _ZN5mesos10MasterInfoC2ERKS0_+0x1e0 (/home/bevers/src/mesos/worktrees/state-benchmarking/build-alexr/src/.libs/libmesos-1.8.0.so)
	    7fa493cf7d81 _ZZNK5mesos8internal6master6Master15ReadOnlyHandler5stateERKN7process4http7RequestERKNS4_5OwnedINS_15ObjectApproversEEEENKUlPN4JSON12ObjectWriterEE_clESG_+0x341 (/home/bevers/src/mesos/worktrees/state-benchmarking/build-alexr/src/.libs/libmesos-1.8.0.so)
	    7fa493cf99e4 _ZNSt17_Function_handlerIFvPN9rapidjson6WriterINS0_19GenericStringBufferINS0_4UTF8IcEENS0_12CrtAllocatorEEES4_S4_S5_Lj0EEEEZN4JSON8internal7jsonifyIZNK5mesos8internal6master6Master15ReadOnlyHandler5stateERKN7process4http7RequestERKNSI_5OwnedINSD_15ObjectApproversEEEEUlPNSA_12ObjectWriterEE_vEESt8functionIS9_ERKT_NSB_6PreferEEUlS8_E_E9_M_invokeERKSt9_Any_dataOS8_+0x44 (/home/bevers/src/mesos/worktrees/state-benchmarking/build-alexr/src/.libs/libmesos-1.8.0.so)
	    7fa493a0c402 _ZNO4JSON5ProxycvNSt7__cxx1112basic_stringIcSt11char_traitsIcESaIcEEEB5cxx11Ev+0xc2 (/home/bevers/src/mesos/worktrees/state-benchmarking/build-alexr/src/.libs/libmesos-1.8.0.so)
	    7fa494c159c1 _ZN7process4http2OKC2EON4JSON5ProxyERK6OptionINSt7__cxx1112basic_stringIcSt11char_traitsIcESaIcEEEE+0x151 (/home/bevers/src/mesos/worktrees/state-benchmarking/build-alexr/src/.libs/libmesos-1.8.0.so)
	    7fa493ceaa0f _ZNK5mesos8internal6master6Master15ReadOnlyHandler5stateERKN7process4http7RequestERKNS4_5OwnedINS_15ObjectApproversEEE+0xaf (/home/bevers/src/mesos/worktrees/state-benchmarking/build-alexr/src/.libs/libmesos-1.8.0.so)
	    7fa493b904c8 _ZN7process20AsyncExecutorProcess7executeIZNK5mesos8internal6master6Master4Http20processRequestsBatchEvEUlMNS5_15ReadOnlyHandlerEKFNS_4http8ResponseERKNS8_7RequestERKNS_5OwnedINS2_15ObjectApproversEEEESC_SH_E_SJ_SA_SF_Li0EEENSt9result_ofIFT_T0_T1_T2_EE4typeERKSM_SN_SO_SP_+0x88 (/home/bevers/src/mesos/worktrees/state-benchmarking/build-alexr/src/.libs/libmesos-1.8.0.so)
	    7fa493b9e937 _ZZN7process8dispatchINS_4http8ResponseENS_20AsyncExecutorProcessERKZNK5mesos8internal6master6Master4Http20processRequestsBatchEvEUlMNS7_15ReadOnlyHandlerEKFS2_RKNS1_7RequestERKNS_5OwnedINS4_15ObjectApproversEEEESC_SH_E_SJ_SA_SF_SM_RSJ_RSA_RSF_EENS_6FutureIT_EERKNS_3PIDIT0_EEMSU_FSR_T1_T2_T3_T4_EOT5_OT6_OT7_OT8_ENKUlSt10unique_ptrINS_7PromiseIS2_EESt14default_deleteIS1E_EEOSK_OSJ_OSA_OSF_PNS_11ProcessBaseEE_clES1H_S1I_S1J_S1K_S1L_S1N_+0x387 (/home/bevers/src/mesos/worktrees/state-benchmarking/build-alexr/src/.libs/libmesos-1.8.0.so)
	    7fa493b9eb09 _ZNO6lambda12CallableOnceIFvPN7process11ProcessBaseEEE10CallableFnINS_8internal7PartialIZNS1_8dispatchINS1_4http8ResponseENS1_20AsyncExecutorProcessERKZNK5mesos8internal6master6Master4Http20processRequestsBatchEvEUlMNSG_15ReadOnlyHandlerEKFSB_RKNSA_7RequestERKNS1_5OwnedINSD_15ObjectApproversEEEESL_SQ_E_SS_SJ_SO_SV_RSS_RSJ_RSO_EENS1_6FutureIT_EERKNS1_3PIDIT0_EEMS13_FS10_T1_T2_T3_T4_EOT5_OT6_OT7_OT8_EUlSt10unique_ptrINS1_7PromiseISB_EESt14default_deleteIS1N_EEOST_OSS_OSJ_OSO_S3_E_JS1Q_ST_SS_SJ_SO_St12_PlaceholderILi1EEEEEEclEOS3_+0x59 (/home/bevers/src/mesos/worktrees/state-benchmarking/build-alexr/src/.libs/libmesos-1.8.0.so)
	    7fa494cb80e2 _ZN7process11ProcessBase7consumeEONS_13DispatchEventE+0x32 (/home/bevers/src/mesos/worktrees/state-benchmarking/build-alexr/src/.libs/libmesos-1.8.0.so)
	    7fa494ccd332 _ZN7process14ProcessManager6resumeEPNS_11ProcessBaseE+0x492 (/home/bevers/src/mesos/worktrees/state-benchmarking/build-alexr/src/.libs/libmesos-1.8.0.so)
	    7fa494cd3606 _ZNSt6thread11_State_implINS_8_InvokerISt5tupleIJZN7process14ProcessManager12init_threadsEvEUlvE_EEEEE6_M_runEv+0x46 (/home/bevers/src/mesos/worktrees/state-benchmarking/build-alexr/src/.libs/libmesos-1.8.0.so)
	    7fa491e43733 [unknown] (/usr/lib/x86_64-linux-gnu/libstdc++.so.6.0.25)

__async_executor__(1)@127.0.1.1:5050 14787 182029.130805:       5000 cycles:uh: 
	    7fa4945d4e00 _ZN5mesos7AddressC2ERKS0_+0x0 (/home/bevers/src/mesos/worktrees/state-benchmarking/build-alexr/src/.libs/libmesos-1.8.0.so)
	    7fa493cf7d81 _ZZNK5mesos8internal6master6Master15ReadOnlyHandler5stateERKN7process4http7RequestERKNS4_5OwnedINS_15ObjectApproversEEEENKUlPN4JSON12ObjectWriterEE_clESG_+0x341 (/home/bevers/src/mesos/worktrees/state-benchmarking/build-alexr/src/.libs/libmesos-1.8.0.so)
	    7fa493cf99e4 _ZNSt17_Function_handlerIFvPN9rapidjson6WriterINS0_19GenericStringBufferINS0_4UTF8IcEENS0_12CrtAllocatorEEES4_S4_S5_Lj0EEEEZN4JSON8internal7jsonifyIZNK5mesos8internal6master6Master15ReadOnlyHandler5stateERKN7process4http7RequestERKNSI_5OwnedINSD_15ObjectApproversEEEEUlPNSA_12ObjectWriterEE_vEESt8functionIS9_ERKT_NSB_6PreferEEUlS8_E_E9_M_invokeERKSt9_Any_dataOS8_+0x44 (/home/bevers/src/mesos/worktrees/state-benchmarking/build-alexr/src/.libs/libmesos-1.8.0.so)
	    7fa493a0c402 _ZNO4JSON5ProxycvNSt7__cxx1112basic_stringIcSt11char_traitsIcESaIcEEEB5cxx11Ev+0xc2 (/home/bevers/src/mesos/worktrees/state-benchmarking/build-alexr/src/.libs/libmesos-1.8.0.so)
	    7fa494c159c1 _ZN7process4http2OKC2EON4JSON5ProxyERK6OptionINSt7__cxx1112basic_stringIcSt11char_traitsIcESaIcEEEE+0x151 (/home/bevers/src/mesos/worktrees/state-benchmarking/build-alexr/src/.libs/libmesos-1.8.0.so)
	    7fa493ceaa0f _ZNK5mesos8internal6master6Master15ReadOnlyHandler5stateERKN7process4http7RequestERKNS4_5OwnedINS_15ObjectApproversEEE+0xaf (/home/bevers/src/mesos/worktrees/state-benchmarking/build-alexr/src/.libs/libmesos-1.8.0.so)
	    7fa493b904c8 _ZN7process20AsyncExecutorProcess7executeIZNK5mesos8internal6master6Master4Http20processRequestsBatchEvEUlMNS5_15ReadOnlyHandlerEKFNS_4http8ResponseERKNS8_7RequestERKNS_5OwnedINS2_15ObjectApproversEEEESC_SH_E_SJ_SA_SF_Li0EEENSt9result_ofIFT_T0_T1_T2_EE4typeERKSM_SN_SO_SP_+0x88 (/home/bevers/src/mesos/worktrees/state-benchmarking/build-alexr/src/.libs/libmesos-1.8.0.so)
	    7fa493b9e937 _ZZN7process8dispatchINS_4http8ResponseENS_20AsyncExecutorProcessERKZNK5mesos8internal6master6Master4Http20processRequestsBatchEvEUlMNS7_15ReadOnlyHandlerEKFS2_RKNS1_7RequestERKNS_5OwnedINS4_15ObjectApproversEEEESC_SH_E_SJ_SA_SF_SM_RSJ_RSA_RSF_EENS_6FutureIT_EERKNS_3PIDIT0_EEMSU_FSR_T1_T2_T3_T4_EOT5_OT6_OT7_OT8_ENKUlSt10unique_ptrINS_7PromiseIS2_EESt14default_deleteIS1E_EEOSK_OSJ_OSA_OSF_PNS_11ProcessBaseEE_clES1H_S1I_S1J_S1K_S1L_S1N_+0x387 (/home/bevers/src/mesos/worktrees/state-benchmarking/build-alexr/src/.libs/libmesos-1.8.0.so)
	    7fa493b9eb09 _ZNO6lambda12CallableOnceIFvPN7process11ProcessBaseEEE10CallableFnINS_8internal7PartialIZNS1_8dispatchINS1_4http8ResponseENS1_20AsyncExecutorProcessERKZNK5mesos8internal6master6Master4Http20processRequestsBatchEvEUlMNSG_15ReadOnlyHandlerEKFSB_RKNSA_7RequestERKNS1_5OwnedINSD_15ObjectApproversEEEESL_SQ_E_SS_SJ_SO_SV_RSS_RSJ_RSO_EENS1_6FutureIT_EERKNS1_3PIDIT0_EEMS13_FS10_T1_T2_T3_T4_EOT5_OT6_OT7_OT8_EUlSt10unique_ptrINS1_7PromiseISB_EESt14default_deleteIS1N_EEOST_OSS_OSJ_OSO_S3_E_JS1Q_ST_SS_SJ_SO_St12_PlaceholderILi1EEEEEEclEOS3_+0x59 (/home/bevers/src/mesos/worktrees/state-benchmarking/build-alexr/src/.libs/libmesos-1.8.0.so)
	    7fa494cb80e2 _ZN7process11ProcessBase7consumeEONS_13DispatchEventE+0x32 (/home/bevers/src/mesos/worktrees/state-benchmarking/build-alexr/src/.libs/libmesos-1.8.0.so)
	    7fa494ccd332 _ZN7process14ProcessManager6resumeEPNS_11ProcessBaseE+0x492 (/home/bevers/src/mesos/worktrees/state-benchmarking/build-alexr/src/.libs/libmesos-1.8.0.so)
	    7fa494cd3606 _ZNSt6thread11_State_implINS_8_InvokerISt5tupleIJZN7process14ProcessManager12init_threadsEvEUlvE_EEEEE6_M_runEv+0x46 (/home/bevers/src/mesos/worktrees/state-benchmarking/build-alexr/src/.libs/libmesos-1.8.0.so)
	    7fa491e43733 [unknown] (/usr/lib/x86_64-linux-gnu/libstdc++.so.6.0.25)

__async_executor__(1)@127.0.1.1:5050 14787 182029.130809:       5000 cycles:uh: 
	    7fa491809e70 _int_malloc+0xba0 (/lib/x86_64-linux-gnu/libc-2.27.so)

__async_executor__(1)@127.0.1.1:5050 14787 182029.130811:       5000 cycles:uh: 
	    7fa494563870 _ZN5mesos7AddressD0Ev+0x0 (/home/bevers/src/mesos/worktrees/state-benchmarking/build-alexr/src/.libs/libmesos-1.8.0.so)
	    7fa494567fff _ZN5mesos10MasterInfoD2Ev+0x1f (/home/bevers/src/mesos/worktrees/state-benchmarking/build-alexr/src/.libs/libmesos-1.8.0.so)
	    7fa493cf7dcd _ZZNK5mesos8internal6master6Master15ReadOnlyHandler5stateERKN7process4http7RequestERKNS4_5OwnedINS_15ObjectApproversEEEENKUlPN4JSON12ObjectWriterEE_clESG_+0x38d (/home/bevers/src/mesos/worktrees/state-benchmarking/build-alexr/src/.libs/libmesos-1.8.0.so)
	    7fa493cf99e4 _ZNSt17_Function_handlerIFvPN9rapidjson6WriterINS0_19GenericStringBufferINS0_4UTF8IcEENS0_12CrtAllocatorEEES4_S4_S5_Lj0EEEEZN4JSON8internal7jsonifyIZNK5mesos8internal6master6Master15ReadOnlyHandler5stateERKN7process4http7RequestERKNSI_5OwnedINSD_15ObjectApproversEEEEUlPNSA_12ObjectWriterEE_vEESt8functionIS9_ERKT_NSB_6PreferEEUlS8_E_E9_M_invokeERKSt9_Any_dataOS8_+0x44 (/home/bevers/src/mesos/worktrees/state-benchmarking/build-alexr/src/.libs/libmesos-1.8.0.so)
	    7fa493a0c402 _ZNO4JSON5ProxycvNSt7__cxx1112basic_stringIcSt11char_traitsIcESaIcEEEB5cxx11Ev+0xc2 (/home/bevers/src/mesos/worktrees/state-benchmarking/build-alexr/src/.libs/libmesos-1.8.0.so)
	    7fa494c159c1 _ZN7process4http2OKC2EON4JSON5ProxyERK6OptionINSt7__cxx1112basic_stringIcSt11char_traitsIcESaIcEEEE+0x151 (/home/bevers/src/mesos/worktrees/state-benchmarking/build-alexr/src/.libs/libmesos-1.8.0.so)
	    7fa493ceaa0f _ZNK5mesos8internal6master6Master15ReadOnlyHandler5stateERKN7process4http7RequestERKNS4_5OwnedINS_15ObjectApproversEEE+0xaf (/home/bevers/src/mesos/worktrees/state-benchmarking/build-alexr/src/.libs/libmesos-1.8.0.so)
	    7fa493b904c8 _ZN7process20AsyncExecutorProcess7executeIZNK5mesos8internal6master6Master4Http20processRequestsBatchEvEUlMNS5_15ReadOnlyHandlerEKFNS_4http8ResponseERKNS8_7RequestERKNS_5OwnedINS2_15ObjectApproversEEEESC_SH_E_SJ_SA_SF_Li0EEENSt9result_ofIFT_T0_T1_T2_EE4typeERKSM_SN_SO_SP_+0x88 (/home/bevers/src/mesos/worktrees/state-benchmarking/build-alexr/src/.libs/libmesos-1.8.0.so)
	    7fa493b9e937 _ZZN7process8dispatchINS_4http8ResponseENS_20AsyncExecutorProcessERKZNK5mesos8internal6master6Master4Http20processRequestsBatchEvEUlMNS7_15ReadOnlyHandlerEKFS2_RKNS1_7RequestERKNS_5OwnedINS4_15ObjectApproversEEEESC_SH_E_SJ_SA_SF_SM_RSJ_RSA_RSF_EENS_6FutureIT_EERKNS_3PIDIT0_EEMSU_FSR_T1_T2_T3_T4_EOT5_OT6_OT7_OT8_ENKUlSt10unique_ptrINS_7PromiseIS2_EESt14default_deleteIS1E_EEOSK_OSJ_OSA_OSF_PNS_11ProcessBaseEE_clES1H_S1I_S1J_S1K_S1L_S1N_+0x387 (/home/bevers/src/mesos/worktrees/state-benchmarking/build-alexr/src/.libs/libmesos-1.8.0.so)
	    7fa493b9eb09 _ZNO6lambda12CallableOnceIFvPN7process11ProcessBaseEEE10CallableFnINS_8internal7PartialIZNS1_8dispatchINS1_4http8ResponseENS1_20AsyncExecutorProcessERKZNK5mesos8internal6master6Master4Http20processRequestsBatchEvEUlMNSG_15ReadOnlyHandlerEKFSB_RKNSA_7RequestERKNS1_5OwnedINSD_15ObjectApproversEEEESL_SQ_E_SS_SJ_SO_SV_RSS_RSJ_RSO_EENS1_6FutureIT_EERKNS1_3PIDIT0_EEMS13_FS10_T1_T2_T3_T4_EOT5_OT6_OT7_OT8_EUlSt10unique_ptrINS1_7PromiseISB_EESt14default_deleteIS1N_EEOST_OSS_OSJ_OSO_S3_E_JS1Q_ST_SS_SJ_SO_St12_PlaceholderILi1EEEEEEclEOS3_+0x59 (/home/bevers/src/mesos/worktrees/state-benchmarking/build-alexr/src/.libs/libmesos-1.8.0.so)
	    7fa494cb80e2 _ZN7process11ProcessBase7consumeEONS_13DispatchEventE+0x32 (/home/bevers/src/mesos/worktrees/state-benchmarking/build-alexr/src/.libs/libmesos-1.8.0.so)
	    7fa494ccd332 _ZN7process14ProcessManager6resumeEPNS_11ProcessBaseE+0x492 (/home/bevers/src/mesos/worktrees/state-benchmarking/build-alexr/src/.libs/libmesos-1.8.0.so)
	    7fa494cd3606 _ZNSt6thread11_State_implINS_8_InvokerISt5tupleIJZN7process14ProcessManager12init_threadsEvEUlvE_EEEEE6_M_runEv+0x46 (/home/bevers/src/mesos/worktrees/state-benchmarking/build-alexr/src/.libs/libmesos-1.8.0.so)
	    7fa491e43733 [unknown] (/usr/lib/x86_64-linux-gnu/libstdc++.so.6.0.25)

__async_executor__(1)@127.0.1.1:5050 14787 182029.130815:       5000 cycles:uh: 
	    7fa494c9dc70 _ZNK7process4UPIDcvNSt7__cxx1112basic_stringIcSt11char_traitsIcESaIcEEEB5cxx11Ev+0x0 (/home/bevers/src/mesos/worktrees/state-benchmarking/build-alexr/src/.libs/libmesos-1.8.0.so)
	    7fa493cf99e4 _ZNSt17_Function_handlerIFvPN9rapidjson6WriterINS0_19GenericStringBufferINS0_4UTF8IcEENS0_12CrtAllocatorEEES4_S4_S5_Lj0EEEEZN4JSON8internal7jsonifyIZNK5mesos8internal6master6Master15ReadOnlyHandler5stateERKN7process4http7RequestERKNSI_5OwnedINSD_15ObjectApproversEEEEUlPNSA_12ObjectWriterEE_vEESt8functionIS9_ERKT_NSB_6PreferEEUlS8_E_E9_M_invokeERKSt9_Any_dataOS8_+0x44 (/home/bevers/src/mesos/worktrees/state-benchmarking/build-alexr/src/.libs/libmesos-1.8.0.so)
	    7fa493a0c402 _ZNO4JSON5ProxycvNSt7__cxx1112basic_stringIcSt11char_traitsIcESaIcEEEB5cxx11Ev+0xc2 (/home/bevers/src/mesos/worktrees/state-benchmarking/build-alexr/src/.libs/libmesos-1.8.0.so)
	    7fa494c159c1 _ZN7process4http2OKC2EON4JSON5ProxyERK6OptionINSt7__cxx1112basic_stringIcSt11char_traitsIcESaIcEEEE+0x151 (/home/bevers/src/mesos/worktrees/state-benchmarking/build-alexr/src/.libs/libmesos-1.8.0.so)
	    7fa493ceaa0f _ZNK5mesos8internal6master6Master15ReadOnlyHandler5stateERKN7process4http7RequestERKNS4_5OwnedINS_15ObjectApproversEEE+0xaf (/home/bevers/src/mesos/worktrees/state-benchmarking/build-alexr/src/.libs/libmesos-1.8.0.so)
	    7fa493b904c8 _ZN7process20AsyncExecutorProcess7executeIZNK5mesos8internal6master6Master4Http20processRequestsBatchEvEUlMNS5_15ReadOnlyHandlerEKFNS_4http8ResponseERKNS8_7RequestERKNS_5OwnedINS2_15ObjectApproversEEEESC_SH_E_SJ_SA_SF_Li0EEENSt9result_ofIFT_T0_T1_T2_EE4typeERKSM_SN_SO_SP_+0x88 (/home/bevers/src/mesos/worktrees/state-benchmarking/build-alexr/src/.libs/libmesos-1.8.0.so)
	    7fa493b9e937 _ZZN7process8dispatchINS_4http8ResponseENS_20AsyncExecutorProcessERKZNK5mesos8internal6master6Master4Http20processRequestsBatchEvEUlMNS7_15ReadOnlyHandlerEKFS2_RKNS1_7RequestERKNS_5OwnedINS4_15ObjectApproversEEEESC_SH_E_SJ_SA_SF_SM_RSJ_RSA_RSF_EENS_6FutureIT_EERKNS_3PIDIT0_EEMSU_FSR_T1_T2_T3_T4_EOT5_OT6_OT7_OT8_ENKUlSt10unique_ptrINS_7PromiseIS2_EESt14default_deleteIS1E_EEOSK_OSJ_OSA_OSF_PNS_11ProcessBaseEE_clES1H_S1I_S1J_S1K_S1L_S1N_+0x387 (/home/bevers/src/mesos/worktrees/state-benchmarking/build-alexr/src/.libs/libmesos-1.8.0.so)
	    7fa493b9eb09 _ZNO6lambda12CallableOnceIFvPN7process11ProcessBaseEEE10CallableFnINS_8internal7PartialIZNS1_8dispatchINS1_4http8ResponseENS1_20AsyncExecutorProcessERKZNK5mesos8internal6master6Master4Http20processRequestsBatchEvEUlMNSG_15ReadOnlyHandlerEKFSB_RKNSA_7RequestERKNS1_5OwnedINSD_15ObjectApproversEEEESL_SQ_E_SS_SJ_SO_SV_RSS_RSJ_RSO_EENS1_6FutureIT_EERKNS1_3PIDIT0_EEMS13_FS10_T1_T2_T3_T4_EOT5_OT6_OT7_OT8_EUlSt10unique_ptrINS1_7PromiseISB_EESt14default_deleteIS1N_EEOST_OSS_OSJ_OSO_S3_E_JS1Q_ST_SS_SJ_SO_St12_PlaceholderILi1EEEEEEclEOS3_+0x59 (/home/bevers/src/mesos/worktrees/state-benchmarking/build-alexr/src/.libs/libmesos-1.8.0.so)
	    7fa494cb80e2 _ZN7process11ProcessBase7consumeEONS_13DispatchEventE+0x32 (/home/bevers/src/mesos/worktrees/state-benchmarking/build-alexr/src/.libs/libmesos-1.8.0.so)
	    7fa494ccd332 _ZN7process14ProcessManager6resumeEPNS_11ProcessBaseE+0x492 (/home/bevers/src/mesos/worktrees/state-benchmarking/build-alexr/src/.libs/libmesos-1.8.0.so)
	    7fa494cd3606 _ZNSt6thread11_State_implINS_8_InvokerISt5tupleIJZN7process14ProcessManager12init_threadsEvEUlvE_EEEEE6_M_runEv+0x46 (/home/bevers/src/mesos/worktrees/state-benchmarking/build-alexr/src/.libs/libmesos-1.8.0.so)
	    7fa491e43733 [unknown] (/usr/lib/x86_64-linux-gnu/libstdc++.so.6.0.25)

__async_executor__(1)@127.0.1.1:5050 14787 182029.130818:       5000 cycles:uh: 
	    7fa491b758d0 __pthread_once+0x0 (/lib/x86_64-linux-gnu/libpthread-2.27.so)
	    7fa493cf7e02 _ZZNK5mesos8internal6master6Master15ReadOnlyHandler5stateERKN7process4http7RequestERKNS4_5OwnedINS_15ObjectApproversEEEENKUlPN4JSON12ObjectWriterEE_clESG_+0x3c2 (/home/bevers/src/mesos/worktrees/state-benchmarking/build-alexr/src/.libs/libmesos-1.8.0.so)
	    7fa493cf99e4 _ZNSt17_Function_handlerIFvPN9rapidjson6WriterINS0_19GenericStringBufferINS0_4UTF8IcEENS0_12CrtAllocatorEEES4_S4_S5_Lj0EEEEZN4JSON8internal7jsonifyIZNK5mesos8internal6master6Master15ReadOnlyHandler5stateERKN7process4http7RequestERKNSI_5OwnedINSD_15ObjectApproversEEEEUlPNSA_12ObjectWriterEE_vEESt8functionIS9_ERKT_NSB_6PreferEEUlS8_E_E9_M_invokeERKSt9_Any_dataOS8_+0x44 (/home/bevers/src/mesos/worktrees/state-benchmarking/build-alexr/src/.libs/libmesos-1.8.0.so)
	    7fa493a0c402 _ZNO4JSON5ProxycvNSt7__cxx1112basic_stringIcSt11char_traitsIcESaIcEEEB5cxx11Ev+0xc2 (/home/bevers/src/mesos/worktrees/state-benchmarking/build-alexr/src/.libs/libmesos-1.8.0.so)
	    7fa494c159c1 _ZN7process4http2OKC2EON4JSON5ProxyERK6OptionINSt7__cxx1112basic_stringIcSt11char_traitsIcESaIcEEEE+0x151 (/home/bevers/src/mesos/worktrees/state-benchmarking/build-alexr/src/.libs/libmesos-1.8.0.so)
	    7fa493ceaa0f _ZNK5mesos8internal6master6Master15ReadOnlyHandler5stateERKN7process4http7RequestERKNS4_5OwnedINS_15ObjectApproversEEE+0xaf (/home/bevers/src/mesos/worktrees/state-benchmarking/build-alexr/src/.libs/libmesos-1.8.0.so)
	    7fa493b904c8 _ZN7process20AsyncExecutorProcess7executeIZNK5mesos8internal6master6Master4Http20processRequestsBatchEvEUlMNS5_15ReadOnlyHandlerEKFNS_4http8ResponseERKNS8_7RequestERKNS_5OwnedINS2_15ObjectApproversEEEESC_SH_E_SJ_SA_SF_Li0EEENSt9result_ofIFT_T0_T1_T2_EE4typeERKSM_SN_SO_SP_+0x88 (/home/bevers/src/mesos/worktrees/state-benchmarking/build-alexr/src/.libs/libmesos-1.8.0.so)
	    7fa493b9e937 _ZZN7process8dispatchINS_4http8ResponseENS_20AsyncExecutorProcessERKZNK5mesos8internal6master6Master4Http20processRequestsBatchEvEUlMNS7_15ReadOnlyHandlerEKFS2_RKNS1_7RequestERKNS_5OwnedINS4_15ObjectApproversEEEESC_SH_E_SJ_SA_SF_SM_RSJ_RSA_RSF_EENS_6FutureIT_EERKNS_3PIDIT0_EEMSU_FSR_T1_T2_T3_T4_EOT5_OT6_OT7_OT8_ENKUlSt10unique_ptrINS_7PromiseIS2_EESt14default_deleteIS1E_EEOSK_OSJ_OSA_OSF_PNS_11ProcessBaseEE_clES1H_S1I_S1J_S1K_S1L_S1N_+0x387 (/home/bevers/src/mesos/worktrees/state-benchmarking/build-alexr/src/.libs/libmesos-1.8.0.so)
	    7fa493b9eb09 _ZNO6lambda12CallableOnceIFvPN7process11ProcessBaseEEE10CallableFnINS_8internal7PartialIZNS1_8dispatchINS1_4http8ResponseENS1_20AsyncExecutorProcessERKZNK5mesos8internal6master6Master4Http20processRequestsBatchEvEUlMNSG_15ReadOnlyHandlerEKFSB_RKNSA_7RequestERKNS1_5OwnedINSD_15ObjectApproversEEEESL_SQ_E_SS_SJ_SO_SV_RSS_RSJ_RSO_EENS1_6FutureIT_EERKNS1_3PIDIT0_EEMS13_FS10_T1_T2_T3_T4_EOT5_OT6_OT7_OT8_EUlSt10unique_ptrINS1_7PromiseISB_EESt14default_deleteIS1N_EEOST_OSS_OSJ_OSO_S3_E_JS1Q_ST_SS_SJ_SO_St12_PlaceholderILi1EEEEEEclEOS3_+0x59 (/home/bevers/src/mesos/worktrees/state-benchmarking/build-alexr/src/.libs/libmesos-1.8.0.so)
	    7fa494cb80e2 _ZN7process11ProcessBase7consumeEONS_13DispatchEventE+0x32 (/home/bevers/src/mesos/worktrees/state-benchmarking/build-alexr/src/.libs/libmesos-1.8.0.so)
	    7fa494ccd332 _ZN7process14ProcessManager6resumeEPNS_11ProcessBaseE+0x492 (/home/bevers/src/mesos/worktrees/state-benchmarking/build-alexr/src/.libs/libmesos-1.8.0.so)
	    7fa494cd3606 _ZNSt6thread11_State_implINS_8_InvokerISt5tupleIJZN7process14ProcessManager12init_threadsEvEUlvE_EEEEE6_M_runEv+0x46 (/home/bevers/src/mesos/worktrees/state-benchmarking/build-alexr/src/.libs/libmesos-1.8.0.so)
	    7fa491e43733 [unknown] (/usr/lib/x86_64-linux-gnu/libstdc++.so.6.0.25)

__async_executor__(1)@127.0.1.1:5050 14787 182029.130821:       5000 cycles:uh: 
	    7fa491903223 __strchrnul_avx2+0x53 (/lib/x86_64-linux-gnu/libc-2.27.so)
	    7fa4917f66d1 _IO_vsprintf+0x81 (/lib/x86_64-linux-gnu/libc-2.27.so)
	               0 [unknown] ([unknown])

__async_executor__(1)@127.0.1.1:5050 14787 182029.130825:       5000 cycles:uh: 
	    7fa491903223 __strchrnul_avx2+0x53 (/lib/x86_64-linux-gnu/libc-2.27.so)
	    7fa4917f66d1 _IO_vsprintf+0x81 (/lib/x86_64-linux-gnu/libc-2.27.so)
	               0 [unknown] ([unknown])
	              31 [unknown] ([unknown])

__async_executor__(1)@127.0.1.1:5050 14787 182029.130829:       5000 cycles:uh: 
	    55af36d4fcf4 _ZN7process4UPIDD1Ev+0x24 (/home/bevers/src/mesos/worktrees/state-benchmarking/build-alexr/src/.libs/mesos-master)
	    7fa493cf7e66 _ZZNK5mesos8internal6master6Master15ReadOnlyHandler5stateERKN7process4http7RequestERKNS4_5OwnedINS_15ObjectApproversEEEENKUlPN4JSON12ObjectWriterEE_clESG_+0x426 (/home/bevers/src/mesos/worktrees/state-benchmarking/build-alexr/src/.libs/libmesos-1.8.0.so)
	    7fa493cf99e4 _ZNSt17_Function_handlerIFvPN9rapidjson6WriterINS0_19GenericStringBufferINS0_4UTF8IcEENS0_12CrtAllocatorEEES4_S4_S5_Lj0EEEEZN4JSON8internal7jsonifyIZNK5mesos8internal6master6Master15ReadOnlyHandler5stateERKN7process4http7RequestERKNSI_5OwnedINSD_15ObjectApproversEEEEUlPNSA_12ObjectWriterEE_vEESt8functionIS9_ERKT_NSB_6PreferEEUlS8_E_E9_M_invokeERKSt9_Any_dataOS8_+0x44 (/home/bevers/src/mesos/worktrees/state-benchmarking/build-alexr/src/.libs/libmesos-1.8.0.so)
	    7fa493a0c402 _ZNO4JSON5ProxycvNSt7__cxx1112basic_stringIcSt11char_traitsIcESaIcEEEB5cxx11Ev+0xc2 (/home/bevers/src/mesos/worktrees/state-benchmarking/build-alexr/src/.libs/libmesos-1.8.0.so)
	    7fa494c159c1 _ZN7process4http2OKC2EON4JSON5ProxyERK6OptionINSt7__cxx1112basic_stringIcSt11char_traitsIcESaIcEEEE+0x151 (/home/bevers/src/mesos/worktrees/state-benchmarking/build-alexr/src/.libs/libmesos-1.8.0.so)
	    7fa493ceaa0f _ZNK5mesos8internal6master6Master15ReadOnlyHandler5stateERKN7process4http7RequestERKNS4_5OwnedINS_15ObjectApproversEEE+0xaf (/home/bevers/src/mesos/worktrees/state-benchmarking/build-alexr/src/.libs/libmesos-1.8.0.so)
	    7fa493b904c8 _ZN7process20AsyncExecutorProcess7executeIZNK5mesos8internal6master6Master4Http20processRequestsBatchEvEUlMNS5_15ReadOnlyHandlerEKFNS_4http8ResponseERKNS8_7RequestERKNS_5OwnedINS2_15ObjectApproversEEEESC_SH_E_SJ_SA_SF_Li0EEENSt9result_ofIFT_T0_T1_T2_EE4typeERKSM_SN_SO_SP_+0x88 (/home/bevers/src/mesos/worktrees/state-benchmarking/build-alexr/src/.libs/libmesos-1.8.0.so)
	    7fa493b9e937 _ZZN7process8dispatchINS_4http8ResponseENS_20AsyncExecutorProcessERKZNK5mesos8internal6master6Master4Http20processRequestsBatchEvEUlMNS7_15ReadOnlyHandlerEKFS2_RKNS1_7RequestERKNS_5OwnedINS4_15ObjectApproversEEEESC_SH_E_SJ_SA_SF_SM_RSJ_RSA_RSF_EENS_6FutureIT_EERKNS_3PIDIT0_EEMSU_FSR_T1_T2_T3_T4_EOT5_OT6_OT7_OT8_ENKUlSt10unique_ptrINS_7PromiseIS2_EESt14default_deleteIS1E_EEOSK_OSJ_OSA_OSF_PNS_11ProcessBaseEE_clES1H_S1I_S1J_S1K_S1L_S1N_+0x387 (/home/bevers/src/mesos/worktrees/state-benchmarking/build-alexr/src/.libs/libmesos-1.8.0.so)
	    7fa493b9eb09 _ZNO6lambda12CallableOnceIFvPN7process11ProcessBaseEEE10CallableFnINS_8internal7PartialIZNS1_8dispatchINS1_4http8ResponseENS1_20AsyncExecutorProcessERKZNK5mesos8internal6master6Master4Http20processRequestsBatchEvEUlMNSG_15ReadOnlyHandlerEKFSB_RKNSA_7RequestERKNS1_5OwnedINSD_15ObjectApproversEEEESL_SQ_E_SS_SJ_SO_SV_RSS_RSJ_RSO_EENS1_6FutureIT_EERKNS1_3PIDIT0_EEMS13_FS10_T1_T2_T3_T4_EOT5_OT6_OT7_OT8_EUlSt10unique_ptrINS1_7PromiseISB_EESt14default_deleteIS1N_EEOST_OSS_OSJ_OSO_S3_E_JS1Q_ST_SS_SJ_SO_St12_PlaceholderILi1EEEEEEclEOS3_+0x59 (/home/bevers/src/mesos/worktrees/state-benchmarking/build-alexr/src/.libs/libmesos-1.8.0.so)
	    7fa494cb80e2 _ZN7process11ProcessBase7consumeEONS_13DispatchEventE+0x32 (/home/bevers/src/mesos/worktrees/state-benchmarking/build-alexr/src/.libs/libmesos-1.8.0.so)
	    7fa494ccd332 _ZN7process14ProcessManager6resumeEPNS_11ProcessBaseE+0x492 (/home/bevers/src/mesos/worktrees/state-benchmarking/build-alexr/src/.libs/libmesos-1.8.0.so)
	    7fa494cd3606 _ZNSt6thread11_State_implINS_8_InvokerISt5tupleIJZN7process14ProcessManager12init_threadsEvEUlvE_EEEEE6_M_runEv+0x46 (/home/bevers/src/mesos/worktrees/state-benchmarking/build-alexr/src/.libs/libmesos-1.8.0.so)
	    7fa491e43733 [unknown] (/usr/lib/x86_64-linux-gnu/libstdc++.so.6.0.25)

__async_executor__(1)@127.0.1.1:5050 14787 182029.130832:       5000 cycles:uh: 
	    55af36d4fcf4 _ZN7process4UPIDD1Ev+0x24 (/home/bevers/src/mesos/worktrees/state-benchmarking/build-alexr/src/.libs/mesos-master)
	    7fa493cf7f0f _ZZNK5mesos8internal6master6Master15ReadOnlyHandler5stateERKN7process4http7RequestERKNS4_5OwnedINS_15ObjectApproversEEEENKUlPN4JSON12ObjectWriterEE_clESG_+0x4cf (/home/bevers/src/mesos/worktrees/state-benchmarking/build-alexr/src/.libs/libmesos-1.8.0.so)
	    7fa493cf99e4 _ZNSt17_Function_handlerIFvPN9rapidjson6WriterINS0_19GenericStringBufferINS0_4UTF8IcEENS0_12CrtAllocatorEEES4_S4_S5_Lj0EEEEZN4JSON8internal7jsonifyIZNK5mesos8internal6master6Master15ReadOnlyHandler5stateERKN7process4http7RequestERKNSI_5OwnedINSD_15ObjectApproversEEEEUlPNSA_12ObjectWriterEE_vEESt8functionIS9_ERKT_NSB_6PreferEEUlS8_E_E9_M_invokeERKSt9_Any_dataOS8_+0x44 (/home/bevers/src/mesos/worktrees/state-benchmarking/build-alexr/src/.libs/libmesos-1.8.0.so)
	    7fa493a0c402 _ZNO4JSON5ProxycvNSt7__cxx1112basic_stringIcSt11char_traitsIcESaIcEEEB5cxx11Ev+0xc2 (/home/bevers/src/mesos/worktrees/state-benchmarking/build-alexr/src/.libs/libmesos-1.8.0.so)
	    7fa494c159c1 _ZN7process4http2OKC2EON4JSON5ProxyERK6OptionINSt7__cxx1112basic_stringIcSt11char_traitsIcESaIcEEEE+0x151 (/home/bevers/src/mesos/worktrees/state-benchmarking/build-alexr/src/.libs/libmesos-1.8.0.so)
	    7fa493ceaa0f _ZNK5mesos8internal6master6Master15ReadOnlyHandler5stateERKN7process4http7RequestERKNS4_5OwnedINS_15ObjectApproversEEE+0xaf (/home/bevers/src/mesos/worktrees/state-benchmarking/build-alexr/src/.libs/libmesos-1.8.0.so)
	    7fa493b904c8 _ZN7process20AsyncExecutorProcess7executeIZNK5mesos8internal6master6Master4Http20processRequestsBatchEvEUlMNS5_15ReadOnlyHandlerEKFNS_4http8ResponseERKNS8_7RequestERKNS_5OwnedINS2_15ObjectApproversEEEESC_SH_E_SJ_SA_SF_Li0EEENSt9result_ofIFT_T0_T1_T2_EE4typeERKSM_SN_SO_SP_+0x88 (/home/bevers/src/mesos/worktrees/state-benchmarking/build-alexr/src/.libs/libmesos-1.8.0.so)
	    7fa493b9e937 _ZZN7process8dispatchINS_4http8ResponseENS_20AsyncExecutorProcessERKZNK5mesos8internal6master6Master4Http20processRequestsBatchEvEUlMNS7_15ReadOnlyHandlerEKFS2_RKNS1_7RequestERKNS_5OwnedINS4_15ObjectApproversEEEESC_SH_E_SJ_SA_SF_SM_RSJ_RSA_RSF_EENS_6FutureIT_EERKNS_3PIDIT0_EEMSU_FSR_T1_T2_T3_T4_EOT5_OT6_OT7_OT8_ENKUlSt10unique_ptrINS_7PromiseIS2_EESt14default_deleteIS1E_EEOSK_OSJ_OSA_OSF_PNS_11ProcessBaseEE_clES1H_S1I_S1J_S1K_S1L_S1N_+0x387 (/home/bevers/src/mesos/worktrees/state-benchmarking/build-alexr/src/.libs/libmesos-1.8.0.so)
	    7fa493b9eb09 _ZNO6lambda12CallableOnceIFvPN7process11ProcessBaseEEE10CallableFnINS_8internal7PartialIZNS1_8dispatchINS1_4http8ResponseENS1_20AsyncExecutorProcessERKZNK5mesos8internal6master6Master4Http20processRequestsBatchEvEUlMNSG_15ReadOnlyHandlerEKFSB_RKNSA_7RequestERKNS1_5OwnedINSD_15ObjectApproversEEEESL_SQ_E_SS_SJ_SO_SV_RSS_RSJ_RSO_EENS1_6FutureIT_EERKNS1_3PIDIT0_EEMS13_FS10_T1_T2_T3_T4_EOT5_OT6_OT7_OT8_EUlSt10unique_ptrINS1_7PromiseISB_EESt14default_deleteIS1N_EEOST_OSS_OSJ_OSO_S3_E_JS1Q_ST_SS_SJ_SO_St12_PlaceholderILi1EEEEEEclEOS3_+0x59 (/home/bevers/src/mesos/worktrees/state-benchmarking/build-alexr/src/.libs/libmesos-1.8.0.so)
	    7fa494cb80e2 _ZN7process11ProcessBase7consumeEONS_13DispatchEventE+0x32 (/home/bevers/src/mesos/worktrees/state-benchmarking/build-alexr/src/.libs/libmesos-1.8.0.so)
	    7fa494ccd332 _ZN7process14ProcessManager6resumeEPNS_11ProcessBaseE+0x492 (/home/bevers/src/mesos/worktrees/state-benchmarking/build-alexr/src/.libs/libmesos-1.8.0.so)
	    7fa494cd3606 _ZNSt6thread11_State_implINS_8_InvokerISt5tupleIJZN7process14ProcessManager12init_threadsEvEUlvE_EEEEE6_M_runEv+0x46 (/home/bevers/src/mesos/worktrees/state-benchmarking/build-alexr/src/.libs/libmesos-1.8.0.so)
	    7fa491e43733 [unknown] (/usr/lib/x86_64-linux-gnu/libstdc++.so.6.0.25)

__async_executor__(1)@127.0.1.1:5050 14787 182029.130838:       5000 cycles:uh: 
	    7fa495d47e1d _dl_fixup+0x2d (/lib/x86_64-linux-gnu/ld-2.27.so)
	    7fa493cf99e4 _ZNSt17_Function_handlerIFvPN9rapidjson6WriterINS0_19GenericStringBufferINS0_4UTF8IcEENS0_12CrtAllocatorEEES4_S4_S5_Lj0EEEEZN4JSON8internal7jsonifyIZNK5mesos8internal6master6Master15ReadOnlyHandler5stateERKN7process4http7RequestERKNSI_5OwnedINSD_15ObjectApproversEEEEUlPNSA_12ObjectWriterEE_vEESt8functionIS9_ERKT_NSB_6PreferEEUlS8_E_E9_M_invokeERKSt9_Any_dataOS8_+0x44 (/home/bevers/src/mesos/worktrees/state-benchmarking/build-alexr/src/.libs/libmesos-1.8.0.so)
	    7fa493a0c402 _ZNO4JSON5ProxycvNSt7__cxx1112basic_stringIcSt11char_traitsIcESaIcEEEB5cxx11Ev+0xc2 (/home/bevers/src/mesos/worktrees/state-benchmarking/build-alexr/src/.libs/libmesos-1.8.0.so)
	    7fa494c159c1 _ZN7process4http2OKC2EON4JSON5ProxyERK6OptionINSt7__cxx1112basic_stringIcSt11char_traitsIcESaIcEEEE+0x151 (/home/bevers/src/mesos/worktrees/state-benchmarking/build-alexr/src/.libs/libmesos-1.8.0.so)
	    7fa493ceaa0f _ZNK5mesos8internal6master6Master15ReadOnlyHandler5stateERKN7process4http7RequestERKNS4_5OwnedINS_15ObjectApproversEEE+0xaf (/home/bevers/src/mesos/worktrees/state-benchmarking/build-alexr/src/.libs/libmesos-1.8.0.so)
	    7fa493b904c8 _ZN7process20AsyncExecutorProcess7executeIZNK5mesos8internal6master6Master4Http20processRequestsBatchEvEUlMNS5_15ReadOnlyHandlerEKFNS_4http8ResponseERKNS8_7RequestERKNS_5OwnedINS2_15ObjectApproversEEEESC_SH_E_SJ_SA_SF_Li0EEENSt9result_ofIFT_T0_T1_T2_EE4typeERKSM_SN_SO_SP_+0x88 (/home/bevers/src/mesos/worktrees/state-benchmarking/build-alexr/src/.libs/libmesos-1.8.0.so)
	    7fa493b9e937 _ZZN7process8dispatchINS_4http8ResponseENS_20AsyncExecutorProcessERKZNK5mesos8internal6master6Master4Http20processRequestsBatchEvEUlMNS7_15ReadOnlyHandlerEKFS2_RKNS1_7RequestERKNS_5OwnedINS4_15ObjectApproversEEEESC_SH_E_SJ_SA_SF_SM_RSJ_RSA_RSF_EENS_6FutureIT_EERKNS_3PIDIT0_EEMSU_FSR_T1_T2_T3_T4_EOT5_OT6_OT7_OT8_ENKUlSt10unique_ptrINS_7PromiseIS2_EESt14default_deleteIS1E_EEOSK_OSJ_OSA_OSF_PNS_11ProcessBaseEE_clES1H_S1I_S1J_S1K_S1L_S1N_+0x387 (/home/bevers/src/mesos/worktrees/state-benchmarking/build-alexr/src/.libs/libmesos-1.8.0.so)
	    7fa493b9eb09 _ZNO6lambda12CallableOnceIFvPN7process11ProcessBaseEEE10CallableFnINS_8internal7PartialIZNS1_8dispatchINS1_4http8ResponseENS1_20AsyncExecutorProcessERKZNK5mesos8internal6master6Master4Http20processRequestsBatchEvEUlMNSG_15ReadOnlyHandlerEKFSB_RKNSA_7RequestERKNS1_5OwnedINSD_15ObjectApproversEEEESL_SQ_E_SS_SJ_SO_SV_RSS_RSJ_RSO_EENS1_6FutureIT_EERKNS1_3PIDIT0_EEMS13_FS10_T1_T2_T3_T4_EOT5_OT6_OT7_OT8_EUlSt10unique_ptrINS1_7PromiseISB_EESt14default_deleteIS1N_EEOST_OSS_OSJ_OSO_S3_E_JS1Q_ST_SS_SJ_SO_St12_PlaceholderILi1EEEEEEclEOS3_+0x59 (/home/bevers/src/mesos/worktrees/state-benchmarking/build-alexr/src/.libs/libmesos-1.8.0.so)
	    7fa494cb80e2 _ZN7process11ProcessBase7consumeEONS_13DispatchEventE+0x32 (/home/bevers/src/mesos/worktrees/state-benchmarking/build-alexr/src/.libs/libmesos-1.8.0.so)
	    7fa494ccd332 _ZN7process14ProcessManager6resumeEPNS_11ProcessBaseE+0x492 (/home/bevers/src/mesos/worktrees/state-benchmarking/build-alexr/src/.libs/libmesos-1.8.0.so)
	    7fa494cd3606 _ZNSt6thread11_State_implINS_8_InvokerISt5tupleIJZN7process14ProcessManager12init_threadsEvEUlvE_EEEEE6_M_runEv+0x46 (/home/bevers/src/mesos/worktrees/state-benchmarking/build-alexr/src/.libs/libmesos-1.8.0.so)
	    7fa491e43733 [unknown] (/usr/lib/x86_64-linux-gnu/libstdc++.so.6.0.25)

__async_executor__(1)@127.0.1.1:5050 14787 182029.130841:       5000 cycles:uh: 
	    7fa495d42709 do_lookup_x+0x4c9 (/lib/x86_64-linux-gnu/ld-2.27.so)
	               0 [unknown] ([unknown])

__async_executor__(1)@127.0.1.1:5050 14787 182029.130844:       5000 cycles:uh: 
	    7fa494df7d76 _ZN6google8protobuf18GoogleOnceInitImplEPlPNS0_7ClosureE+0x26 (/home/bevers/src/mesos/worktrees/state-benchmarking/build-alexr/src/.libs/libmesos-1.8.0.so)
	    7fa4945607a8 _ZN30protobuf_mesos_2fmesos_2eproto30protobuf_AssignDescriptorsOnceEv+0x58 (/home/bevers/src/mesos/worktrees/state-benchmarking/build-alexr/src/.libs/libmesos-1.8.0.so)
	    7fa494561db9 _ZN5mesos37MasterInfo_Capability_Type_descriptorEv+0x9 (/home/bevers/src/mesos/worktrees/state-benchmarking/build-alexr/src/.libs/libmesos-1.8.0.so)
	    7fa4939fd753 _ZN5mesos4jsonEPN4JSON12StringWriterERKNS_21MasterInfo_CapabilityE+0x13 (/home/bevers/src/mesos/worktrees/state-benchmarking/build-alexr/src/.libs/libmesos-1.8.0.so)
	    7fa493cf8025 _ZZNK5mesos8internal6master6Master15ReadOnlyHandler5stateERKN7process4http7RequestERKNS4_5OwnedINS_15ObjectApproversEEEENKUlPN4JSON12ObjectWriterEE_clESG_+0x5e5 (/home/bevers/src/mesos/worktrees/state-benchmarking/build-alexr/src/.libs/libmesos-1.8.0.so)
	    7fa493cf99e4 _ZNSt17_Function_handlerIFvPN9rapidjson6WriterINS0_19GenericStringBufferINS0_4UTF8IcEENS0_12CrtAllocatorEEES4_S4_S5_Lj0EEEEZN4JSON8internal7jsonifyIZNK5mesos8internal6master6Master15ReadOnlyHandler5stateERKN7process4http7RequestERKNSI_5OwnedINSD_15ObjectApproversEEEEUlPNSA_12ObjectWriterEE_vEESt8functionIS9_ERKT_NSB_6PreferEEUlS8_E_E9_M_invokeERKSt9_Any_dataOS8_+0x44 (/home/bevers/src/mesos/worktrees/state-benchmarking/build-alexr/src/.libs/libmesos-1.8.0.so)
	    7fa493a0c402 _ZNO4JSON5ProxycvNSt7__cxx1112basic_stringIcSt11char_traitsIcESaIcEEEB5cxx11Ev+0xc2 (/home/bevers/src/mesos/worktrees/state-benchmarking/build-alexr/src/.libs/libmesos-1.8.0.so)
	    7fa494c159c1 _ZN7process4http2OKC2EON4JSON5ProxyERK6OptionINSt7__cxx1112basic_stringIcSt11char_traitsIcESaIcEEEE+0x151 (/home/bevers/src/mesos/worktrees/state-benchmarking/build-alexr/src/.libs/libmesos-1.8.0.so)
	    7fa493ceaa0f _ZNK5mesos8internal6master6Master15ReadOnlyHandler5stateERKN7process4http7RequestERKNS4_5OwnedINS_15ObjectApproversEEE+0xaf (/home/bevers/src/mesos/worktrees/state-benchmarking/build-alexr/src/.libs/libmesos-1.8.0.so)
	    7fa493b904c8 _ZN7process20AsyncExecutorProcess7executeIZNK5mesos8internal6master6Master4Http20processRequestsBatchEvEUlMNS5_15ReadOnlyHandlerEKFNS_4http8ResponseERKNS8_7RequestERKNS_5OwnedINS2_15ObjectApproversEEEESC_SH_E_SJ_SA_SF_Li0EEENSt9result_ofIFT_T0_T1_T2_EE4typeERKSM_SN_SO_SP_+0x88 (/home/bevers/src/mesos/worktrees/state-benchmarking/build-alexr/src/.libs/libmesos-1.8.0.so)
	    7fa493b9e937 _ZZN7process8dispatchINS_4http8ResponseENS_20AsyncExecutorProcessERKZNK5mesos8internal6master6Master4Http20processRequestsBatchEvEUlMNS7_15ReadOnlyHandlerEKFS2_RKNS1_7RequestERKNS_5OwnedINS4_15ObjectApproversEEEESC_SH_E_SJ_SA_SF_SM_RSJ_RSA_RSF_EENS_6FutureIT_EERKNS_3PIDIT0_EEMSU_FSR_T1_T2_T3_T4_EOT5_OT6_OT7_OT8_ENKUlSt10unique_ptrINS_7PromiseIS2_EESt14default_deleteIS1E_EEOSK_OSJ_OSA_OSF_PNS_11ProcessBaseEE_clES1H_S1I_S1J_S1K_S1L_S1N_+0x387 (/home/bevers/src/mesos/worktrees/state-benchmarking/build-alexr/src/.libs/libmesos-1.8.0.so)
	    7fa493b9eb09 _ZNO6lambda12CallableOnceIFvPN7process11ProcessBaseEEE10CallableFnINS_8internal7PartialIZNS1_8dispatchINS1_4http8ResponseENS1_20AsyncExecutorProcessERKZNK5mesos8internal6master6Master4Http20processRequestsBatchEvEUlMNSG_15ReadOnlyHandlerEKFSB_RKNSA_7RequestERKNS1_5OwnedINSD_15ObjectApproversEEEESL_SQ_E_SS_SJ_SO_SV_RSS_RSJ_RSO_EENS1_6FutureIT_EERKNS1_3PIDIT0_EEMS13_FS10_T1_T2_T3_T4_EOT5_OT6_OT7_OT8_EUlSt10unique_ptrINS1_7PromiseISB_EESt14default_deleteIS1N_EEOST_OSS_OSJ_OSO_S3_E_JS1Q_ST_SS_SJ_SO_St12_PlaceholderILi1EEEEEEclEOS3_+0x59 (/home/bevers/src/mesos/worktrees/state-benchmarking/build-alexr/src/.libs/libmesos-1.8.0.so)
	    7fa494cb80e2 _ZN7process11ProcessBase7consumeEONS_13DispatchEventE+0x32 (/home/bevers/src/mesos/worktrees/state-benchmarking/build-alexr/src/.libs/libmesos-1.8.0.so)
	    7fa494ccd332 _ZN7process14ProcessManager6resumeEPNS_11ProcessBaseE+0x492 (/home/bevers/src/mesos/worktrees/state-benchmarking/build-alexr/src/.libs/libmesos-1.8.0.so)
	    7fa494cd3606 _ZNSt6thread11_State_implINS_8_InvokerISt5tupleIJZN7process14ProcessManager12init_threadsEvEUlvE_EEEEE6_M_runEv+0x46 (/home/bevers/src/mesos/worktrees/state-benchmarking/build-alexr/src/.libs/libmesos-1.8.0.so)
	    7fa491e43733 [unknown] (/usr/lib/x86_64-linux-gnu/libstdc++.so.6.0.25)

__async_executor__(1)@127.0.1.1:5050 14787 182029.130847:       5000 cycles:uh: 
	    7fa494e2b23a _ZNK6google8protobuf14DescriptorPool14FindFileByNameERKNSt7__cxx1112basic_stringIcSt11char_traitsIcESaIcEEE+0x1a (/home/bevers/src/mesos/worktrees/state-benchmarking/build-alexr/src/.libs/libmesos-1.8.0.so)
	    7fa494e7e96c _ZN6google8protobuf8internal17AssignDescriptorsERKNSt7__cxx1112basic_stringIcSt11char_traitsIcESaIcEEEPKNS1_15MigrationSchemaEPKPKNS0_7MessageEPKjPNS0_14MessageFactoryEPNS0_8MetadataEPPKNS0_14EnumDescriptorEPPKNS0_17ServiceDescriptorE+0x5c (/home/bevers/src/mesos/worktrees/state-benchmarking/build-alexr/src/.libs/libmesos-1.8.0.so)
	    7fa494561c5d _ZN30protobuf_mesos_2fmesos_2eproto26protobuf_AssignDescriptorsEv+0x6d (/home/bevers/src/mesos/worktrees/state-benchmarking/build-alexr/src/.libs/libmesos-1.8.0.so)
	    7fa494df7da8 _ZN6google8protobuf18GoogleOnceInitImplEPlPNS0_7ClosureE+0x58 (/home/bevers/src/mesos/worktrees/state-benchmarking/build-alexr/src/.libs/libmesos-1.8.0.so)
	    7fa4945607a8 _ZN30protobuf_mesos_2fmesos_2eproto30protobuf_AssignDescriptorsOnceEv+0x58 (/home/bevers/src/mesos/worktrees/state-benchmarking/build-alexr/src/.libs/libmesos-1.8.0.so)
	    7fa494561db9 _ZN5mesos37MasterInfo_Capability_Type_descriptorEv+0x9 (/home/bevers/src/mesos/worktrees/state-benchmarking/build-alexr/src/.libs/libmesos-1.8.0.so)
	    7fa4939fd753 _ZN5mesos4jsonEPN4JSON12StringWriterERKNS_21MasterInfo_CapabilityE+0x13 (/home/bevers/src/mesos/worktrees/state-benchmarking/build-alexr/src/.libs/libmesos-1.8.0.so)
	    7fa493cf8025 _ZZNK5mesos8internal6master6Master15ReadOnlyHandler5stateERKN7process4http7RequestERKNS4_5OwnedINS_15ObjectApproversEEEENKUlPN4JSON12ObjectWriterEE_clESG_+0x5e5 (/home/bevers/src/mesos/worktrees/state-benchmarking/build-alexr/src/.libs/libmesos-1.8.0.so)
	    7fa493cf99e4 _ZNSt17_Function_handlerIFvPN9rapidjson6WriterINS0_19GenericStringBufferINS0_4UTF8IcEENS0_12CrtAllocatorEEES4_S4_S5_Lj0EEEEZN4JSON8internal7jsonifyIZNK5mesos8internal6master6Master15ReadOnlyHandler5stateERKN7process4http7RequestERKNSI_5OwnedINSD_15ObjectApproversEEEEUlPNSA_12ObjectWriterEE_vEESt8functionIS9_ERKT_NSB_6PreferEEUlS8_E_E9_M_invokeERKSt9_Any_dataOS8_+0x44 (/home/bevers/src/mesos/worktrees/state-benchmarking/build-alexr/src/.libs/libmesos-1.8.0.so)
	    7fa493a0c402 _ZNO4JSON5ProxycvNSt7__cxx1112basic_stringIcSt11char_traitsIcESaIcEEEB5cxx11Ev+0xc2 (/home/bevers/src/mesos/worktrees/state-benchmarking/build-alexr/src/.libs/libmesos-1.8.0.so)
	    7fa494c159c1 _ZN7process4http2OKC2EON4JSON5ProxyERK6OptionINSt7__cxx1112basic_stringIcSt11char_traitsIcESaIcEEEE+0x151 (/home/bevers/src/mesos/worktrees/state-benchmarking/build-alexr/src/.libs/libmesos-1.8.0.so)
	    7fa493ceaa0f _ZNK5mesos8internal6master6Master15ReadOnlyHandler5stateERKN7process4http7RequestERKNS4_5OwnedINS_15ObjectApproversEEE+0xaf (/home/bevers/src/mesos/worktrees/state-benchmarking/build-alexr/src/.libs/libmesos-1.8.0.so)
	    7fa493b904c8 _ZN7process20AsyncExecutorProcess7executeIZNK5mesos8internal6master6Master4Http20processRequestsBatchEvEUlMNS5_15ReadOnlyHandlerEKFNS_4http8ResponseERKNS8_7RequestERKNS_5OwnedINS2_15ObjectApproversEEEESC_SH_E_SJ_SA_SF_Li0EEENSt9result_ofIFT_T0_T1_T2_EE4typeERKSM_SN_SO_SP_+0x88 (/home/bevers/src/mesos/worktrees/state-benchmarking/build-alexr/src/.libs/libmesos-1.8.0.so)
	    7fa493b9e937 _ZZN7process8dispatchINS_4http8ResponseENS_20AsyncExecutorProcessERKZNK5mesos8internal6master6Master4Http20processRequestsBatchEvEUlMNS7_15ReadOnlyHandlerEKFS2_RKNS1_7RequestERKNS_5OwnedINS4_15ObjectApproversEEEESC_SH_E_SJ_SA_SF_SM_RSJ_RSA_RSF_EENS_6FutureIT_EERKNS_3PIDIT0_EEMSU_FSR_T1_T2_T3_T4_EOT5_OT6_OT7_OT8_ENKUlSt10unique_ptrINS_7PromiseIS2_EESt14default_deleteIS1E_EEOSK_OSJ_OSA_OSF_PNS_11ProcessBaseEE_clES1H_S1I_S1J_S1K_S1L_S1N_+0x387 (/home/bevers/src/mesos/worktrees/state-benchmarking/build-alexr/src/.libs/libmesos-1.8.0.so)
	    7fa493b9eb09 _ZNO6lambda12CallableOnceIFvPN7process11ProcessBaseEEE10CallableFnINS_8internal7PartialIZNS1_8dispatchINS1_4http8ResponseENS1_20AsyncExecutorProcessERKZNK5mesos8internal6master6Master4Http20processRequestsBatchEvEUlMNSG_15ReadOnlyHandlerEKFSB_RKNSA_7RequestERKNS1_5OwnedINSD_15ObjectApproversEEEESL_SQ_E_SS_SJ_SO_SV_RSS_RSJ_RSO_EENS1_6FutureIT_EERKNS1_3PIDIT0_EEMS13_FS10_T1_T2_T3_T4_EOT5_OT6_OT7_OT8_EUlSt10unique_ptrINS1_7PromiseISB_EESt14default_deleteIS1N_EEOST_OSS_OSJ_OSO_S3_E_JS1Q_ST_SS_SJ_SO_St12_PlaceholderILi1EEEEEEclEOS3_+0x59 (/home/bevers/src/mesos/worktrees/state-benchmarking/build-alexr/src/.libs/libmesos-1.8.0.so)
	    7fa494cb80e2 _ZN7process11ProcessBase7consumeEONS_13DispatchEventE+0x32 (/home/bevers/src/mesos/worktrees/state-benchmarking/build-alexr/src/.libs/libmesos-1.8.0.so)
	    7fa494ccd332 _ZN7process14ProcessManager6resumeEPNS_11ProcessBaseE+0x492 (/home/bevers/src/mesos/worktrees/state-benchmarking/build-alexr/src/.libs/libmesos-1.8.0.so)
	    7fa494cd3606 _ZNSt6thread11_State_implINS_8_InvokerISt5tupleIJZN7process14ProcessManager12init_threadsEvEUlvE_EEEEE6_M_runEv+0x46 (/home/bevers/src/mesos/worktrees/state-benchmarking/build-alexr/src/.libs/libmesos-1.8.0.so)
	    7fa491e43733 [unknown] (/usr/lib/x86_64-linux-gnu/libstdc++.so.6.0.25)

__async_executor__(1)@127.0.1.1:5050 14787 182029.130850:       5000 cycles:uh: 
	    7fa494e33f70 _ZNKSt10_HashtableIPKcSt4pairIKS1_PKN6google8protobuf14FileDescriptorEESaIS9_ENSt8__detail10_Select1stENS5_5streqENS5_4hashIS1_EENSB_18_Mod_range_hashingENSB_20_Default_ranged_hashENSB_20_Prime_rehash_policyENSB_17_Hashtable_traitsILb1ELb0ELb1EEEE19_M_find_before_nodeEmRS3_m+0x0 (/home/bevers/src/mesos/worktrees/state-benchmarking/build-alexr/src/.libs/libmesos-1.8.0.so)
	    7fa494e2b2aa _ZNK6google8protobuf14DescriptorPool14FindFileByNameERKNSt7__cxx1112basic_stringIcSt11char_traitsIcESaIcEEE+0x8a (/home/bevers/src/mesos/worktrees/state-benchmarking/build-alexr/src/.libs/libmesos-1.8.0.so)
	    7fa494e7e96c _ZN6google8protobuf8internal17AssignDescriptorsERKNSt7__cxx1112basic_stringIcSt11char_traitsIcESaIcEEEPKNS1_15MigrationSchemaEPKPKNS0_7MessageEPKjPNS0_14MessageFactoryEPNS0_8MetadataEPPKNS0_14EnumDescriptorEPPKNS0_17ServiceDescriptorE+0x5c (/home/bevers/src/mesos/worktrees/state-benchmarking/build-alexr/src/.libs/libmesos-1.8.0.so)
	    7fa494561c5d _ZN30protobuf_mesos_2fmesos_2eproto26protobuf_AssignDescriptorsEv+0x6d (/home/bevers/src/mesos/worktrees/state-benchmarking/build-alexr/src/.libs/libmesos-1.8.0.so)
	    7fa494df7da8 _ZN6google8protobuf18GoogleOnceInitImplEPlPNS0_7ClosureE+0x58 (/home/bevers/src/mesos/worktrees/state-benchmarking/build-alexr/src/.libs/libmesos-1.8.0.so)
	    7fa4945607a8 _ZN30protobuf_mesos_2fmesos_2eproto30protobuf_AssignDescriptorsOnceEv+0x58 (/home/bevers/src/mesos/worktrees/state-benchmarking/build-alexr/src/.libs/libmesos-1.8.0.so)
	    7fa494561db9 _ZN5mesos37MasterInfo_Capability_Type_descriptorEv+0x9 (/home/bevers/src/mesos/worktrees/state-benchmarking/build-alexr/src/.libs/libmesos-1.8.0.so)
	    7fa4939fd753 _ZN5mesos4jsonEPN4JSON12StringWriterERKNS_21MasterInfo_CapabilityE+0x13 (/home/bevers/src/mesos/worktrees/state-benchmarking/build-alexr/src/.libs/libmesos-1.8.0.so)
	    7fa493cf8025 _ZZNK5mesos8internal6master6Master15ReadOnlyHandler5stateERKN7process4http7RequestERKNS4_5OwnedINS_15ObjectApproversEEEENKUlPN4JSON12ObjectWriterEE_clESG_+0x5e5 (/home/bevers/src/mesos/worktrees/state-benchmarking/build-alexr/src/.libs/libmesos-1.8.0.so)
	    7fa493cf99e4 _ZNSt17_Function_handlerIFvPN9rapidjson6WriterINS0_19GenericStringBufferINS0_4UTF8IcEENS0_12CrtAllocatorEEES4_S4_S5_Lj0EEEEZN4JSON8internal7jsonifyIZNK5mesos8internal6master6Master15ReadOnlyHandler5stateERKN7process4http7RequestERKNSI_5OwnedINSD_15ObjectApproversEEEEUlPNSA_12ObjectWriterEE_vEESt8functionIS9_ERKT_NSB_6PreferEEUlS8_E_E9_M_invokeERKSt9_Any_dataOS8_+0x44 (/home/bevers/src/mesos/worktrees/state-benchmarking/build-alexr/src/.libs/libmesos-1.8.0.so)
	    7fa493a0c402 _ZNO4JSON5ProxycvNSt7__cxx1112basic_stringIcSt11char_traitsIcESaIcEEEB5cxx11Ev+0xc2 (/home/bevers/src/mesos/worktrees/state-benchmarking/build-alexr/src/.libs/libmesos-1.8.0.so)
	    7fa494c159c1 _ZN7process4http2OKC2EON4JSON5ProxyERK6OptionINSt7__cxx1112basic_stringIcSt11char_traitsIcESaIcEEEE+0x151 (/home/bevers/src/mesos/worktrees/state-benchmarking/build-alexr/src/.libs/libmesos-1.8.0.so)
	    7fa493ceaa0f _ZNK5mesos8internal6master6Master15ReadOnlyHandler5stateERKN7process4http7RequestERKNS4_5OwnedINS_15ObjectApproversEEE+0xaf (/home/bevers/src/mesos/worktrees/state-benchmarking/build-alexr/src/.libs/libmesos-1.8.0.so)
	    7fa493b904c8 _ZN7process20AsyncExecutorProcess7executeIZNK5mesos8internal6master6Master4Http20processRequestsBatchEvEUlMNS5_15ReadOnlyHandlerEKFNS_4http8ResponseERKNS8_7RequestERKNS_5OwnedINS2_15ObjectApproversEEEESC_SH_E_SJ_SA_SF_Li0EEENSt9result_ofIFT_T0_T1_T2_EE4typeERKSM_SN_SO_SP_+0x88 (/home/bevers/src/mesos/worktrees/state-benchmarking/build-alexr/src/.libs/libmesos-1.8.0.so)
	    7fa493b9e937 _ZZN7process8dispatchINS_4http8ResponseENS_20AsyncExecutorProcessERKZNK5mesos8internal6master6Master4Http20processRequestsBatchEvEUlMNS7_15ReadOnlyHandlerEKFS2_RKNS1_7RequestERKNS_5OwnedINS4_15ObjectApproversEEEESC_SH_E_SJ_SA_SF_SM_RSJ_RSA_RSF_EENS_6FutureIT_EERKNS_3PIDIT0_EEMSU_FSR_T1_T2_T3_T4_EOT5_OT6_OT7_OT8_ENKUlSt10unique_ptrINS_7PromiseIS2_EESt14default_deleteIS1E_EEOSK_OSJ_OSA_OSF_PNS_11ProcessBaseEE_clES1H_S1I_S1J_S1K_S1L_S1N_+0x387 (/home/bevers/src/mesos/worktrees/state-benchmarking/build-alexr/src/.libs/libmesos-1.8.0.so)
	    7fa493b9eb09 _ZNO6lambda12CallableOnceIFvPN7process11ProcessBaseEEE10CallableFnINS_8internal7PartialIZNS1_8dispatchINS1_4http8ResponseENS1_20AsyncExecutorProcessERKZNK5mesos8internal6master6Master4Http20processRequestsBatchEvEUlMNSG_15ReadOnlyHandlerEKFSB_RKNSA_7RequestERKNS1_5OwnedINSD_15ObjectApproversEEEESL_SQ_E_SS_SJ_SO_SV_RSS_RSJ_RSO_EENS1_6FutureIT_EERKNS1_3PIDIT0_EEMS13_FS10_T1_T2_T3_T4_EOT5_OT6_OT7_OT8_EUlSt10unique_ptrINS1_7PromiseISB_EESt14default_deleteIS1N_EEOST_OSS_OSJ_OSO_S3_E_JS1Q_ST_SS_SJ_SO_St12_PlaceholderILi1EEEEEEclEOS3_+0x59 (/home/bevers/src/mesos/worktrees/state-benchmarking/build-alexr/src/.libs/libmesos-1.8.0.so)
	    7fa494cb80e2 _ZN7process11ProcessBase7consumeEONS_13DispatchEventE+0x32 (/home/bevers/src/mesos/worktrees/state-benchmarking/build-alexr/src/.libs/libmesos-1.8.0.so)
	    7fa494ccd332 _ZN7process14ProcessManager6resumeEPNS_11ProcessBaseE+0x492 (/home/bevers/src/mesos/worktrees/state-benchmarking/build-alexr/src/.libs/libmesos-1.8.0.so)
	    7fa494cd3606 _ZNSt6thread11_State_implINS_8_InvokerISt5tupleIJZN7process14ProcessManager12init_threadsEvEUlvE_EEEEE6_M_runEv+0x46 (/home/bevers/src/mesos/worktrees/state-benchmarking/build-alexr/src/.libs/libmesos-1.8.0.so)
	    7fa491e43733 [unknown] (/usr/lib/x86_64-linux-gnu/libstdc++.so.6.0.25)

__async_executor__(1)@127.0.1.1:5050 14787 182029.130854:       5000 cycles:uh: 
	    7fa4938f6160 _ZN47protobuf_google_2fprotobuf_2fdescriptor_2eproto31InitDefaultsFileDescriptorProtoEv@plt+0x0 (/home/bevers/src/mesos/worktrees/state-benchmarking/build-alexr/src/.libs/libmesos-1.8.0.so)
	    7fa494e2b167 _ZNK6google8protobuf14DescriptorPool29TryFindFileInFallbackDatabaseERKNSt7__cxx1112basic_stringIcSt11char_traitsIcESaIcEEE+0x87 (/home/bevers/src/mesos/worktrees/state-benchmarking/build-alexr/src/.libs/libmesos-1.8.0.so)
	    7fa494e2b304 _ZNK6google8protobuf14DescriptorPool14FindFileByNameERKNSt7__cxx1112basic_stringIcSt11char_traitsIcESaIcEEE+0xe4 (/home/bevers/src/mesos/worktrees/state-benchmarking/build-alexr/src/.libs/libmesos-1.8.0.so)
	    7fa494e7e96c _ZN6google8protobuf8internal17AssignDescriptorsERKNSt7__cxx1112basic_stringIcSt11char_traitsIcESaIcEEEPKNS1_15MigrationSchemaEPKPKNS0_7MessageEPKjPNS0_14MessageFactoryEPNS0_8MetadataEPPKNS0_14EnumDescriptorEPPKNS0_17ServiceDescriptorE+0x5c (/home/bevers/src/mesos/worktrees/state-benchmarking/build-alexr/src/.libs/libmesos-1.8.0.so)
	    7fa494561c5d _ZN30protobuf_mesos_2fmesos_2eproto26protobuf_AssignDescriptorsEv+0x6d (/home/bevers/src/mesos/worktrees/state-benchmarking/build-alexr/src/.libs/libmesos-1.8.0.so)
	    7fa494df7da8 _ZN6google8protobuf18GoogleOnceInitImplEPlPNS0_7ClosureE+0x58 (/home/bevers/src/mesos/worktrees/state-benchmarking/build-alexr/src/.libs/libmesos-1.8.0.so)
	    7fa4945607a8 _ZN30protobuf_mesos_2fmesos_2eproto30protobuf_AssignDescriptorsOnceEv+0x58 (/home/bevers/src/mesos/worktrees/state-benchmarking/build-alexr/src/.libs/libmesos-1.8.0.so)
	    7fa494561db9 _ZN5mesos37MasterInfo_Capability_Type_descriptorEv+0x9 (/home/bevers/src/mesos/worktrees/state-benchmarking/build-alexr/src/.libs/libmesos-1.8.0.so)
	    7fa4939fd753 _ZN5mesos4jsonEPN4JSON12StringWriterERKNS_21MasterInfo_CapabilityE+0x13 (/home/bevers/src/mesos/worktrees/state-benchmarking/build-alexr/src/.libs/libmesos-1.8.0.so)
	    7fa493cf8025 _ZZNK5mesos8internal6master6Master15ReadOnlyHandler5stateERKN7process4http7RequestERKNS4_5OwnedINS_15ObjectApproversEEEENKUlPN4JSON12ObjectWriterEE_clESG_+0x5e5 (/home/bevers/src/mesos/worktrees/state-benchmarking/build-alexr/src/.libs/libmesos-1.8.0.so)
	    7fa493cf99e4 _ZNSt17_Function_handlerIFvPN9rapidjson6WriterINS0_19GenericStringBufferINS0_4UTF8IcEENS0_12CrtAllocatorEEES4_S4_S5_Lj0EEEEZN4JSON8internal7jsonifyIZNK5mesos8internal6master6Master15ReadOnlyHandler5stateERKN7process4http7RequestERKNSI_5OwnedINSD_15ObjectApproversEEEEUlPNSA_12ObjectWriterEE_vEESt8functionIS9_ERKT_NSB_6PreferEEUlS8_E_E9_M_invokeERKSt9_Any_dataOS8_+0x44 (/home/bevers/src/mesos/worktrees/state-benchmarking/build-alexr/src/.libs/libmesos-1.8.0.so)
	    7fa493a0c402 _ZNO4JSON5ProxycvNSt7__cxx1112basic_stringIcSt11char_traitsIcESaIcEEEB5cxx11Ev+0xc2 (/home/bevers/src/mesos/worktrees/state-benchmarking/build-alexr/src/.libs/libmesos-1.8.0.so)
	    7fa494c159c1 _ZN7process4http2OKC2EON4JSON5ProxyERK6OptionINSt7__cxx1112basic_stringIcSt11char_traitsIcESaIcEEEE+0x151 (/home/bevers/src/mesos/worktrees/state-benchmarking/build-alexr/src/.libs/libmesos-1.8.0.so)
	    7fa493ceaa0f _ZNK5mesos8internal6master6Master15ReadOnlyHandler5stateERKN7process4http7RequestERKNS4_5OwnedINS_15ObjectApproversEEE+0xaf (/home/bevers/src/mesos/worktrees/state-benchmarking/build-alexr/src/.libs/libmesos-1.8.0.so)
	    7fa493b904c8 _ZN7process20AsyncExecutorProcess7executeIZNK5mesos8internal6master6Master4Http20processRequestsBatchEvEUlMNS5_15ReadOnlyHandlerEKFNS_4http8ResponseERKNS8_7RequestERKNS_5OwnedINS2_15ObjectApproversEEEESC_SH_E_SJ_SA_SF_Li0EEENSt9result_ofIFT_T0_T1_T2_EE4typeERKSM_SN_SO_SP_+0x88 (/home/bevers/src/mesos/worktrees/state-benchmarking/build-alexr/src/.libs/libmesos-1.8.0.so)
	    7fa493b9e937 _ZZN7process8dispatchINS_4http8ResponseENS_20AsyncExecutorProcessERKZNK5mesos8internal6master6Master4Http20processRequestsBatchEvEUlMNS7_15ReadOnlyHandlerEKFS2_RKNS1_7RequestERKNS_5OwnedINS4_15ObjectApproversEEEESC_SH_E_SJ_SA_SF_SM_RSJ_RSA_RSF_EENS_6FutureIT_EERKNS_3PIDIT0_EEMSU_FSR_T1_T2_T3_T4_EOT5_OT6_OT7_OT8_ENKUlSt10unique_ptrINS_7PromiseIS2_EESt14default_deleteIS1E_EEOSK_OSJ_OSA_OSF_PNS_11ProcessBaseEE_clES1H_S1I_S1J_S1K_S1L_S1N_+0x387 (/home/bevers/src/mesos/worktrees/state-benchmarking/build-alexr/src/.libs/libmesos-1.8.0.so)
	    7fa493b9eb09 _ZNO6lambda12CallableOnceIFvPN7process11ProcessBaseEEE10CallableFnINS_8internal7PartialIZNS1_8dispatchINS1_4http8ResponseENS1_20AsyncExecutorProcessERKZNK5mesos8internal6master6Master4Http20processRequestsBatchEvEUlMNSG_15ReadOnlyHandlerEKFSB_RKNSA_7RequestERKNS1_5OwnedINSD_15ObjectApproversEEEESL_SQ_E_SS_SJ_SO_SV_RSS_RSJ_RSO_EENS1_6FutureIT_EERKNS1_3PIDIT0_EEMS13_FS10_T1_T2_T3_T4_EOT5_OT6_OT7_OT8_EUlSt10unique_ptrINS1_7PromiseISB_EESt14default_deleteIS1N_EEOST_OSS_OSJ_OSO_S3_E_JS1Q_ST_SS_SJ_SO_St12_PlaceholderILi1EEEEEEclEOS3_+0x59 (/home/bevers/src/mesos/worktrees/state-benchmarking/build-alexr/src/.libs/libmesos-1.8.0.so)
	    7fa494cb80e2 _ZN7process11ProcessBase7consumeEONS_13DispatchEventE+0x32 (/home/bevers/src/mesos/worktrees/state-benchmarking/build-alexr/src/.libs/libmesos-1.8.0.so)
	    7fa494ccd332 _ZN7process14ProcessManager6resumeEPNS_11ProcessBaseE+0x492 (/home/bevers/src/mesos/worktrees/state-benchmarking/build-alexr/src/.libs/libmesos-1.8.0.so)
	    7fa494cd3606 _ZNSt6thread11_State_implINS_8_InvokerISt5tupleIJZN7process14ProcessManager12init_threadsEvEUlvE_EEEEE6_M_runEv+0x46 (/home/bevers/src/mesos/worktrees/state-benchmarking/build-alexr/src/.libs/libmesos-1.8.0.so)
	    7fa491e43733 [unknown] (/usr/lib/x86_64-linux-gnu/libstdc++.so.6.0.25)

__async_executor__(1)@127.0.1.1:5050 14787 182029.130857:       5000 cycles:uh: 
	    7fa494e36e2f _ZN6google8protobuf25EncodedDescriptorDatabase14FindFileByNameERKNSt7__cxx1112basic_stringIcSt11char_traitsIcESaIcEEEPNS0_19FileDescriptorProtoE+0x4f (/home/bevers/src/mesos/worktrees/state-benchmarking/build-alexr/src/.libs/libmesos-1.8.0.so)
	    7fa494e2b177 _ZNK6google8protobuf14DescriptorPool29TryFindFileInFallbackDatabaseERKNSt7__cxx1112basic_stringIcSt11char_traitsIcESaIcEEE+0x97 (/home/bevers/src/mesos/worktrees/state-benchmarking/build-alexr/src/.libs/libmesos-1.8.0.so)
	    7fa494e2b304 _ZNK6google8protobuf14DescriptorPool14FindFileByNameERKNSt7__cxx1112basic_stringIcSt11char_traitsIcESaIcEEE+0xe4 (/home/bevers/src/mesos/worktrees/state-benchmarking/build-alexr/src/.libs/libmesos-1.8.0.so)
	    7fa494e7e96c _ZN6google8protobuf8internal17AssignDescriptorsERKNSt7__cxx1112basic_stringIcSt11char_traitsIcESaIcEEEPKNS1_15MigrationSchemaEPKPKNS0_7MessageEPKjPNS0_14MessageFactoryEPNS0_8MetadataEPPKNS0_14EnumDescriptorEPPKNS0_17ServiceDescriptorE+0x5c (/home/bevers/src/mesos/worktrees/state-benchmarking/build-alexr/src/.libs/libmesos-1.8.0.so)
	    7fa494561c5d _ZN30protobuf_mesos_2fmesos_2eproto26protobuf_AssignDescriptorsEv+0x6d (/home/bevers/src/mesos/worktrees/state-benchmarking/build-alexr/src/.libs/libmesos-1.8.0.so)
	    7fa494df7da8 _ZN6google8protobuf18GoogleOnceInitImplEPlPNS0_7ClosureE+0x58 (/home/bevers/src/mesos/worktrees/state-benchmarking/build-alexr/src/.libs/libmesos-1.8.0.so)
	    7fa4945607a8 _ZN30protobuf_mesos_2fmesos_2eproto30protobuf_AssignDescriptorsOnceEv+0x58 (/home/bevers/src/mesos/worktrees/state-benchmarking/build-alexr/src/.libs/libmesos-1.8.0.so)
	    7fa494561db9 _ZN5mesos37MasterInfo_Capability_Type_descriptorEv+0x9 (/home/bevers/src/mesos/worktrees/state-benchmarking/build-alexr/src/.libs/libmesos-1.8.0.so)
	    7fa4939fd753 _ZN5mesos4jsonEPN4JSON12StringWriterERKNS_21MasterInfo_CapabilityE+0x13 (/home/bevers/src/mesos/worktrees/state-benchmarking/build-alexr/src/.libs/libmesos-1.8.0.so)
	    7fa493cf8025 _ZZNK5mesos8internal6master6Master15ReadOnlyHandler5stateERKN7process4http7RequestERKNS4_5OwnedINS_15ObjectApproversEEEENKUlPN4JSON12ObjectWriterEE_clESG_+0x5e5 (/home/bevers/src/mesos/worktrees/state-benchmarking/build-alexr/src/.libs/libmesos-1.8.0.so)
	    7fa493cf99e4 _ZNSt17_Function_handlerIFvPN9rapidjson6WriterINS0_19GenericStringBufferINS0_4UTF8IcEENS0_12CrtAllocatorEEES4_S4_S5_Lj0EEEEZN4JSON8internal7jsonifyIZNK5mesos8internal6master6Master15ReadOnlyHandler5stateERKN7process4http7RequestERKNSI_5OwnedINSD_15ObjectApproversEEEEUlPNSA_12ObjectWriterEE_vEESt8functionIS9_ERKT_NSB_6PreferEEUlS8_E_E9_M_invokeERKSt9_Any_dataOS8_+0x44 (/home/bevers/src/mesos/worktrees/state-benchmarking/build-alexr/src/.libs/libmesos-1.8.0.so)
	    7fa493a0c402 _ZNO4JSON5ProxycvNSt7__cxx1112basic_stringIcSt11char_traitsIcESaIcEEEB5cxx11Ev+0xc2 (/home/bevers/src/mesos/worktrees/state-benchmarking/build-alexr/src/.libs/libmesos-1.8.0.so)
	    7fa494c159c1 _ZN7process4http2OKC2EON4JSON5ProxyERK6OptionINSt7__cxx1112basic_stringIcSt11char_traitsIcESaIcEEEE+0x151 (/home/bevers/src/mesos/worktrees/state-benchmarking/build-alexr/src/.libs/libmesos-1.8.0.so)
	    7fa493ceaa0f _ZNK5mesos8internal6master6Master15ReadOnlyHandler5stateERKN7process4http7RequestERKNS4_5OwnedINS_15ObjectApproversEEE+0xaf (/home/bevers/src/mesos/worktrees/state-benchmarking/build-alexr/src/.libs/libmesos-1.8.0.so)
	    7fa493b904c8 _ZN7process20AsyncExecutorProcess7executeIZNK5mesos8internal6master6Master4Http20processRequestsBatchEvEUlMNS5_15ReadOnlyHandlerEKFNS_4http8ResponseERKNS8_7RequestERKNS_5OwnedINS2_15ObjectApproversEEEESC_SH_E_SJ_SA_SF_Li0EEENSt9result_ofIFT_T0_T1_T2_EE4typeERKSM_SN_SO_SP_+0x88 (/home/bevers/src/mesos/worktrees/state-benchmarking/build-alexr/src/.libs/libmesos-1.8.0.so)
	    7fa493b9e937 _ZZN7process8dispatchINS_4http8ResponseENS_20AsyncExecutorProcessERKZNK5mesos8internal6master6Master4Http20processRequestsBatchEvEUlMNS7_15ReadOnlyHandlerEKFS2_RKNS1_7RequestERKNS_5OwnedINS4_15ObjectApproversEEEESC_SH_E_SJ_SA_SF_SM_RSJ_RSA_RSF_EENS_6FutureIT_EERKNS_3PIDIT0_EEMSU_FSR_T1_T2_T3_T4_EOT5_OT6_OT7_OT8_ENKUlSt10unique_ptrINS_7PromiseIS2_EESt14default_deleteIS1E_EEOSK_OSJ_OSA_OSF_PNS_11ProcessBaseEE_clES1H_S1I_S1J_S1K_S1L_S1N_+0x387 (/home/bevers/src/mesos/worktrees/state-benchmarking/build-alexr/src/.libs/libmesos-1.8.0.so)
	    7fa493b9eb09 _ZNO6lambda12CallableOnceIFvPN7process11ProcessBaseEEE10CallableFnINS_8internal7PartialIZNS1_8dispatchINS1_4http8ResponseENS1_20AsyncExecutorProcessERKZNK5mesos8internal6master6Master4Http20processRequestsBatchEvEUlMNSG_15ReadOnlyHandlerEKFSB_RKNSA_7RequestERKNS1_5OwnedINSD_15ObjectApproversEEEESL_SQ_E_SS_SJ_SO_SV_RSS_RSJ_RSO_EENS1_6FutureIT_EERKNS1_3PIDIT0_EEMS13_FS10_T1_T2_T3_T4_EOT5_OT6_OT7_OT8_EUlSt10unique_ptrINS1_7PromiseISB_EESt14default_deleteIS1N_EEOST_OSS_OSJ_OSO_S3_E_JS1Q_ST_SS_SJ_SO_St12_PlaceholderILi1EEEEEEclEOS3_+0x59 (/home/bevers/src/mesos/worktrees/state-benchmarking/build-alexr/src/.libs/libmesos-1.8.0.so)
	    7fa494cb80e2 _ZN7process11ProcessBase7consumeEONS_13DispatchEventE+0x32 (/home/bevers/src/mesos/worktrees/state-benchmarking/build-alexr/src/.libs/libmesos-1.8.0.so)
	    7fa494ccd332 _ZN7process14ProcessManager6resumeEPNS_11ProcessBaseE+0x492 (/home/bevers/src/mesos/worktrees/state-benchmarking/build-alexr/src/.libs/libmesos-1.8.0.so)
	    7fa494cd3606 _ZNSt6thread11_State_implINS_8_InvokerISt5tupleIJZN7process14ProcessManager12init_threadsEvEUlvE_EEEEE6_M_runEv+0x46 (/home/bevers/src/mesos/worktrees/state-benchmarking/build-alexr/src/.libs/libmesos-1.8.0.so)
	    7fa491e43733 [unknown] (/usr/lib/x86_64-linux-gnu/libstdc++.so.6.0.25)

__async_executor__(1)@127.0.1.1:5050 14787 182029.130860:       5000 cycles:uh: 
	    7fa493916440 _ZN6google8protobuf8internal20RepeatedPtrFieldBase5ClearINS0_16RepeatedPtrFieldINS0_19EnumDescriptorProtoEE11TypeHandlerEEEvv@plt+0x0 (/home/bevers/src/mesos/worktrees/state-benchmarking/build-alexr/src/.libs/libmesos-1.8.0.so)
	    7fa494e0162a _ZN6google8protobuf11MessageLite14ParseFromArrayEPKvi+0xba (/home/bevers/src/mesos/worktrees/state-benchmarking/build-alexr/src/.libs/libmesos-1.8.0.so)
	    7fa494e2b177 _ZNK6google8protobuf14DescriptorPool29TryFindFileInFallbackDatabaseERKNSt7__cxx1112basic_stringIcSt11char_traitsIcESaIcEEE+0x97 (/home/bevers/src/mesos/worktrees/state-benchmarking/build-alexr/src/.libs/libmesos-1.8.0.so)
	    7fa494e2b304 _ZNK6google8protobuf14DescriptorPool14FindFileByNameERKNSt7__cxx1112basic_stringIcSt11char_traitsIcESaIcEEE+0xe4 (/home/bevers/src/mesos/worktrees/state-benchmarking/build-alexr/src/.libs/libmesos-1.8.0.so)
	    7fa494e7e96c _ZN6google8protobuf8internal17AssignDescriptorsERKNSt7__cxx1112basic_stringIcSt11char_traitsIcESaIcEEEPKNS1_15MigrationSchemaEPKPKNS0_7MessageEPKjPNS0_14MessageFactoryEPNS0_8MetadataEPPKNS0_14EnumDescriptorEPPKNS0_17ServiceDescriptorE+0x5c (/home/bevers/src/mesos/worktrees/state-benchmarking/build-alexr/src/.libs/libmesos-1.8.0.so)
	    7fa494561c5d _ZN30protobuf_mesos_2fmesos_2eproto26protobuf_AssignDescriptorsEv+0x6d (/home/bevers/src/mesos/worktrees/state-benchmarking/build-alexr/src/.libs/libmesos-1.8.0.so)
	    7fa494df7da8 _ZN6google8protobuf18GoogleOnceInitImplEPlPNS0_7ClosureE+0x58 (/home/bevers/src/mesos/worktrees/state-benchmarking/build-alexr/src/.libs/libmesos-1.8.0.so)
	    7fa4945607a8 _ZN30protobuf_mesos_2fmesos_2eproto30protobuf_AssignDescriptorsOnceEv+0x58 (/home/bevers/src/mesos/worktrees/state-benchmarking/build-alexr/src/.libs/libmesos-1.8.0.so)
	    7fa494561db9 _ZN5mesos37MasterInfo_Capability_Type_descriptorEv+0x9 (/home/bevers/src/mesos/worktrees/state-benchmarking/build-alexr/src/.libs/libmesos-1.8.0.so)
	    7fa4939fd753 _ZN5mesos4jsonEPN4JSON12StringWriterERKNS_21MasterInfo_CapabilityE+0x13 (/home/bevers/src/mesos/worktrees/state-benchmarking/build-alexr/src/.libs/libmesos-1.8.0.so)
	    7fa493cf8025 _ZZNK5mesos8internal6master6Master15ReadOnlyHandler5stateERKN7process4http7RequestERKNS4_5OwnedINS_15ObjectApproversEEEENKUlPN4JSON12ObjectWriterEE_clESG_+0x5e5 (/home/bevers/src/mesos/worktrees/state-benchmarking/build-alexr/src/.libs/libmesos-1.8.0.so)
	    7fa493cf99e4 _ZNSt17_Function_handlerIFvPN9rapidjson6WriterINS0_19GenericStringBufferINS0_4UTF8IcEENS0_12CrtAllocatorEEES4_S4_S5_Lj0EEEEZN4JSON8internal7jsonifyIZNK5mesos8internal6master6Master15ReadOnlyHandler5stateERKN7process4http7RequestERKNSI_5OwnedINSD_15ObjectApproversEEEEUlPNSA_12ObjectWriterEE_vEESt8functionIS9_ERKT_NSB_6PreferEEUlS8_E_E9_M_invokeERKSt9_Any_dataOS8_+0x44 (/home/bevers/src/mesos/worktrees/state-benchmarking/build-alexr/src/.libs/libmesos-1.8.0.so)
	    7fa493a0c402 _ZNO4JSON5ProxycvNSt7__cxx1112basic_stringIcSt11char_traitsIcESaIcEEEB5cxx11Ev+0xc2 (/home/bevers/src/mesos/worktrees/state-benchmarking/build-alexr/src/.libs/libmesos-1.8.0.so)
	    7fa494c159c1 _ZN7process4http2OKC2EON4JSON5ProxyERK6OptionINSt7__cxx1112basic_stringIcSt11char_traitsIcESaIcEEEE+0x151 (/home/bevers/src/mesos/worktrees/state-benchmarking/build-alexr/src/.libs/libmesos-1.8.0.so)
	    7fa493ceaa0f _ZNK5mesos8internal6master6Master15ReadOnlyHandler5stateERKN7process4http7RequestERKNS4_5OwnedINS_15ObjectApproversEEE+0xaf (/home/bevers/src/mesos/worktrees/state-benchmarking/build-alexr/src/.libs/libmesos-1.8.0.so)
	    7fa493b904c8 _ZN7process20AsyncExecutorProcess7executeIZNK5mesos8internal6master6Master4Http20processRequestsBatchEvEUlMNS5_15ReadOnlyHandlerEKFNS_4http8ResponseERKNS8_7RequestERKNS_5OwnedINS2_15ObjectApproversEEEESC_SH_E_SJ_SA_SF_Li0EEENSt9result_ofIFT_T0_T1_T2_EE4typeERKSM_SN_SO_SP_+0x88 (/home/bevers/src/mesos/worktrees/state-benchmarking/build-alexr/src/.libs/libmesos-1.8.0.so)
	    7fa493b9e937 _ZZN7process8dispatchINS_4http8ResponseENS_20AsyncExecutorProcessERKZNK5mesos8internal6master6Master4Http20processRequestsBatchEvEUlMNS7_15ReadOnlyHandlerEKFS2_RKNS1_7RequestERKNS_5OwnedINS4_15ObjectApproversEEEESC_SH_E_SJ_SA_SF_SM_RSJ_RSA_RSF_EENS_6FutureIT_EERKNS_3PIDIT0_EEMSU_FSR_T1_T2_T3_T4_EOT5_OT6_OT7_OT8_ENKUlSt10unique_ptrINS_7PromiseIS2_EESt14default_deleteIS1E_EEOSK_OSJ_OSA_OSF_PNS_11ProcessBaseEE_clES1H_S1I_S1J_S1K_S1L_S1N_+0x387 (/home/bevers/src/mesos/worktrees/state-benchmarking/build-alexr/src/.libs/libmesos-1.8.0.so)
	    7fa493b9eb09 _ZNO6lambda12CallableOnceIFvPN7process11ProcessBaseEEE10CallableFnINS_8internal7PartialIZNS1_8dispatchINS1_4http8ResponseENS1_20AsyncExecutorProcessERKZNK5mesos8internal6master6Master4Http20processRequestsBatchEvEUlMNSG_15ReadOnlyHandlerEKFSB_RKNSA_7RequestERKNS1_5OwnedINSD_15ObjectApproversEEEESL_SQ_E_SS_SJ_SO_SV_RSS_RSJ_RSO_EENS1_6FutureIT_EERKNS1_3PIDIT0_EEMS13_FS10_T1_T2_T3_T4_EOT5_OT6_OT7_OT8_EUlSt10unique_ptrINS1_7PromiseISB_EESt14default_deleteIS1N_EEOST_OSS_OSJ_OSO_S3_E_JS1Q_ST_SS_SJ_SO_St12_PlaceholderILi1EEEEEEclEOS3_+0x59 (/home/bevers/src/mesos/worktrees/state-benchmarking/build-alexr/src/.libs/libmesos-1.8.0.so)
	    7fa494cb80e2 _ZN7process11ProcessBase7consumeEONS_13DispatchEventE+0x32 (/home/bevers/src/mesos/worktrees/state-benchmarking/build-alexr/src/.libs/libmesos-1.8.0.so)
	    7fa494ccd332 _ZN7process14ProcessManager6resumeEPNS_11ProcessBaseE+0x492 (/home/bevers/src/mesos/worktrees/state-benchmarking/build-alexr/src/.libs/libmesos-1.8.0.so)
	    7fa494cd3606 _ZNSt6thread11_State_implINS_8_InvokerISt5tupleIJZN7process14ProcessManager12init_threadsEvEUlvE_EEEEE6_M_runEv+0x46 (/home/bevers/src/mesos/worktrees/state-benchmarking/build-alexr/src/.libs/libmesos-1.8.0.so)
	    7fa491e43733 [unknown] (/usr/lib/x86_64-linux-gnu/libstdc++.so.6.0.25)

__async_executor__(1)@127.0.1.1:5050 14787 182029.130864:       5000 cycles:uh: 
	    7fa494e584d3 _ZN6google8protobuf19FileDescriptorProto27MergePartialFromCodedStreamEPNS0_2io16CodedInputStreamE+0x643 (/home/bevers/src/mesos/worktrees/state-benchmarking/build-alexr/src/.libs/libmesos-1.8.0.so)
	    7fa494e01636 _ZN6google8protobuf11MessageLite14ParseFromArrayEPKvi+0xc6 (/home/bevers/src/mesos/worktrees/state-benchmarking/build-alexr/src/.libs/libmesos-1.8.0.so)
	    7fa494e2b177 _ZNK6google8protobuf14DescriptorPool29TryFindFileInFallbackDatabaseERKNSt7__cxx1112basic_stringIcSt11char_traitsIcESaIcEEE+0x97 (/home/bevers/src/mesos/worktrees/state-benchmarking/build-alexr/src/.libs/libmesos-1.8.0.so)
	    7fa494e2b304 _ZNK6google8protobuf14DescriptorPool14FindFileByNameERKNSt7__cxx1112basic_stringIcSt11char_traitsIcESaIcEEE+0xe4 (/home/bevers/src/mesos/worktrees/state-benchmarking/build-alexr/src/.libs/libmesos-1.8.0.so)
	    7fa494e7e96c _ZN6google8protobuf8internal17AssignDescriptorsERKNSt7__cxx1112basic_stringIcSt11char_traitsIcESaIcEEEPKNS1_15MigrationSchemaEPKPKNS0_7MessageEPKjPNS0_14MessageFactoryEPNS0_8MetadataEPPKNS0_14EnumDescriptorEPPKNS0_17ServiceDescriptorE+0x5c (/home/bevers/src/mesos/worktrees/state-benchmarking/build-alexr/src/.libs/libmesos-1.8.0.so)
	    7fa494561c5d _ZN30protobuf_mesos_2fmesos_2eproto26protobuf_AssignDescriptorsEv+0x6d (/home/bevers/src/mesos/worktrees/state-benchmarking/build-alexr/src/.libs/libmesos-1.8.0.so)
	    7fa494df7da8 _ZN6google8protobuf18GoogleOnceInitImplEPlPNS0_7ClosureE+0x58 (/home/bevers/src/mesos/worktrees/state-benchmarking/build-alexr/src/.libs/libmesos-1.8.0.so)
	    7fa4945607a8 _ZN30protobuf_mesos_2fmesos_2eproto30protobuf_AssignDescriptorsOnceEv+0x58 (/home/bevers/src/mesos/worktrees/state-benchmarking/build-alexr/src/.libs/libmesos-1.8.0.so)
	    7fa494561db9 _ZN5mesos37MasterInfo_Capability_Type_descriptorEv+0x9 (/home/bevers/src/mesos/worktrees/state-benchmarking/build-alexr/src/.libs/libmesos-1.8.0.so)
	    7fa4939fd753 _ZN5mesos4jsonEPN4JSON12StringWriterERKNS_21MasterInfo_CapabilityE+0x13 (/home/bevers/src/mesos/worktrees/state-benchmarking/build-alexr/src/.libs/libmesos-1.8.0.so)
	    7fa493cf8025 _ZZNK5mesos8internal6master6Master15ReadOnlyHandler5stateERKN7process4http7RequestERKNS4_5OwnedINS_15ObjectApproversEEEENKUlPN4JSON12ObjectWriterEE_clESG_+0x5e5 (/home/bevers/src/mesos/worktrees/state-benchmarking/build-alexr/src/.libs/libmesos-1.8.0.so)
	    7fa493cf99e4 _ZNSt17_Function_handlerIFvPN9rapidjson6WriterINS0_19GenericStringBufferINS0_4UTF8IcEENS0_12CrtAllocatorEEES4_S4_S5_Lj0EEEEZN4JSON8internal7jsonifyIZNK5mesos8internal6master6Master15ReadOnlyHandler5stateERKN7process4http7RequestERKNSI_5OwnedINSD_15ObjectApproversEEEEUlPNSA_12ObjectWriterEE_vEESt8functionIS9_ERKT_NSB_6PreferEEUlS8_E_E9_M_invokeERKSt9_Any_dataOS8_+0x44 (/home/bevers/src/mesos/worktrees/state-benchmarking/build-alexr/src/.libs/libmesos-1.8.0.so)
	    7fa493a0c402 _ZNO4JSON5ProxycvNSt7__cxx1112basic_stringIcSt11char_traitsIcESaIcEEEB5cxx11Ev+0xc2 (/home/bevers/src/mesos/worktrees/state-benchmarking/build-alexr/src/.libs/libmesos-1.8.0.so)
	    7fa494c159c1 _ZN7process4http2OKC2EON4JSON5ProxyERK6OptionINSt7__cxx1112basic_stringIcSt11char_traitsIcESaIcEEEE+0x151 (/home/bevers/src/mesos/worktrees/state-benchmarking/build-alexr/src/.libs/libmesos-1.8.0.so)
	    7fa493ceaa0f _ZNK5mesos8internal6master6Master15ReadOnlyHandler5stateERKN7process4http7RequestERKNS4_5OwnedINS_15ObjectApproversEEE+0xaf (/home/bevers/src/mesos/worktrees/state-benchmarking/build-alexr/src/.libs/libmesos-1.8.0.so)
	    7fa493b904c8 _ZN7process20AsyncExecutorProcess7executeIZNK5mesos8internal6master6Master4Http20processRequestsBatchEvEUlMNS5_15ReadOnlyHandlerEKFNS_4http8ResponseERKNS8_7RequestERKNS_5OwnedINS2_15ObjectApproversEEEESC_SH_E_SJ_SA_SF_Li0EEENSt9result_ofIFT_T0_T1_T2_EE4typeERKSM_SN_SO_SP_+0x88 (/home/bevers/src/mesos/worktrees/state-benchmarking/build-alexr/src/.libs/libmesos-1.8.0.so)
	    7fa493b9e937 _ZZN7process8dispatchINS_4http8ResponseENS_20AsyncExecutorProcessERKZNK5mesos8internal6master6Master4Http20processRequestsBatchEvEUlMNS7_15ReadOnlyHandlerEKFS2_RKNS1_7RequestERKNS_5OwnedINS4_15ObjectApproversEEEESC_SH_E_SJ_SA_SF_SM_RSJ_RSA_RSF_EENS_6FutureIT_EERKNS_3PIDIT0_EEMSU_FSR_T1_T2_T3_T4_EOT5_OT6_OT7_OT8_ENKUlSt10unique_ptrINS_7PromiseIS2_EESt14default_deleteIS1E_EEOSK_OSJ_OSA_OSF_PNS_11ProcessBaseEE_clES1H_S1I_S1J_S1K_S1L_S1N_+0x387 (/home/bevers/src/mesos/worktrees/state-benchmarking/build-alexr/src/.libs/libmesos-1.8.0.so)
	    7fa493b9eb09 _ZNO6lambda12CallableOnceIFvPN7process11ProcessBaseEEE10CallableFnINS_8internal7PartialIZNS1_8dispatchINS1_4http8ResponseENS1_20AsyncExecutorProcessERKZNK5mesos8internal6master6Master4Http20processRequestsBatchEvEUlMNSG_15ReadOnlyHandlerEKFSB_RKNSA_7RequestERKNS1_5OwnedINSD_15ObjectApproversEEEESL_SQ_E_SS_SJ_SO_SV_RSS_RSJ_RSO_EENS1_6FutureIT_EERKNS1_3PIDIT0_EEMS13_FS10_T1_T2_T3_T4_EOT5_OT6_OT7_OT8_EUlSt10unique_ptrINS1_7PromiseISB_EESt14default_deleteIS1N_EEOST_OSS_OSJ_OSO_S3_E_JS1Q_ST_SS_SJ_SO_St12_PlaceholderILi1EEEEEEclEOS3_+0x59 (/home/bevers/src/mesos/worktrees/state-benchmarking/build-alexr/src/.libs/libmesos-1.8.0.so)
	    7fa494cb80e2 _ZN7process11ProcessBase7consumeEONS_13DispatchEventE+0x32 (/home/bevers/src/mesos/worktrees/state-benchmarking/build-alexr/src/.libs/libmesos-1.8.0.so)
	    7fa494ccd332 _ZN7process14ProcessManager6resumeEPNS_11ProcessBaseE+0x492 (/home/bevers/src/mesos/worktrees/state-benchmarking/build-alexr/src/.libs/libmesos-1.8.0.so)
	    7fa494cd3606 _ZNSt6thread11_State_implINS_8_InvokerISt5tupleIJZN7process14ProcessManager12init_threadsEvEUlvE_EEEEE6_M_runEv+0x46 (/home/bevers/src/mesos/worktrees/state-benchmarking/build-alexr/src/.libs/libmesos-1.8.0.so)
	    7fa491e43733 [unknown] (/usr/lib/x86_64-linux-gnu/libstdc++.so.6.0.25)

__async_executor__(1)@127.0.1.1:5050 14787 182029.130867:       5000 cycles:uh: 
	    7fa494eca3c0 _ZN6google8protobuf8internal23IsStructurallyValidUTF8EPKci+0x0 (/home/bevers/src/mesos/worktrees/state-benchmarking/build-alexr/src/.libs/libmesos-1.8.0.so)
	    7fa494e583c9 _ZN6google8protobuf19FileDescriptorProto27MergePartialFromCodedStreamEPNS0_2io16CodedInputStreamE+0x539 (/home/bevers/src/mesos/worktrees/state-benchmarking/build-alexr/src/.libs/libmesos-1.8.0.so)
	    7fa494e01636 _ZN6google8protobuf11MessageLite14ParseFromArrayEPKvi+0xc6 (/home/bevers/src/mesos/worktrees/state-benchmarking/build-alexr/src/.libs/libmesos-1.8.0.so)
	    7fa494e2b177 _ZNK6google8protobuf14DescriptorPool29TryFindFileInFallbackDatabaseERKNSt7__cxx1112basic_stringIcSt11char_traitsIcESaIcEEE+0x97 (/home/bevers/src/mesos/worktrees/state-benchmarking/build-alexr/src/.libs/libmesos-1.8.0.so)
	    7fa494e2b304 _ZNK6google8protobuf14DescriptorPool14FindFileByNameERKNSt7__cxx1112basic_stringIcSt11char_traitsIcESaIcEEE+0xe4 (/home/bevers/src/mesos/worktrees/state-benchmarking/build-alexr/src/.libs/libmesos-1.8.0.so)
	    7fa494e7e96c _ZN6google8protobuf8internal17AssignDescriptorsERKNSt7__cxx1112basic_stringIcSt11char_traitsIcESaIcEEEPKNS1_15MigrationSchemaEPKPKNS0_7MessageEPKjPNS0_14MessageFactoryEPNS0_8MetadataEPPKNS0_14EnumDescriptorEPPKNS0_17ServiceDescriptorE+0x5c (/home/bevers/src/mesos/worktrees/state-benchmarking/build-alexr/src/.libs/libmesos-1.8.0.so)
	    7fa494561c5d _ZN30protobuf_mesos_2fmesos_2eproto26protobuf_AssignDescriptorsEv+0x6d (/home/bevers/src/mesos/worktrees/state-benchmarking/build-alexr/src/.libs/libmesos-1.8.0.so)
	    7fa494df7da8 _ZN6google8protobuf18GoogleOnceInitImplEPlPNS0_7ClosureE+0x58 (/home/bevers/src/mesos/worktrees/state-benchmarking/build-alexr/src/.libs/libmesos-1.8.0.so)
	    7fa4945607a8 _ZN30protobuf_mesos_2fmesos_2eproto30protobuf_AssignDescriptorsOnceEv+0x58 (/home/bevers/src/mesos/worktrees/state-benchmarking/build-alexr/src/.libs/libmesos-1.8.0.so)
	    7fa494561db9 _ZN5mesos37MasterInfo_Capability_Type_descriptorEv+0x9 (/home/bevers/src/mesos/worktrees/state-benchmarking/build-alexr/src/.libs/libmesos-1.8.0.so)
	    7fa4939fd753 _ZN5mesos4jsonEPN4JSON12StringWriterERKNS_21MasterInfo_CapabilityE+0x13 (/home/bevers/src/mesos/worktrees/state-benchmarking/build-alexr/src/.libs/libmesos-1.8.0.so)
	    7fa493cf8025 _ZZNK5mesos8internal6master6Master15ReadOnlyHandler5stateERKN7process4http7RequestERKNS4_5OwnedINS_15ObjectApproversEEEENKUlPN4JSON12ObjectWriterEE_clESG_+0x5e5 (/home/bevers/src/mesos/worktrees/state-benchmarking/build-alexr/src/.libs/libmesos-1.8.0.so)
	    7fa493cf99e4 _ZNSt17_Function_handlerIFvPN9rapidjson6WriterINS0_19GenericStringBufferINS0_4UTF8IcEENS0_12CrtAllocatorEEES4_S4_S5_Lj0EEEEZN4JSON8internal7jsonifyIZNK5mesos8internal6master6Master15ReadOnlyHandler5stateERKN7process4http7RequestERKNSI_5OwnedINSD_15ObjectApproversEEEEUlPNSA_12ObjectWriterEE_vEESt8functionIS9_ERKT_NSB_6PreferEEUlS8_E_E9_M_invokeERKSt9_Any_dataOS8_+0x44 (/home/bevers/src/mesos/worktrees/state-benchmarking/build-alexr/src/.libs/libmesos-1.8.0.so)
	    7fa493a0c402 _ZNO4JSON5ProxycvNSt7__cxx1112basic_stringIcSt11char_traitsIcESaIcEEEB5cxx11Ev+0xc2 (/home/bevers/src/mesos/worktrees/state-benchmarking/build-alexr/src/.libs/libmesos-1.8.0.so)
	    7fa494c159c1 _ZN7process4http2OKC2EON4JSON5ProxyERK6OptionINSt7__cxx1112basic_stringIcSt11char_traitsIcESaIcEEEE+0x151 (/home/bevers/src/mesos/worktrees/state-benchmarking/build-alexr/src/.libs/libmesos-1.8.0.so)
	    7fa493ceaa0f _ZNK5mesos8internal6master6Master15ReadOnlyHandler5stateERKN7process4http7RequestERKNS4_5OwnedINS_15ObjectApproversEEE+0xaf (/home/bevers/src/mesos/worktrees/state-benchmarking/build-alexr/src/.libs/libmesos-1.8.0.so)
	    7fa493b904c8 _ZN7process20AsyncExecutorProcess7executeIZNK5mesos8internal6master6Master4Http20processRequestsBatchEvEUlMNS5_15ReadOnlyHandlerEKFNS_4http8ResponseERKNS8_7RequestERKNS_5OwnedINS2_15ObjectApproversEEEESC_SH_E_SJ_SA_SF_Li0EEENSt9result_ofIFT_T0_T1_T2_EE4typeERKSM_SN_SO_SP_+0x88 (/home/bevers/src/mesos/worktrees/state-benchmarking/build-alexr/src/.libs/libmesos-1.8.0.so)
	    7fa493b9e937 _ZZN7process8dispatchINS_4http8ResponseENS_20AsyncExecutorProcessERKZNK5mesos8internal6master6Master4Http20processRequestsBatchEvEUlMNS7_15ReadOnlyHandlerEKFS2_RKNS1_7RequestERKNS_5OwnedINS4_15ObjectApproversEEEESC_SH_E_SJ_SA_SF_SM_RSJ_RSA_RSF_EENS_6FutureIT_EERKNS_3PIDIT0_EEMSU_FSR_T1_T2_T3_T4_EOT5_OT6_OT7_OT8_ENKUlSt10unique_ptrINS_7PromiseIS2_EESt14default_deleteIS1E_EEOSK_OSJ_OSA_OSF_PNS_11ProcessBaseEE_clES1H_S1I_S1J_S1K_S1L_S1N_+0x387 (/home/bevers/src/mesos/worktrees/state-benchmarking/build-alexr/src/.libs/libmesos-1.8.0.so)
	    7fa493b9eb09 _ZNO6lambda12CallableOnceIFvPN7process11ProcessBaseEEE10CallableFnINS_8internal7PartialIZNS1_8dispatchINS1_4http8ResponseENS1_20AsyncExecutorProcessERKZNK5mesos8internal6master6Master4Http20processRequestsBatchEvEUlMNSG_15ReadOnlyHandlerEKFSB_RKNSA_7RequestERKNS1_5OwnedINSD_15ObjectApproversEEEESL_SQ_E_SS_SJ_SO_SV_RSS_RSJ_RSO_EENS1_6FutureIT_EERKNS1_3PIDIT0_EEMS13_FS10_T1_T2_T3_T4_EOT5_OT6_OT7_OT8_EUlSt10unique_ptrINS1_7PromiseISB_EESt14default_deleteIS1N_EEOST_OSS_OSJ_OSO_S3_E_JS1Q_ST_SS_SJ_SO_St12_PlaceholderILi1EEEEEEclEOS3_+0x59 (/home/bevers/src/mesos/worktrees/state-benchmarking/build-alexr/src/.libs/libmesos-1.8.0.so)
	    7fa494cb80e2 _ZN7process11ProcessBase7consumeEONS_13DispatchEventE+0x32 (/home/bevers/src/mesos/worktrees/state-benchmarking/build-alexr/src/.libs/libmesos-1.8.0.so)
	    7fa494ccd332 _ZN7process14ProcessManager6resumeEPNS_11ProcessBaseE+0x492 (/home/bevers/src/mesos/worktrees/state-benchmarking/build-alexr/src/.libs/libmesos-1.8.0.so)
	    7fa494cd3606 _ZNSt6thread11_State_implINS_8_InvokerISt5tupleIJZN7process14ProcessManager12init_threadsEvEUlvE_EEEEE6_M_runEv+0x46 (/home/bevers/src/mesos/worktrees/state-benchmarking/build-alexr/src/.libs/libmesos-1.8.0.so)
	    7fa491e43733 [unknown] (/usr/lib/x86_64-linux-gnu/libstdc++.so.6.0.25)

__async_executor__(1)@127.0.1.1:5050 14787 182029.130871:       5000 cycles:uh: 
	    7fa49180c20a malloc+0x19a (/lib/x86_64-linux-gnu/libc-2.27.so)

__async_executor__(1)@127.0.1.1:5050 14787 182029.130873:       5000 cycles:uh: 
	    7fa494e050e0 _ZN6google8protobuf2io16CodedInputStream35IncrementRecursionDepthAndPushLimitEi+0x0 (/home/bevers/src/mesos/worktrees/state-benchmarking/build-alexr/src/.libs/libmesos-1.8.0.so)
	    7fa494e5814b _ZN6google8protobuf19FileDescriptorProto27MergePartialFromCodedStreamEPNS0_2io16CodedInputStreamE+0x2bb (/home/bevers/src/mesos/worktrees/state-benchmarking/build-alexr/src/.libs/libmesos-1.8.0.so)
	    7fa494e01636 _ZN6google8protobuf11MessageLite14ParseFromArrayEPKvi+0xc6 (/home/bevers/src/mesos/worktrees/state-benchmarking/build-alexr/src/.libs/libmesos-1.8.0.so)
	    7fa494e2b177 _ZNK6google8protobuf14DescriptorPool29TryFindFileInFallbackDatabaseERKNSt7__cxx1112basic_stringIcSt11char_traitsIcESaIcEEE+0x97 (/home/bevers/src/mesos/worktrees/state-benchmarking/build-alexr/src/.libs/libmesos-1.8.0.so)
	    7fa494e2b304 _ZNK6google8protobuf14DescriptorPool14FindFileByNameERKNSt7__cxx1112basic_stringIcSt11char_traitsIcESaIcEEE+0xe4 (/home/bevers/src/mesos/worktrees/state-benchmarking/build-alexr/src/.libs/libmesos-1.8.0.so)
	    7fa494e7e96c _ZN6google8protobuf8internal17AssignDescriptorsERKNSt7__cxx1112basic_stringIcSt11char_traitsIcESaIcEEEPKNS1_15MigrationSchemaEPKPKNS0_7MessageEPKjPNS0_14MessageFactoryEPNS0_8MetadataEPPKNS0_14EnumDescriptorEPPKNS0_17ServiceDescriptorE+0x5c (/home/bevers/src/mesos/worktrees/state-benchmarking/build-alexr/src/.libs/libmesos-1.8.0.so)
	    7fa494561c5d _ZN30protobuf_mesos_2fmesos_2eproto26protobuf_AssignDescriptorsEv+0x6d (/home/bevers/src/mesos/worktrees/state-benchmarking/build-alexr/src/.libs/libmesos-1.8.0.so)
	    7fa494df7da8 _ZN6google8protobuf18GoogleOnceInitImplEPlPNS0_7ClosureE+0x58 (/home/bevers/src/mesos/worktrees/state-benchmarking/build-alexr/src/.libs/libmesos-1.8.0.so)
	    7fa4945607a8 _ZN30protobuf_mesos_2fmesos_2eproto30protobuf_AssignDescriptorsOnceEv+0x58 (/home/bevers/src/mesos/worktrees/state-benchmarking/build-alexr/src/.libs/libmesos-1.8.0.so)
	    7fa494561db9 _ZN5mesos37MasterInfo_Capability_Type_descriptorEv+0x9 (/home/bevers/src/mesos/worktrees/state-benchmarking/build-alexr/src/.libs/libmesos-1.8.0.so)
	    7fa4939fd753 _ZN5mesos4jsonEPN4JSON12StringWriterERKNS_21MasterInfo_CapabilityE+0x13 (/home/bevers/src/mesos/worktrees/state-benchmarking/build-alexr/src/.libs/libmesos-1.8.0.so)
	    7fa493cf8025 _ZZNK5mesos8internal6master6Master15ReadOnlyHandler5stateERKN7process4http7RequestERKNS4_5OwnedINS_15ObjectApproversEEEENKUlPN4JSON12ObjectWriterEE_clESG_+0x5e5 (/home/bevers/src/mesos/worktrees/state-benchmarking/build-alexr/src/.libs/libmesos-1.8.0.so)
	    7fa493cf99e4 _ZNSt17_Function_handlerIFvPN9rapidjson6WriterINS0_19GenericStringBufferINS0_4UTF8IcEENS0_12CrtAllocatorEEES4_S4_S5_Lj0EEEEZN4JSON8internal7jsonifyIZNK5mesos8internal6master6Master15ReadOnlyHandler5stateERKN7process4http7RequestERKNSI_5OwnedINSD_15ObjectApproversEEEEUlPNSA_12ObjectWriterEE_vEESt8functionIS9_ERKT_NSB_6PreferEEUlS8_E_E9_M_invokeERKSt9_Any_dataOS8_+0x44 (/home/bevers/src/mesos/worktrees/state-benchmarking/build-alexr/src/.libs/libmesos-1.8.0.so)
	    7fa493a0c402 _ZNO4JSON5ProxycvNSt7__cxx1112basic_stringIcSt11char_traitsIcESaIcEEEB5cxx11Ev+0xc2 (/home/bevers/src/mesos/worktrees/state-benchmarking/build-alexr/src/.libs/libmesos-1.8.0.so)
	    7fa494c159c1 _ZN7process4http2OKC2EON4JSON5ProxyERK6OptionINSt7__cxx1112basic_stringIcSt11char_traitsIcESaIcEEEE+0x151 (/home/bevers/src/mesos/worktrees/state-benchmarking/build-alexr/src/.libs/libmesos-1.8.0.so)
	    7fa493ceaa0f _ZNK5mesos8internal6master6Master15ReadOnlyHandler5stateERKN7process4http7RequestERKNS4_5OwnedINS_15ObjectApproversEEE+0xaf (/home/bevers/src/mesos/worktrees/state-benchmarking/build-alexr/src/.libs/libmesos-1.8.0.so)
	    7fa493b904c8 _ZN7process20AsyncExecutorProcess7executeIZNK5mesos8internal6master6Master4Http20processRequestsBatchEvEUlMNS5_15ReadOnlyHandlerEKFNS_4http8ResponseERKNS8_7RequestERKNS_5OwnedINS2_15ObjectApproversEEEESC_SH_E_SJ_SA_SF_Li0EEENSt9result_ofIFT_T0_T1_T2_EE4typeERKSM_SN_SO_SP_+0x88 (/home/bevers/src/mesos/worktrees/state-benchmarking/build-alexr/src/.libs/libmesos-1.8.0.so)
	    7fa493b9e937 _ZZN7process8dispatchINS_4http8ResponseENS_20AsyncExecutorProcessERKZNK5mesos8internal6master6Master4Http20processRequestsBatchEvEUlMNS7_15ReadOnlyHandlerEKFS2_RKNS1_7RequestERKNS_5OwnedINS4_15ObjectApproversEEEESC_SH_E_SJ_SA_SF_SM_RSJ_RSA_RSF_EENS_6FutureIT_EERKNS_3PIDIT0_EEMSU_FSR_T1_T2_T3_T4_EOT5_OT6_OT7_OT8_ENKUlSt10unique_ptrINS_7PromiseIS2_EESt14default_deleteIS1E_EEOSK_OSJ_OSA_OSF_PNS_11ProcessBaseEE_clES1H_S1I_S1J_S1K_S1L_S1N_+0x387 (/home/bevers/src/mesos/worktrees/state-benchmarking/build-alexr/src/.libs/libmesos-1.8.0.so)
	    7fa493b9eb09 _ZNO6lambda12CallableOnceIFvPN7process11ProcessBaseEEE10CallableFnINS_8internal7PartialIZNS1_8dispatchINS1_4http8ResponseENS1_20AsyncExecutorProcessERKZNK5mesos8internal6master6Master4Http20processRequestsBatchEvEUlMNSG_15ReadOnlyHandlerEKFSB_RKNSA_7RequestERKNS1_5OwnedINSD_15ObjectApproversEEEESL_SQ_E_SS_SJ_SO_SV_RSS_RSJ_RSO_EENS1_6FutureIT_EERKNS1_3PIDIT0_EEMS13_FS10_T1_T2_T3_T4_EOT5_OT6_OT7_OT8_EUlSt10unique_ptrINS1_7PromiseISB_EESt14default_deleteIS1N_EEOST_OSS_OSJ_OSO_S3_E_JS1Q_ST_SS_SJ_SO_St12_PlaceholderILi1EEEEEEclEOS3_+0x59 (/home/bevers/src/mesos/worktrees/state-benchmarking/build-alexr/src/.libs/libmesos-1.8.0.so)
	    7fa494cb80e2 _ZN7process11ProcessBase7consumeEONS_13DispatchEventE+0x32 (/home/bevers/src/mesos/worktrees/state-benchmarking/build-alexr/src/.libs/libmesos-1.8.0.so)
	    7fa494ccd332 _ZN7process14ProcessManager6resumeEPNS_11ProcessBaseE+0x492 (/home/bevers/src/mesos/worktrees/state-benchmarking/build-alexr/src/.libs/libmesos-1.8.0.so)
	    7fa494cd3606 _ZNSt6thread11_State_implINS_8_InvokerISt5tupleIJZN7process14ProcessManager12init_threadsEvEUlvE_EEEEE6_M_runEv+0x46 (/home/bevers/src/mesos/worktrees/state-benchmarking/build-alexr/src/.libs/libmesos-1.8.0.so)
	    7fa491e43733 [unknown] (/usr/lib/x86_64-linux-gnu/libstdc++.so.6.0.25)

__async_executor__(1)@127.0.1.1:5050 14787 182029.130877:       5000 cycles:uh: 
	    7fa494e4a4f0 _ZN6google8protobuf20FieldDescriptorProtoC2Ev+0x0 (/home/bevers/src/mesos/worktrees/state-benchmarking/build-alexr/src/.libs/libmesos-1.8.0.so)
	    7fa494e58a75 _ZN6google8protobuf15DescriptorProto27MergePartialFromCodedStreamEPNS0_2io16CodedInputStreamE+0x495 (/home/bevers/src/mesos/worktrees/state-benchmarking/build-alexr/src/.libs/libmesos-1.8.0.so)
	    7fa4946190b9 _ZN6google8protobuf8internal14WireFormatLite11ReadMessageEPNS0_2io16CodedInputStreamEPNS0_11MessageLiteE+0x69 (/home/bevers/src/mesos/worktrees/state-benchmarking/build-alexr/src/.libs/libmesos-1.8.0.so)
	    7fa494e5814b _ZN6google8protobuf19FileDescriptorProto27MergePartialFromCodedStreamEPNS0_2io16CodedInputStreamE+0x2bb (/home/bevers/src/mesos/worktrees/state-benchmarking/build-alexr/src/.libs/libmesos-1.8.0.so)
	    7fa494e01636 _ZN6google8protobuf11MessageLite14ParseFromArrayEPKvi+0xc6 (/home/bevers/src/mesos/worktrees/state-benchmarking/build-alexr/src/.libs/libmesos-1.8.0.so)
	    7fa494e2b177 _ZNK6google8protobuf14DescriptorPool29TryFindFileInFallbackDatabaseERKNSt7__cxx1112basic_stringIcSt11char_traitsIcESaIcEEE+0x97 (/home/bevers/src/mesos/worktrees/state-benchmarking/build-alexr/src/.libs/libmesos-1.8.0.so)
	    7fa494e2b304 _ZNK6google8protobuf14DescriptorPool14FindFileByNameERKNSt7__cxx1112basic_stringIcSt11char_traitsIcESaIcEEE+0xe4 (/home/bevers/src/mesos/worktrees/state-benchmarking/build-alexr/src/.libs/libmesos-1.8.0.so)
	    7fa494e7e96c _ZN6google8protobuf8internal17AssignDescriptorsERKNSt7__cxx1112basic_stringIcSt11char_traitsIcESaIcEEEPKNS1_15MigrationSchemaEPKPKNS0_7MessageEPKjPNS0_14MessageFactoryEPNS0_8MetadataEPPKNS0_14EnumDescriptorEPPKNS0_17ServiceDescriptorE+0x5c (/home/bevers/src/mesos/worktrees/state-benchmarking/build-alexr/src/.libs/libmesos-1.8.0.so)
	    7fa494561c5d _ZN30protobuf_mesos_2fmesos_2eproto26protobuf_AssignDescriptorsEv+0x6d (/home/bevers/src/mesos/worktrees/state-benchmarking/build-alexr/src/.libs/libmesos-1.8.0.so)
	    7fa494df7da8 _ZN6google8protobuf18GoogleOnceInitImplEPlPNS0_7ClosureE+0x58 (/home/bevers/src/mesos/worktrees/state-benchmarking/build-alexr/src/.libs/libmesos-1.8.0.so)
	    7fa4945607a8 _ZN30protobuf_mesos_2fmesos_2eproto30protobuf_AssignDescriptorsOnceEv+0x58 (/home/bevers/src/mesos/worktrees/state-benchmarking/build-alexr/src/.libs/libmesos-1.8.0.so)
	    7fa494561db9 _ZN5mesos37MasterInfo_Capability_Type_descriptorEv+0x9 (/home/bevers/src/mesos/worktrees/state-benchmarking/build-alexr/src/.libs/libmesos-1.8.0.so)
	    7fa4939fd753 _ZN5mesos4jsonEPN4JSON12StringWriterERKNS_21MasterInfo_CapabilityE+0x13 (/home/bevers/src/mesos/worktrees/state-benchmarking/build-alexr/src/.libs/libmesos-1.8.0.so)
	    7fa493cf8025 _ZZNK5mesos8internal6master6Master15ReadOnlyHandler5stateERKN7process4http7RequestERKNS4_5OwnedINS_15ObjectApproversEEEENKUlPN4JSON12ObjectWriterEE_clESG_+0x5e5 (/home/bevers/src/mesos/worktrees/state-benchmarking/build-alexr/src/.libs/libmesos-1.8.0.so)
	    7fa493cf99e4 _ZNSt17_Function_handlerIFvPN9rapidjson6WriterINS0_19GenericStringBufferINS0_4UTF8IcEENS0_12CrtAllocatorEEES4_S4_S5_Lj0EEEEZN4JSON8internal7jsonifyIZNK5mesos8internal6master6Master15ReadOnlyHandler5stateERKN7process4http7RequestERKNSI_5OwnedINSD_15ObjectApproversEEEEUlPNSA_12ObjectWriterEE_vEESt8functionIS9_ERKT_NSB_6PreferEEUlS8_E_E9_M_invokeERKSt9_Any_dataOS8_+0x44 (/home/bevers/src/mesos/worktrees/state-benchmarking/build-alexr/src/.libs/libmesos-1.8.0.so)
	    7fa493a0c402 _ZNO4JSON5ProxycvNSt7__cxx1112basic_stringIcSt11char_traitsIcESaIcEEEB5cxx11Ev+0xc2 (/home/bevers/src/mesos/worktrees/state-benchmarking/build-alexr/src/.libs/libmesos-1.8.0.so)
	    7fa494c159c1 _ZN7process4http2OKC2EON4JSON5ProxyERK6OptionINSt7__cxx1112basic_stringIcSt11char_traitsIcESaIcEEEE+0x151 (/home/bevers/src/mesos/worktrees/state-benchmarking/build-alexr/src/.libs/libmesos-1.8.0.so)
	    7fa493ceaa0f _ZNK5mesos8internal6master6Master15ReadOnlyHandler5stateERKN7process4http7RequestERKNS4_5OwnedINS_15ObjectApproversEEE+0xaf (/home/bevers/src/mesos/worktrees/state-benchmarking/build-alexr/src/.libs/libmesos-1.8.0.so)
	    7fa493b904c8 _ZN7process20AsyncExecutorProcess7executeIZNK5mesos8internal6master6Master4Http20processRequestsBatchEvEUlMNS5_15ReadOnlyHandlerEKFNS_4http8ResponseERKNS8_7RequestERKNS_5OwnedINS2_15ObjectApproversEEEESC_SH_E_SJ_SA_SF_Li0EEENSt9result_ofIFT_T0_T1_T2_EE4typeERKSM_SN_SO_SP_+0x88 (/home/bevers/src/mesos/worktrees/state-benchmarking/build-alexr/src/.libs/libmesos-1.8.0.so)
	    7fa493b9e937 _ZZN7process8dispatchINS_4http8ResponseENS_20AsyncExecutorProcessERKZNK5mesos8internal6master6Master4Http20processRequestsBatchEvEUlMNS7_15ReadOnlyHandlerEKFS2_RKNS1_7RequestERKNS_5OwnedINS4_15ObjectApproversEEEESC_SH_E_SJ_SA_SF_SM_RSJ_RSA_RSF_EENS_6FutureIT_EERKNS_3PIDIT0_EEMSU_FSR_T1_T2_T3_T4_EOT5_OT6_OT7_OT8_ENKUlSt10unique_ptrINS_7PromiseIS2_EESt14default_deleteIS1E_EEOSK_OSJ_OSA_OSF_PNS_11ProcessBaseEE_clES1H_S1I_S1J_S1K_S1L_S1N_+0x387 (/home/bevers/src/mesos/worktrees/state-benchmarking/build-alexr/src/.libs/libmesos-1.8.0.so)
	    7fa493b9eb09 _ZNO6lambda12CallableOnceIFvPN7process11ProcessBaseEEE10CallableFnINS_8internal7PartialIZNS1_8dispatchINS1_4http8ResponseENS1_20AsyncExecutorProcessERKZNK5mesos8internal6master6Master4Http20processRequestsBatchEvEUlMNSG_15ReadOnlyHandlerEKFSB_RKNSA_7RequestERKNS1_5OwnedINSD_15ObjectApproversEEEESL_SQ_E_SS_SJ_SO_SV_RSS_RSJ_RSO_EENS1_6FutureIT_EERKNS1_3PIDIT0_EEMS13_FS10_T1_T2_T3_T4_EOT5_OT6_OT7_OT8_EUlSt10unique_ptrINS1_7PromiseISB_EESt14default_deleteIS1N_EEOST_OSS_OSJ_OSO_S3_E_JS1Q_ST_SS_SJ_SO_St12_PlaceholderILi1EEEEEEclEOS3_+0x59 (/home/bevers/src/mesos/worktrees/state-benchmarking/build-alexr/src/.libs/libmesos-1.8.0.so)
	    7fa494cb80e2 _ZN7process11ProcessBase7consumeEONS_13DispatchEventE+0x32 (/home/bevers/src/mesos/worktrees/state-benchmarking/build-alexr/src/.libs/libmesos-1.8.0.so)
	    7fa494ccd332 _ZN7process14ProcessManager6resumeEPNS_11ProcessBaseE+0x492 (/home/bevers/src/mesos/worktrees/state-benchmarking/build-alexr/src/.libs/libmesos-1.8.0.so)
	    7fa494cd3606 _ZNSt6thread11_State_implINS_8_InvokerISt5tupleIJZN7process14ProcessManager12init_threadsEvEUlvE_EEEEE6_M_runEv+0x46 (/home/bevers/src/mesos/worktrees/state-benchmarking/build-alexr/src/.libs/libmesos-1.8.0.so)
	    7fa491e43733 [unknown] (/usr/lib/x86_64-linux-gnu/libstdc++.so.6.0.25)

__async_executor__(1)@127.0.1.1:5050 14787 182029.130880:       5000 cycles:uh: 
	    7fa494eca355 _ZN6google8protobuf8internal24UTF8GenericScanFastAsciiEPKNS1_19UTF8StateMachineObjEPKciPi+0xb5 (/home/bevers/src/mesos/worktrees/state-benchmarking/build-alexr/src/.libs/libmesos-1.8.0.so)
	    7fa494eca404 _ZN6google8protobuf8internal23IsStructurallyValidUTF8EPKci+0x44 (/home/bevers/src/mesos/worktrees/state-benchmarking/build-alexr/src/.libs/libmesos-1.8.0.so)
	    7fa494e045fa _ZN6google8protobuf8internal14WireFormatLite16VerifyUtf8StringEPKciNS2_9OperationES4_+0x2a (/home/bevers/src/mesos/worktrees/state-benchmarking/build-alexr/src/.libs/libmesos-1.8.0.so)
	    7fa494e4fbb6 _ZN6google8protobuf20FieldDescriptorProto27MergePartialFromCodedStreamEPNS0_2io16CodedInputStreamE+0x436 (/home/bevers/src/mesos/worktrees/state-benchmarking/build-alexr/src/.libs/libmesos-1.8.0.so)
	    7fa4946190b9 _ZN6google8protobuf8internal14WireFormatLite11ReadMessageEPNS0_2io16CodedInputStreamEPNS0_11MessageLiteE+0x69 (/home/bevers/src/mesos/worktrees/state-benchmarking/build-alexr/src/.libs/libmesos-1.8.0.so)
	    7fa494e58a80 _ZN6google8protobuf15DescriptorProto27MergePartialFromCodedStreamEPNS0_2io16CodedInputStreamE+0x4a0 (/home/bevers/src/mesos/worktrees/state-benchmarking/build-alexr/src/.libs/libmesos-1.8.0.so)
	    7fa4946190b9 _ZN6google8protobuf8internal14WireFormatLite11ReadMessageEPNS0_2io16CodedInputStreamEPNS0_11MessageLiteE+0x69 (/home/bevers/src/mesos/worktrees/state-benchmarking/build-alexr/src/.libs/libmesos-1.8.0.so)
	    7fa494e5814b _ZN6google8protobuf19FileDescriptorProto27MergePartialFromCodedStreamEPNS0_2io16CodedInputStreamE+0x2bb (/home/bevers/src/mesos/worktrees/state-benchmarking/build-alexr/src/.libs/libmesos-1.8.0.so)
	    7fa494e01636 _ZN6google8protobuf11MessageLite14ParseFromArrayEPKvi+0xc6 (/home/bevers/src/mesos/worktrees/state-benchmarking/build-alexr/src/.libs/libmesos-1.8.0.so)
	    7fa494e2b177 _ZNK6google8protobuf14DescriptorPool29TryFindFileInFallbackDatabaseERKNSt7__cxx1112basic_stringIcSt11char_traitsIcESaIcEEE+0x97 (/home/bevers/src/mesos/worktrees/state-benchmarking/build-alexr/src/.libs/libmesos-1.8.0.so)
	    7fa494e2b304 _ZNK6google8protobuf14DescriptorPool14FindFileByNameERKNSt7__cxx1112basic_stringIcSt11char_traitsIcESaIcEEE+0xe4 (/home/bevers/src/mesos/worktrees/state-benchmarking/build-alexr/src/.libs/libmesos-1.8.0.so)
	    7fa494e7e96c _ZN6google8protobuf8internal17AssignDescriptorsERKNSt7__cxx1112basic_stringIcSt11char_traitsIcESaIcEEEPKNS1_15MigrationSchemaEPKPKNS0_7MessageEPKjPNS0_14MessageFactoryEPNS0_8MetadataEPPKNS0_14EnumDescriptorEPPKNS0_17ServiceDescriptorE+0x5c (/home/bevers/src/mesos/worktrees/state-benchmarking/build-alexr/src/.libs/libmesos-1.8.0.so)
	    7fa494561c5d _ZN30protobuf_mesos_2fmesos_2eproto26protobuf_AssignDescriptorsEv+0x6d (/home/bevers/src/mesos/worktrees/state-benchmarking/build-alexr/src/.libs/libmesos-1.8.0.so)
	    7fa494df7da8 _ZN6google8protobuf18GoogleOnceInitImplEPlPNS0_7ClosureE+0x58 (/home/bevers/src/mesos/worktrees/state-benchmarking/build-alexr/src/.libs/libmesos-1.8.0.so)
	    7fa4945607a8 _ZN30protobuf_mesos_2fmesos_2eproto30protobuf_AssignDescriptorsOnceEv+0x58 (/home/bevers/src/mesos/worktrees/state-benchmarking/build-alexr/src/.libs/libmesos-1.8.0.so)
	    7fa494561db9 _ZN5mesos37MasterInfo_Capability_Type_descriptorEv+0x9 (/home/bevers/src/mesos/worktrees/state-benchmarking/build-alexr/src/.libs/libmesos-1.8.0.so)
	    7fa4939fd753 _ZN5mesos4jsonEPN4JSON12StringWriterERKNS_21MasterInfo_CapabilityE+0x13 (/home/bevers/src/mesos/worktrees/state-benchmarking/build-alexr/src/.libs/libmesos-1.8.0.so)
	    7fa493cf8025 _ZZNK5mesos8internal6master6Master15ReadOnlyHandler5stateERKN7process4http7RequestERKNS4_5OwnedINS_15ObjectApproversEEEENKUlPN4JSON12ObjectWriterEE_clESG_+0x5e5 (/home/bevers/src/mesos/worktrees/state-benchmarking/build-alexr/src/.libs/libmesos-1.8.0.so)
	    7fa493cf99e4 _ZNSt17_Function_handlerIFvPN9rapidjson6WriterINS0_19GenericStringBufferINS0_4UTF8IcEENS0_12CrtAllocatorEEES4_S4_S5_Lj0EEEEZN4JSON8internal7jsonifyIZNK5mesos8internal6master6Master15ReadOnlyHandler5stateERKN7process4http7RequestERKNSI_5OwnedINSD_15ObjectApproversEEEEUlPNSA_12ObjectWriterEE_vEESt8functionIS9_ERKT_NSB_6PreferEEUlS8_E_E9_M_invokeERKSt9_Any_dataOS8_+0x44 (/home/bevers/src/mesos/worktrees/state-benchmarking/build-alexr/src/.libs/libmesos-1.8.0.so)
	    7fa493a0c402 _ZNO4JSON5ProxycvNSt7__cxx1112basic_stringIcSt11char_traitsIcESaIcEEEB5cxx11Ev+0xc2 (/home/bevers/src/mesos/worktrees/state-benchmarking/build-alexr/src/.libs/libmesos-1.8.0.so)
	    7fa494c159c1 _ZN7process4http2OKC2EON4JSON5ProxyERK6OptionINSt7__cxx1112basic_stringIcSt11char_traitsIcESaIcEEEE+0x151 (/home/bevers/src/mesos/worktrees/state-benchmarking/build-alexr/src/.libs/libmesos-1.8.0.so)
	    7fa493ceaa0f _ZNK5mesos8internal6master6Master15ReadOnlyHandler5stateERKN7process4http7RequestERKNS4_5OwnedINS_15ObjectApproversEEE+0xaf (/home/bevers/src/mesos/worktrees/state-benchmarking/build-alexr/src/.libs/libmesos-1.8.0.so)
	    7fa493b904c8 _ZN7process20AsyncExecutorProcess7executeIZNK5mesos8internal6master6Master4Http20processRequestsBatchEvEUlMNS5_15ReadOnlyHandlerEKFNS_4http8ResponseERKNS8_7RequestERKNS_5OwnedINS2_15ObjectApproversEEEESC_SH_E_SJ_SA_SF_Li0EEENSt9result_ofIFT_T0_T1_T2_EE4typeERKSM_SN_SO_SP_+0x88 (/home/bevers/src/mesos/worktrees/state-benchmarking/build-alexr/src/.libs/libmesos-1.8.0.so)
	    7fa493b9e937 _ZZN7process8dispatchINS_4http8ResponseENS_20AsyncExecutorProcessERKZNK5mesos8internal6master6Master4Http20processRequestsBatchEvEUlMNS7_15ReadOnlyHandlerEKFS2_RKNS1_7RequestERKNS_5OwnedINS4_15ObjectApproversEEEESC_SH_E_SJ_SA_SF_SM_RSJ_RSA_RSF_EENS_6FutureIT_EERKNS_3PIDIT0_EEMSU_FSR_T1_T2_T3_T4_EOT5_OT6_OT7_OT8_ENKUlSt10unique_ptrINS_7PromiseIS2_EESt14default_deleteIS1E_EEOSK_OSJ_OSA_OSF_PNS_11ProcessBaseEE_clES1H_S1I_S1J_S1K_S1L_S1N_+0x387 (/home/bevers/src/mesos/worktrees/state-benchmarking/build-alexr/src/.libs/libmesos-1.8.0.so)
	    7fa493b9eb09 _ZNO6lambda12CallableOnceIFvPN7process11ProcessBaseEEE10CallableFnINS_8internal7PartialIZNS1_8dispatchINS1_4http8ResponseENS1_20AsyncExecutorProcessERKZNK5mesos8internal6master6Master4Http20processRequestsBatchEvEUlMNSG_15ReadOnlyHandlerEKFSB_RKNSA_7RequestERKNS1_5OwnedINSD_15ObjectApproversEEEESL_SQ_E_SS_SJ_SO_SV_RSS_RSJ_RSO_EENS1_6FutureIT_EERKNS1_3PIDIT0_EEMS13_FS10_T1_T2_T3_T4_EOT5_OT6_OT7_OT8_EUlSt10unique_ptrINS1_7PromiseISB_EESt14default_deleteIS1N_EEOST_OSS_OSJ_OSO_S3_E_JS1Q_ST_SS_SJ_SO_St12_PlaceholderILi1EEEEEEclEOS3_+0x59 (/home/bevers/src/mesos/worktrees/state-benchmarking/build-alexr/src/.libs/libmesos-1.8.0.so)
	    7fa494cb80e2 _ZN7process11ProcessBase7consumeEONS_13DispatchEventE+0x32 (/home/bevers/src/mesos/worktrees/state-benchmarking/build-alexr/src/.libs/libmesos-1.8.0.so)
	    7fa494ccd332 _ZN7process14ProcessManager6resumeEPNS_11ProcessBaseE+0x492 (/home/bevers/src/mesos/worktrees/state-benchmarking/build-alexr/src/.libs/libmesos-1.8.0.so)
	    7fa494cd3606 _ZNSt6thread11_State_implINS_8_InvokerISt5tupleIJZN7process14ProcessManager12init_threadsEvEUlvE_EEEEE6_M_runEv+0x46 (/home/bevers/src/mesos/worktrees/state-benchmarking/build-alexr/src/.libs/libmesos-1.8.0.so)
	    7fa491e43733 [unknown] (/usr/lib/x86_64-linux-gnu/libstdc++.so.6.0.25)

__async_executor__(1)@127.0.1.1:5050 14787 182029.130884:       5000 cycles:uh: 
	    7fa494e58600 _ZN6google8protobuf15DescriptorProto27MergePartialFromCodedStreamEPNS0_2io16CodedInputStreamE+0x20 (/home/bevers/src/mesos/worktrees/state-benchmarking/build-alexr/src/.libs/libmesos-1.8.0.so)
	    7fa4946190b9 _ZN6google8protobuf8internal14WireFormatLite11ReadMessageEPNS0_2io16CodedInputStreamEPNS0_11MessageLiteE+0x69 (/home/bevers/src/mesos/worktrees/state-benchmarking/build-alexr/src/.libs/libmesos-1.8.0.so)
	    7fa494e5814b _ZN6google8protobuf19FileDescriptorProto27MergePartialFromCodedStreamEPNS0_2io16CodedInputStreamE+0x2bb (/home/bevers/src/mesos/worktrees/state-benchmarking/build-alexr/src/.libs/libmesos-1.8.0.so)
	    7fa494e01636 _ZN6google8protobuf11MessageLite14ParseFromArrayEPKvi+0xc6 (/home/bevers/src/mesos/worktrees/state-benchmarking/build-alexr/src/.libs/libmesos-1.8.0.so)
	    7fa494e2b177 _ZNK6google8protobuf14DescriptorPool29TryFindFileInFallbackDatabaseERKNSt7__cxx1112basic_stringIcSt11char_traitsIcESaIcEEE+0x97 (/home/bevers/src/mesos/worktrees/state-benchmarking/build-alexr/src/.libs/libmesos-1.8.0.so)
	    7fa494e2b304 _ZNK6google8protobuf14DescriptorPool14FindFileByNameERKNSt7__cxx1112basic_stringIcSt11char_traitsIcESaIcEEE+0xe4 (/home/bevers/src/mesos/worktrees/state-benchmarking/build-alexr/src/.libs/libmesos-1.8.0.so)
	    7fa494e7e96c _ZN6google8protobuf8internal17AssignDescriptorsERKNSt7__cxx1112basic_stringIcSt11char_traitsIcESaIcEEEPKNS1_15MigrationSchemaEPKPKNS0_7MessageEPKjPNS0_14MessageFactoryEPNS0_8MetadataEPPKNS0_14EnumDescriptorEPPKNS0_17ServiceDescriptorE+0x5c (/home/bevers/src/mesos/worktrees/state-benchmarking/build-alexr/src/.libs/libmesos-1.8.0.so)
	    7fa494561c5d _ZN30protobuf_mesos_2fmesos_2eproto26protobuf_AssignDescriptorsEv+0x6d (/home/bevers/src/mesos/worktrees/state-benchmarking/build-alexr/src/.libs/libmesos-1.8.0.so)
	    7fa494df7da8 _ZN6google8protobuf18GoogleOnceInitImplEPlPNS0_7ClosureE+0x58 (/home/bevers/src/mesos/worktrees/state-benchmarking/build-alexr/src/.libs/libmesos-1.8.0.so)
	    7fa4945607a8 _ZN30protobuf_mesos_2fmesos_2eproto30protobuf_AssignDescriptorsOnceEv+0x58 (/home/bevers/src/mesos/worktrees/state-benchmarking/build-alexr/src/.libs/libmesos-1.8.0.so)
	    7fa494561db9 _ZN5mesos37MasterInfo_Capability_Type_descriptorEv+0x9 (/home/bevers/src/mesos/worktrees/state-benchmarking/build-alexr/src/.libs/libmesos-1.8.0.so)
	    7fa4939fd753 _ZN5mesos4jsonEPN4JSON12StringWriterERKNS_21MasterInfo_CapabilityE+0x13 (/home/bevers/src/mesos/worktrees/state-benchmarking/build-alexr/src/.libs/libmesos-1.8.0.so)
	    7fa493cf8025 _ZZNK5mesos8internal6master6Master15ReadOnlyHandler5stateERKN7process4http7RequestERKNS4_5OwnedINS_15ObjectApproversEEEENKUlPN4JSON12ObjectWriterEE_clESG_+0x5e5 (/home/bevers/src/mesos/worktrees/state-benchmarking/build-alexr/src/.libs/libmesos-1.8.0.so)
	    7fa493cf99e4 _ZNSt17_Function_handlerIFvPN9rapidjson6WriterINS0_19GenericStringBufferINS0_4UTF8IcEENS0_12CrtAllocatorEEES4_S4_S5_Lj0EEEEZN4JSON8internal7jsonifyIZNK5mesos8internal6master6Master15ReadOnlyHandler5stateERKN7process4http7RequestERKNSI_5OwnedINSD_15ObjectApproversEEEEUlPNSA_12ObjectWriterEE_vEESt8functionIS9_ERKT_NSB_6PreferEEUlS8_E_E9_M_invokeERKSt9_Any_dataOS8_+0x44 (/home/bevers/src/mesos/worktrees/state-benchmarking/build-alexr/src/.libs/libmesos-1.8.0.so)
	    7fa493a0c402 _ZNO4JSON5ProxycvNSt7__cxx1112basic_stringIcSt11char_traitsIcESaIcEEEB5cxx11Ev+0xc2 (/home/bevers/src/mesos/worktrees/state-benchmarking/build-alexr/src/.libs/libmesos-1.8.0.so)
	    7fa494c159c1 _ZN7process4http2OKC2EON4JSON5ProxyERK6OptionINSt7__cxx1112basic_stringIcSt11char_traitsIcESaIcEEEE+0x151 (/home/bevers/src/mesos/worktrees/state-benchmarking/build-alexr/src/.libs/libmesos-1.8.0.so)
	    7fa493ceaa0f _ZNK5mesos8internal6master6Master15ReadOnlyHandler5stateERKN7process4http7RequestERKNS4_5OwnedINS_15ObjectApproversEEE+0xaf (/home/bevers/src/mesos/worktrees/state-benchmarking/build-alexr/src/.libs/libmesos-1.8.0.so)
	    7fa493b904c8 _ZN7process20AsyncExecutorProcess7executeIZNK5mesos8internal6master6Master4Http20processRequestsBatchEvEUlMNS5_15ReadOnlyHandlerEKFNS_4http8ResponseERKNS8_7RequestERKNS_5OwnedINS2_15ObjectApproversEEEESC_SH_E_SJ_SA_SF_Li0EEENSt9result_ofIFT_T0_T1_T2_EE4typeERKSM_SN_SO_SP_+0x88 (/home/bevers/src/mesos/worktrees/state-benchmarking/build-alexr/src/.libs/libmesos-1.8.0.so)
	    7fa493b9e937 _ZZN7process8dispatchINS_4http8ResponseENS_20AsyncExecutorProcessERKZNK5mesos8internal6master6Master4Http20processRequestsBatchEvEUlMNS7_15ReadOnlyHandlerEKFS2_RKNS1_7RequestERKNS_5OwnedINS4_15ObjectApproversEEEESC_SH_E_SJ_SA_SF_SM_RSJ_RSA_RSF_EENS_6FutureIT_EERKNS_3PIDIT0_EEMSU_FSR_T1_T2_T3_T4_EOT5_OT6_OT7_OT8_ENKUlSt10unique_ptrINS_7PromiseIS2_EESt14default_deleteIS1E_EEOSK_OSJ_OSA_OSF_PNS_11ProcessBaseEE_clES1H_S1I_S1J_S1K_S1L_S1N_+0x387 (/home/bevers/src/mesos/worktrees/state-benchmarking/build-alexr/src/.libs/libmesos-1.8.0.so)
	    7fa493b9eb09 _ZNO6lambda12CallableOnceIFvPN7process11ProcessBaseEEE10CallableFnINS_8internal7PartialIZNS1_8dispatchINS1_4http8ResponseENS1_20AsyncExecutorProcessERKZNK5mesos8internal6master6Master4Http20processRequestsBatchEvEUlMNSG_15ReadOnlyHandlerEKFSB_RKNSA_7RequestERKNS1_5OwnedINSD_15ObjectApproversEEEESL_SQ_E_SS_SJ_SO_SV_RSS_RSJ_RSO_EENS1_6FutureIT_EERKNS1_3PIDIT0_EEMS13_FS10_T1_T2_T3_T4_EOT5_OT6_OT7_OT8_EUlSt10unique_ptrINS1_7PromiseISB_EESt14default_deleteIS1N_EEOST_OSS_OSJ_OSO_S3_E_JS1Q_ST_SS_SJ_SO_St12_PlaceholderILi1EEEEEEclEOS3_+0x59 (/home/bevers/src/mesos/worktrees/state-benchmarking/build-alexr/src/.libs/libmesos-1.8.0.so)
	    7fa494cb80e2 _ZN7process11ProcessBase7consumeEONS_13DispatchEventE+0x32 (/home/bevers/src/mesos/worktrees/state-benchmarking/build-alexr/src/.libs/libmesos-1.8.0.so)
	    7fa494ccd332 _ZN7process14ProcessManager6resumeEPNS_11ProcessBaseE+0x492 (/home/bevers/src/mesos/worktrees/state-benchmarking/build-alexr/src/.libs/libmesos-1.8.0.so)
	    7fa494cd3606 _ZNSt6thread11_State_implINS_8_InvokerISt5tupleIJZN7process14ProcessManager12init_threadsEvEUlvE_EEEEE6_M_runEv+0x46 (/home/bevers/src/mesos/worktrees/state-benchmarking/build-alexr/src/.libs/libmesos-1.8.0.so)
	    7fa491e43733 [unknown] (/usr/lib/x86_64-linux-gnu/libstdc++.so.6.0.25)

__async_executor__(1)@127.0.1.1:5050 14787 182029.130887:       5000 cycles:uh: 
	    7fa491903ad9 __memmove_avx_unaligned_erms+0x9 (/lib/x86_64-linux-gnu/libc-2.27.so)
	    7fa494e58418 _ZN6google8protobuf19FileDescriptorProto27MergePartialFromCodedStreamEPNS0_2io16CodedInputStreamE+0x588 (/home/bevers/src/mesos/worktrees/state-benchmarking/build-alexr/src/.libs/libmesos-1.8.0.so)
	    7fa494e01636 _ZN6google8protobuf11MessageLite14ParseFromArrayEPKvi+0xc6 (/home/bevers/src/mesos/worktrees/state-benchmarking/build-alexr/src/.libs/libmesos-1.8.0.so)
	    7fa494e2b177 _ZNK6google8protobuf14DescriptorPool29TryFindFileInFallbackDatabaseERKNSt7__cxx1112basic_stringIcSt11char_traitsIcESaIcEEE+0x97 (/home/bevers/src/mesos/worktrees/state-benchmarking/build-alexr/src/.libs/libmesos-1.8.0.so)
	    7fa494e2b304 _ZNK6google8protobuf14DescriptorPool14FindFileByNameERKNSt7__cxx1112basic_stringIcSt11char_traitsIcESaIcEEE+0xe4 (/home/bevers/src/mesos/worktrees/state-benchmarking/build-alexr/src/.libs/libmesos-1.8.0.so)
	    7fa494e7e96c _ZN6google8protobuf8internal17AssignDescriptorsERKNSt7__cxx1112basic_stringIcSt11char_traitsIcESaIcEEEPKNS1_15MigrationSchemaEPKPKNS0_7MessageEPKjPNS0_14MessageFactoryEPNS0_8MetadataEPPKNS0_14EnumDescriptorEPPKNS0_17ServiceDescriptorE+0x5c (/home/bevers/src/mesos/worktrees/state-benchmarking/build-alexr/src/.libs/libmesos-1.8.0.so)
	    7fa494561c5d _ZN30protobuf_mesos_2fmesos_2eproto26protobuf_AssignDescriptorsEv+0x6d (/home/bevers/src/mesos/worktrees/state-benchmarking/build-alexr/src/.libs/libmesos-1.8.0.so)
	    7fa494df7da8 _ZN6google8protobuf18GoogleOnceInitImplEPlPNS0_7ClosureE+0x58 (/home/bevers/src/mesos/worktrees/state-benchmarking/build-alexr/src/.libs/libmesos-1.8.0.so)
	    7fa4945607a8 _ZN30protobuf_mesos_2fmesos_2eproto30protobuf_AssignDescriptorsOnceEv+0x58 (/home/bevers/src/mesos/worktrees/state-benchmarking/build-alexr/src/.libs/libmesos-1.8.0.so)
	    7fa494561db9 _ZN5mesos37MasterInfo_Capability_Type_descriptorEv+0x9 (/home/bevers/src/mesos/worktrees/state-benchmarking/build-alexr/src/.libs/libmesos-1.8.0.so)
	    7fa4939fd753 _ZN5mesos4jsonEPN4JSON12StringWriterERKNS_21MasterInfo_CapabilityE+0x13 (/home/bevers/src/mesos/worktrees/state-benchmarking/build-alexr/src/.libs/libmesos-1.8.0.so)
	    7fa493cf8025 _ZZNK5mesos8internal6master6Master15ReadOnlyHandler5stateERKN7process4http7RequestERKNS4_5OwnedINS_15ObjectApproversEEEENKUlPN4JSON12ObjectWriterEE_clESG_+0x5e5 (/home/bevers/src/mesos/worktrees/state-benchmarking/build-alexr/src/.libs/libmesos-1.8.0.so)
	    7fa493cf99e4 _ZNSt17_Function_handlerIFvPN9rapidjson6WriterINS0_19GenericStringBufferINS0_4UTF8IcEENS0_12CrtAllocatorEEES4_S4_S5_Lj0EEEEZN4JSON8internal7jsonifyIZNK5mesos8internal6master6Master15ReadOnlyHandler5stateERKN7process4http7RequestERKNSI_5OwnedINSD_15ObjectApproversEEEEUlPNSA_12ObjectWriterEE_vEESt8functionIS9_ERKT_NSB_6PreferEEUlS8_E_E9_M_invokeERKSt9_Any_dataOS8_+0x44 (/home/bevers/src/mesos/worktrees/state-benchmarking/build-alexr/src/.libs/libmesos-1.8.0.so)
	    7fa493a0c402 _ZNO4JSON5ProxycvNSt7__cxx1112basic_stringIcSt11char_traitsIcESaIcEEEB5cxx11Ev+0xc2 (/home/bevers/src/mesos/worktrees/state-benchmarking/build-alexr/src/.libs/libmesos-1.8.0.so)
	    7fa494c159c1 _ZN7process4http2OKC2EON4JSON5ProxyERK6OptionINSt7__cxx1112basic_stringIcSt11char_traitsIcESaIcEEEE+0x151 (/home/bevers/src/mesos/worktrees/state-benchmarking/build-alexr/src/.libs/libmesos-1.8.0.so)
	    7fa493ceaa0f _ZNK5mesos8internal6master6Master15ReadOnlyHandler5stateERKN7process4http7RequestERKNS4_5OwnedINS_15ObjectApproversEEE+0xaf (/home/bevers/src/mesos/worktrees/state-benchmarking/build-alexr/src/.libs/libmesos-1.8.0.so)
	    7fa493b904c8 _ZN7process20AsyncExecutorProcess7executeIZNK5mesos8internal6master6Master4Http20processRequestsBatchEvEUlMNS5_15ReadOnlyHandlerEKFNS_4http8ResponseERKNS8_7RequestERKNS_5OwnedINS2_15ObjectApproversEEEESC_SH_E_SJ_SA_SF_Li0EEENSt9result_ofIFT_T0_T1_T2_EE4typeERKSM_SN_SO_SP_+0x88 (/home/bevers/src/mesos/worktrees/state-benchmarking/build-alexr/src/.libs/libmesos-1.8.0.so)
	    7fa493b9e937 _ZZN7process8dispatchINS_4http8ResponseENS_20AsyncExecutorProcessERKZNK5mesos8internal6master6Master4Http20processRequestsBatchEvEUlMNS7_15ReadOnlyHandlerEKFS2_RKNS1_7RequestERKNS_5OwnedINS4_15ObjectApproversEEEESC_SH_E_SJ_SA_SF_SM_RSJ_RSA_RSF_EENS_6FutureIT_EERKNS_3PIDIT0_EEMSU_FSR_T1_T2_T3_T4_EOT5_OT6_OT7_OT8_ENKUlSt10unique_ptrINS_7PromiseIS2_EESt14default_deleteIS1E_EEOSK_OSJ_OSA_OSF_PNS_11ProcessBaseEE_clES1H_S1I_S1J_S1K_S1L_S1N_+0x387 (/home/bevers/src/mesos/worktrees/state-benchmarking/build-alexr/src/.libs/libmesos-1.8.0.so)
	    7fa493b9eb09 _ZNO6lambda12CallableOnceIFvPN7process11ProcessBaseEEE10CallableFnINS_8internal7PartialIZNS1_8dispatchINS1_4http8ResponseENS1_20AsyncExecutorProcessERKZNK5mesos8internal6master6Master4Http20processRequestsBatchEvEUlMNSG_15ReadOnlyHandlerEKFSB_RKNSA_7RequestERKNS1_5OwnedINSD_15ObjectApproversEEEESL_SQ_E_SS_SJ_SO_SV_RSS_RSJ_RSO_EENS1_6FutureIT_EERKNS1_3PIDIT0_EEMS13_FS10_T1_T2_T3_T4_EOT5_OT6_OT7_OT8_EUlSt10unique_ptrINS1_7PromiseISB_EESt14default_deleteIS1N_EEOST_OSS_OSJ_OSO_S3_E_JS1Q_ST_SS_SJ_SO_St12_PlaceholderILi1EEEEEEclEOS3_+0x59 (/home/bevers/src/mesos/worktrees/state-benchmarking/build-alexr/src/.libs/libmesos-1.8.0.so)
	    7fa494cb80e2 _ZN7process11ProcessBase7consumeEONS_13DispatchEventE+0x32 (/home/bevers/src/mesos/worktrees/state-benchmarking/build-alexr/src/.libs/libmesos-1.8.0.so)
	    7fa494ccd332 _ZN7process14ProcessManager6resumeEPNS_11ProcessBaseE+0x492 (/home/bevers/src/mesos/worktrees/state-benchmarking/build-alexr/src/.libs/libmesos-1.8.0.so)
	    7fa494cd3606 _ZNSt6thread11_State_implINS_8_InvokerISt5tupleIJZN7process14ProcessManager12init_threadsEvEUlvE_EEEEE6_M_runEv+0x46 (/home/bevers/src/mesos/worktrees/state-benchmarking/build-alexr/src/.libs/libmesos-1.8.0.so)
	    7fa491e43733 [unknown] (/usr/lib/x86_64-linux-gnu/libstdc++.so.6.0.25)

__async_executor__(1)@127.0.1.1:5050 14787 182029.130891:       5000 cycles:uh: 
	    7fa493941aa1 _ZN6google8protobuf8internal14ArenaStringPtr14CreateInstanceEPNS0_5ArenaEPKNSt7__cxx1112basic_stringIcSt11char_traitsIcESaIcEEE+0x1 (/home/bevers/src/mesos/worktrees/state-benchmarking/build-alexr/src/.libs/libmesos-1.8.0.so)
	    7fa4946190b9 _ZN6google8protobuf8internal14WireFormatLite11ReadMessageEPNS0_2io16CodedInputStreamEPNS0_11MessageLiteE+0x69 (/home/bevers/src/mesos/worktrees/state-benchmarking/build-alexr/src/.libs/libmesos-1.8.0.so)
	    7fa494e5814b _ZN6google8protobuf19FileDescriptorProto27MergePartialFromCodedStreamEPNS0_2io16CodedInputStreamE+0x2bb (/home/bevers/src/mesos/worktrees/state-benchmarking/build-alexr/src/.libs/libmesos-1.8.0.so)
	    7fa494e01636 _ZN6google8protobuf11MessageLite14ParseFromArrayEPKvi+0xc6 (/home/bevers/src/mesos/worktrees/state-benchmarking/build-alexr/src/.libs/libmesos-1.8.0.so)
	    7fa494e2b177 _ZNK6google8protobuf14DescriptorPool29TryFindFileInFallbackDatabaseERKNSt7__cxx1112basic_stringIcSt11char_traitsIcESaIcEEE+0x97 (/home/bevers/src/mesos/worktrees/state-benchmarking/build-alexr/src/.libs/libmesos-1.8.0.so)
	    7fa494e2b304 _ZNK6google8protobuf14DescriptorPool14FindFileByNameERKNSt7__cxx1112basic_stringIcSt11char_traitsIcESaIcEEE+0xe4 (/home/bevers/src/mesos/worktrees/state-benchmarking/build-alexr/src/.libs/libmesos-1.8.0.so)
	    7fa494e7e96c _ZN6google8protobuf8internal17AssignDescriptorsERKNSt7__cxx1112basic_stringIcSt11char_traitsIcESaIcEEEPKNS1_15MigrationSchemaEPKPKNS0_7MessageEPKjPNS0_14MessageFactoryEPNS0_8MetadataEPPKNS0_14EnumDescriptorEPPKNS0_17ServiceDescriptorE+0x5c (/home/bevers/src/mesos/worktrees/state-benchmarking/build-alexr/src/.libs/libmesos-1.8.0.so)
	    7fa494561c5d _ZN30protobuf_mesos_2fmesos_2eproto26protobuf_AssignDescriptorsEv+0x6d (/home/bevers/src/mesos/worktrees/state-benchmarking/build-alexr/src/.libs/libmesos-1.8.0.so)
	    7fa494df7da8 _ZN6google8protobuf18GoogleOnceInitImplEPlPNS0_7ClosureE+0x58 (/home/bevers/src/mesos/worktrees/state-benchmarking/build-alexr/src/.libs/libmesos-1.8.0.so)
	    7fa4945607a8 _ZN30protobuf_mesos_2fmesos_2eproto30protobuf_AssignDescriptorsOnceEv+0x58 (/home/bevers/src/mesos/worktrees/state-benchmarking/build-alexr/src/.libs/libmesos-1.8.0.so)
	    7fa494561db9 _ZN5mesos37MasterInfo_Capability_Type_descriptorEv+0x9 (/home/bevers/src/mesos/worktrees/state-benchmarking/build-alexr/src/.libs/libmesos-1.8.0.so)
	    7fa4939fd753 _ZN5mesos4jsonEPN4JSON12StringWriterERKNS_21MasterInfo_CapabilityE+0x13 (/home/bevers/src/mesos/worktrees/state-benchmarking/build-alexr/src/.libs/libmesos-1.8.0.so)
	    7fa493cf8025 _ZZNK5mesos8internal6master6Master15ReadOnlyHandler5stateERKN7process4http7RequestERKNS4_5OwnedINS_15ObjectApproversEEEENKUlPN4JSON12ObjectWriterEE_clESG_+0x5e5 (/home/bevers/src/mesos/worktrees/state-benchmarking/build-alexr/src/.libs/libmesos-1.8.0.so)
	    7fa493cf99e4 _ZNSt17_Function_handlerIFvPN9rapidjson6WriterINS0_19GenericStringBufferINS0_4UTF8IcEENS0_12CrtAllocatorEEES4_S4_S5_Lj0EEEEZN4JSON8internal7jsonifyIZNK5mesos8internal6master6Master15ReadOnlyHandler5stateERKN7process4http7RequestERKNSI_5OwnedINSD_15ObjectApproversEEEEUlPNSA_12ObjectWriterEE_vEESt8functionIS9_ERKT_NSB_6PreferEEUlS8_E_E9_M_invokeERKSt9_Any_dataOS8_+0x44 (/home/bevers/src/mesos/worktrees/state-benchmarking/build-alexr/src/.libs/libmesos-1.8.0.so)
	    7fa493a0c402 _ZNO4JSON5ProxycvNSt7__cxx1112basic_stringIcSt11char_traitsIcESaIcEEEB5cxx11Ev+0xc2 (/home/bevers/src/mesos/worktrees/state-benchmarking/build-alexr/src/.libs/libmesos-1.8.0.so)
	    7fa494c159c1 _ZN7process4http2OKC2EON4JSON5ProxyERK6OptionINSt7__cxx1112basic_stringIcSt11char_traitsIcESaIcEEEE+0x151 (/home/bevers/src/mesos/worktrees/state-benchmarking/build-alexr/src/.libs/libmesos-1.8.0.so)
	    7fa493ceaa0f _ZNK5mesos8internal6master6Master15ReadOnlyHandler5stateERKN7process4http7RequestERKNS4_5OwnedINS_15ObjectApproversEEE+0xaf (/home/bevers/src/mesos/worktrees/state-benchmarking/build-alexr/src/.libs/libmesos-1.8.0.so)
	    7fa493b904c8 _ZN7process20AsyncExecutorProcess7executeIZNK5mesos8internal6master6Master4Http20processRequestsBatchEvEUlMNS5_15ReadOnlyHandlerEKFNS_4http8ResponseERKNS8_7RequestERKNS_5OwnedINS2_15ObjectApproversEEEESC_SH_E_SJ_SA_SF_Li0EEENSt9result_ofIFT_T0_T1_T2_EE4typeERKSM_SN_SO_SP_+0x88 (/home/bevers/src/mesos/worktrees/state-benchmarking/build-alexr/src/.libs/libmesos-1.8.0.so)
	    7fa493b9e937 _ZZN7process8dispatchINS_4http8ResponseENS_20AsyncExecutorProcessERKZNK5mesos8internal6master6Master4Http20processRequestsBatchEvEUlMNS7_15ReadOnlyHandlerEKFS2_RKNS1_7RequestERKNS_5OwnedINS4_15ObjectApproversEEEESC_SH_E_SJ_SA_SF_SM_RSJ_RSA_RSF_EENS_6FutureIT_EERKNS_3PIDIT0_EEMSU_FSR_T1_T2_T3_T4_EOT5_OT6_OT7_OT8_ENKUlSt10unique_ptrINS_7PromiseIS2_EESt14default_deleteIS1E_EEOSK_OSJ_OSA_OSF_PNS_11ProcessBaseEE_clES1H_S1I_S1J_S1K_S1L_S1N_+0x387 (/home/bevers/src/mesos/worktrees/state-benchmarking/build-alexr/src/.libs/libmesos-1.8.0.so)
	    7fa493b9eb09 _ZNO6lambda12CallableOnceIFvPN7process11ProcessBaseEEE10CallableFnINS_8internal7PartialIZNS1_8dispatchINS1_4http8ResponseENS1_20AsyncExecutorProcessERKZNK5mesos8internal6master6Master4Http20processRequestsBatchEvEUlMNSG_15ReadOnlyHandlerEKFSB_RKNSA_7RequestERKNS1_5OwnedINSD_15ObjectApproversEEEESL_SQ_E_SS_SJ_SO_SV_RSS_RSJ_RSO_EENS1_6FutureIT_EERKNS1_3PIDIT0_EEMS13_FS10_T1_T2_T3_T4_EOT5_OT6_OT7_OT8_EUlSt10unique_ptrINS1_7PromiseISB_EESt14default_deleteIS1N_EEOST_OSS_OSJ_OSO_S3_E_JS1Q_ST_SS_SJ_SO_St12_PlaceholderILi1EEEEEEclEOS3_+0x59 (/home/bevers/src/mesos/worktrees/state-benchmarking/build-alexr/src/.libs/libmesos-1.8.0.so)
	    7fa494cb80e2 _ZN7process11ProcessBase7consumeEONS_13DispatchEventE+0x32 (/home/bevers/src/mesos/worktrees/state-benchmarking/build-alexr/src/.libs/libmesos-1.8.0.so)
	    7fa494ccd332 _ZN7process14ProcessManager6resumeEPNS_11ProcessBaseE+0x492 (/home/bevers/src/mesos/worktrees/state-benchmarking/build-alexr/src/.libs/libmesos-1.8.0.so)
	    7fa494cd3606 _ZNSt6thread11_State_implINS_8_InvokerISt5tupleIJZN7process14ProcessManager12init_threadsEvEUlvE_EEEEE6_M_runEv+0x46 (/home/bevers/src/mesos/worktrees/state-benchmarking/build-alexr/src/.libs/libmesos-1.8.0.so)
	    7fa491e43733 [unknown] (/usr/lib/x86_64-linux-gnu/libstdc++.so.6.0.25)

__async_executor__(1)@127.0.1.1:5050 14787 182029.130895:       5000 cycles:uh: 
	    7fa49180c20a malloc+0x19a (/lib/x86_64-linux-gnu/libc-2.27.so)

__async_executor__(1)@127.0.1.1:5050 14787 182029.130898:       5000 cycles:uh: 
	    7fa494e4fbff _ZN6google8protobuf20FieldDescriptorProto27MergePartialFromCodedStreamEPNS0_2io16CodedInputStreamE+0x47f (/home/bevers/src/mesos/worktrees/state-benchmarking/build-alexr/src/.libs/libmesos-1.8.0.so)
	    7fa4946190b9 _ZN6google8protobuf8internal14WireFormatLite11ReadMessageEPNS0_2io16CodedInputStreamEPNS0_11MessageLiteE+0x69 (/home/bevers/src/mesos/worktrees/state-benchmarking/build-alexr/src/.libs/libmesos-1.8.0.so)
	    7fa494e58a80 _ZN6google8protobuf15DescriptorProto27MergePartialFromCodedStreamEPNS0_2io16CodedInputStreamE+0x4a0 (/home/bevers/src/mesos/worktrees/state-benchmarking/build-alexr/src/.libs/libmesos-1.8.0.so)
	    7fa4946190b9 _ZN6google8protobuf8internal14WireFormatLite11ReadMessageEPNS0_2io16CodedInputStreamEPNS0_11MessageLiteE+0x69 (/home/bevers/src/mesos/worktrees/state-benchmarking/build-alexr/src/.libs/libmesos-1.8.0.so)
	    7fa494e5814b _ZN6google8protobuf19FileDescriptorProto27MergePartialFromCodedStreamEPNS0_2io16CodedInputStreamE+0x2bb (/home/bevers/src/mesos/worktrees/state-benchmarking/build-alexr/src/.libs/libmesos-1.8.0.so)
	    7fa494e01636 _ZN6google8protobuf11MessageLite14ParseFromArrayEPKvi+0xc6 (/home/bevers/src/mesos/worktrees/state-benchmarking/build-alexr/src/.libs/libmesos-1.8.0.so)
	    7fa494e2b177 _ZNK6google8protobuf14DescriptorPool29TryFindFileInFallbackDatabaseERKNSt7__cxx1112basic_stringIcSt11char_traitsIcESaIcEEE+0x97 (/home/bevers/src/mesos/worktrees/state-benchmarking/build-alexr/src/.libs/libmesos-1.8.0.so)
	    7fa494e2b304 _ZNK6google8protobuf14DescriptorPool14FindFileByNameERKNSt7__cxx1112basic_stringIcSt11char_traitsIcESaIcEEE+0xe4 (/home/bevers/src/mesos/worktrees/state-benchmarking/build-alexr/src/.libs/libmesos-1.8.0.so)
	    7fa494e7e96c _ZN6google8protobuf8internal17AssignDescriptorsERKNSt7__cxx1112basic_stringIcSt11char_traitsIcESaIcEEEPKNS1_15MigrationSchemaEPKPKNS0_7MessageEPKjPNS0_14MessageFactoryEPNS0_8MetadataEPPKNS0_14EnumDescriptorEPPKNS0_17ServiceDescriptorE+0x5c (/home/bevers/src/mesos/worktrees/state-benchmarking/build-alexr/src/.libs/libmesos-1.8.0.so)
	    7fa494561c5d _ZN30protobuf_mesos_2fmesos_2eproto26protobuf_AssignDescriptorsEv+0x6d (/home/bevers/src/mesos/worktrees/state-benchmarking/build-alexr/src/.libs/libmesos-1.8.0.so)
	    7fa494df7da8 _ZN6google8protobuf18GoogleOnceInitImplEPlPNS0_7ClosureE+0x58 (/home/bevers/src/mesos/worktrees/state-benchmarking/build-alexr/src/.libs/libmesos-1.8.0.so)
	    7fa4945607a8 _ZN30protobuf_mesos_2fmesos_2eproto30protobuf_AssignDescriptorsOnceEv+0x58 (/home/bevers/src/mesos/worktrees/state-benchmarking/build-alexr/src/.libs/libmesos-1.8.0.so)
	    7fa494561db9 _ZN5mesos37MasterInfo_Capability_Type_descriptorEv+0x9 (/home/bevers/src/mesos/worktrees/state-benchmarking/build-alexr/src/.libs/libmesos-1.8.0.so)
	    7fa4939fd753 _ZN5mesos4jsonEPN4JSON12StringWriterERKNS_21MasterInfo_CapabilityE+0x13 (/home/bevers/src/mesos/worktrees/state-benchmarking/build-alexr/src/.libs/libmesos-1.8.0.so)
	    7fa493cf8025 _ZZNK5mesos8internal6master6Master15ReadOnlyHandler5stateERKN7process4http7RequestERKNS4_5OwnedINS_15ObjectApproversEEEENKUlPN4JSON12ObjectWriterEE_clESG_+0x5e5 (/home/bevers/src/mesos/worktrees/state-benchmarking/build-alexr/src/.libs/libmesos-1.8.0.so)
	    7fa493cf99e4 _ZNSt17_Function_handlerIFvPN9rapidjson6WriterINS0_19GenericStringBufferINS0_4UTF8IcEENS0_12CrtAllocatorEEES4_S4_S5_Lj0EEEEZN4JSON8internal7jsonifyIZNK5mesos8internal6master6Master15ReadOnlyHandler5stateERKN7process4http7RequestERKNSI_5OwnedINSD_15ObjectApproversEEEEUlPNSA_12ObjectWriterEE_vEESt8functionIS9_ERKT_NSB_6PreferEEUlS8_E_E9_M_invokeERKSt9_Any_dataOS8_+0x44 (/home/bevers/src/mesos/worktrees/state-benchmarking/build-alexr/src/.libs/libmesos-1.8.0.so)
	    7fa493a0c402 _ZNO4JSON5ProxycvNSt7__cxx1112basic_stringIcSt11char_traitsIcESaIcEEEB5cxx11Ev+0xc2 (/home/bevers/src/mesos/worktrees/state-benchmarking/build-alexr/src/.libs/libmesos-1.8.0.so)
	    7fa494c159c1 _ZN7process4http2OKC2EON4JSON5ProxyERK6OptionINSt7__cxx1112basic_stringIcSt11char_traitsIcESaIcEEEE+0x151 (/home/bevers/src/mesos/worktrees/state-benchmarking/build-alexr/src/.libs/libmesos-1.8.0.so)
	    7fa493ceaa0f _ZNK5mesos8internal6master6Master15ReadOnlyHandler5stateERKN7process4http7RequestERKNS4_5OwnedINS_15ObjectApproversEEE+0xaf (/home/bevers/src/mesos/worktrees/state-benchmarking/build-alexr/src/.libs/libmesos-1.8.0.so)
	    7fa493b904c8 _ZN7process20AsyncExecutorProcess7executeIZNK5mesos8internal6master6Master4Http20processRequestsBatchEvEUlMNS5_15ReadOnlyHandlerEKFNS_4http8ResponseERKNS8_7RequestERKNS_5OwnedINS2_15ObjectApproversEEEESC_SH_E_SJ_SA_SF_Li0EEENSt9result_ofIFT_T0_T1_T2_EE4typeERKSM_SN_SO_SP_+0x88 (/home/bevers/src/mesos/worktrees/state-benchmarking/build-alexr/src/.libs/libmesos-1.8.0.so)
	    7fa493b9e937 _ZZN7process8dispatchINS_4http8ResponseENS_20AsyncExecutorProcessERKZNK5mesos8internal6master6Master4Http20processRequestsBatchEvEUlMNS7_15ReadOnlyHandlerEKFS2_RKNS1_7RequestERKNS_5OwnedINS4_15ObjectApproversEEEESC_SH_E_SJ_SA_SF_SM_RSJ_RSA_RSF_EENS_6FutureIT_EERKNS_3PIDIT0_EEMSU_FSR_T1_T2_T3_T4_EOT5_OT6_OT7_OT8_ENKUlSt10unique_ptrINS_7PromiseIS2_EESt14default_deleteIS1E_EEOSK_OSJ_OSA_OSF_PNS_11ProcessBaseEE_clES1H_S1I_S1J_S1K_S1L_S1N_+0x387 (/home/bevers/src/mesos/worktrees/state-benchmarking/build-alexr/src/.libs/libmesos-1.8.0.so)
	    7fa493b9eb09 _ZNO6lambda12CallableOnceIFvPN7process11ProcessBaseEEE10CallableFnINS_8internal7PartialIZNS1_8dispatchINS1_4http8ResponseENS1_20AsyncExecutorProcessERKZNK5mesos8internal6master6Master4Http20processRequestsBatchEvEUlMNSG_15ReadOnlyHandlerEKFSB_RKNSA_7RequestERKNS1_5OwnedINSD_15ObjectApproversEEEESL_SQ_E_SS_SJ_SO_SV_RSS_RSJ_RSO_EENS1_6FutureIT_EERKNS1_3PIDIT0_EEMS13_FS10_T1_T2_T3_T4_EOT5_OT6_OT7_OT8_EUlSt10unique_ptrINS1_7PromiseISB_EESt14default_deleteIS1N_EEOST_OSS_OSJ_OSO_S3_E_JS1Q_ST_SS_SJ_SO_St12_PlaceholderILi1EEEEEEclEOS3_+0x59 (/home/bevers/src/mesos/worktrees/state-benchmarking/build-alexr/src/.libs/libmesos-1.8.0.so)
	    7fa494cb80e2 _ZN7process11ProcessBase7consumeEONS_13DispatchEventE+0x32 (/home/bevers/src/mesos/worktrees/state-benchmarking/build-alexr/src/.libs/libmesos-1.8.0.so)
	    7fa494ccd332 _ZN7process14ProcessManager6resumeEPNS_11ProcessBaseE+0x492 (/home/bevers/src/mesos/worktrees/state-benchmarking/build-alexr/src/.libs/libmesos-1.8.0.so)
	    7fa494cd3606 _ZNSt6thread11_State_implINS_8_InvokerISt5tupleIJZN7process14ProcessManager12init_threadsEvEUlvE_EEEEE6_M_runEv+0x46 (/home/bevers/src/mesos/worktrees/state-benchmarking/build-alexr/src/.libs/libmesos-1.8.0.so)
	    7fa491e43733 [unknown] (/usr/lib/x86_64-linux-gnu/libstdc++.so.6.0.25)

__async_executor__(1)@127.0.1.1:5050 14787 182029.130901:       5000 cycles:uh: 
	    7fa491eae8f0 _ZNSt7__cxx1112basic_stringIcSt11char_traitsIcESaIcEE6resizeEmc+0x20 (/usr/lib/x86_64-linux-gnu/libstdc++.so.6.0.25)
	    7fa494e4f9d6 _ZN6google8protobuf20FieldDescriptorProto27MergePartialFromCodedStreamEPNS0_2io16CodedInputStreamE+0x256 (/home/bevers/src/mesos/worktrees/state-benchmarking/build-alexr/src/.libs/libmesos-1.8.0.so)
	    7fa4946190b9 _ZN6google8protobuf8internal14WireFormatLite11ReadMessageEPNS0_2io16CodedInputStreamEPNS0_11MessageLiteE+0x69 (/home/bevers/src/mesos/worktrees/state-benchmarking/build-alexr/src/.libs/libmesos-1.8.0.so)
	    7fa494e58a80 _ZN6google8protobuf15DescriptorProto27MergePartialFromCodedStreamEPNS0_2io16CodedInputStreamE+0x4a0 (/home/bevers/src/mesos/worktrees/state-benchmarking/build-alexr/src/.libs/libmesos-1.8.0.so)
	    7fa4946190b9 _ZN6google8protobuf8internal14WireFormatLite11ReadMessageEPNS0_2io16CodedInputStreamEPNS0_11MessageLiteE+0x69 (/home/bevers/src/mesos/worktrees/state-benchmarking/build-alexr/src/.libs/libmesos-1.8.0.so)
	    7fa494e5814b _ZN6google8protobuf19FileDescriptorProto27MergePartialFromCodedStreamEPNS0_2io16CodedInputStreamE+0x2bb (/home/bevers/src/mesos/worktrees/state-benchmarking/build-alexr/src/.libs/libmesos-1.8.0.so)
	    7fa494e01636 _ZN6google8protobuf11MessageLite14ParseFromArrayEPKvi+0xc6 (/home/bevers/src/mesos/worktrees/state-benchmarking/build-alexr/src/.libs/libmesos-1.8.0.so)
	    7fa494e2b177 _ZNK6google8protobuf14DescriptorPool29TryFindFileInFallbackDatabaseERKNSt7__cxx1112basic_stringIcSt11char_traitsIcESaIcEEE+0x97 (/home/bevers/src/mesos/worktrees/state-benchmarking/build-alexr/src/.libs/libmesos-1.8.0.so)
	    7fa494e2b304 _ZNK6google8protobuf14DescriptorPool14FindFileByNameERKNSt7__cxx1112basic_stringIcSt11char_traitsIcESaIcEEE+0xe4 (/home/bevers/src/mesos/worktrees/state-benchmarking/build-alexr/src/.libs/libmesos-1.8.0.so)
	    7fa494e7e96c _ZN6google8protobuf8internal17AssignDescriptorsERKNSt7__cxx1112basic_stringIcSt11char_traitsIcESaIcEEEPKNS1_15MigrationSchemaEPKPKNS0_7MessageEPKjPNS0_14MessageFactoryEPNS0_8MetadataEPPKNS0_14EnumDescriptorEPPKNS0_17ServiceDescriptorE+0x5c (/home/bevers/src/mesos/worktrees/state-benchmarking/build-alexr/src/.libs/libmesos-1.8.0.so)
	    7fa494561c5d _ZN30protobuf_mesos_2fmesos_2eproto26protobuf_AssignDescriptorsEv+0x6d (/home/bevers/src/mesos/worktrees/state-benchmarking/build-alexr/src/.libs/libmesos-1.8.0.so)
	    7fa494df7da8 _ZN6google8protobuf18GoogleOnceInitImplEPlPNS0_7ClosureE+0x58 (/home/bevers/src/mesos/worktrees/state-benchmarking/build-alexr/src/.libs/libmesos-1.8.0.so)
	    7fa4945607a8 _ZN30protobuf_mesos_2fmesos_2eproto30protobuf_AssignDescriptorsOnceEv+0x58 (/home/bevers/src/mesos/worktrees/state-benchmarking/build-alexr/src/.libs/libmesos-1.8.0.so)
	    7fa494561db9 _ZN5mesos37MasterInfo_Capability_Type_descriptorEv+0x9 (/home/bevers/src/mesos/worktrees/state-benchmarking/build-alexr/src/.libs/libmesos-1.8.0.so)
	    7fa4939fd753 _ZN5mesos4jsonEPN4JSON12StringWriterERKNS_21MasterInfo_CapabilityE+0x13 (/home/bevers/src/mesos/worktrees/state-benchmarking/build-alexr/src/.libs/libmesos-1.8.0.so)
	    7fa493cf8025 _ZZNK5mesos8internal6master6Master15ReadOnlyHandler5stateERKN7process4http7RequestERKNS4_5OwnedINS_15ObjectApproversEEEENKUlPN4JSON12ObjectWriterEE_clESG_+0x5e5 (/home/bevers/src/mesos/worktrees/state-benchmarking/build-alexr/src/.libs/libmesos-1.8.0.so)
	    7fa493cf99e4 _ZNSt17_Function_handlerIFvPN9rapidjson6WriterINS0_19GenericStringBufferINS0_4UTF8IcEENS0_12CrtAllocatorEEES4_S4_S5_Lj0EEEEZN4JSON8internal7jsonifyIZNK5mesos8internal6master6Master15ReadOnlyHandler5stateERKN7process4http7RequestERKNSI_5OwnedINSD_15ObjectApproversEEEEUlPNSA_12ObjectWriterEE_vEESt8functionIS9_ERKT_NSB_6PreferEEUlS8_E_E9_M_invokeERKSt9_Any_dataOS8_+0x44 (/home/bevers/src/mesos/worktrees/state-benchmarking/build-alexr/src/.libs/libmesos-1.8.0.so)
	    7fa493a0c402 _ZNO4JSON5ProxycvNSt7__cxx1112basic_stringIcSt11char_traitsIcESaIcEEEB5cxx11Ev+0xc2 (/home/bevers/src/mesos/worktrees/state-benchmarking/build-alexr/src/.libs/libmesos-1.8.0.so)
	    7fa494c159c1 _ZN7process4http2OKC2EON4JSON5ProxyERK6OptionINSt7__cxx1112basic_stringIcSt11char_traitsIcESaIcEEEE+0x151 (/home/bevers/src/mesos/worktrees/state-benchmarking/build-alexr/src/.libs/libmesos-1.8.0.so)
	    7fa493ceaa0f _ZNK5mesos8internal6master6Master15ReadOnlyHandler5stateERKN7process4http7RequestERKNS4_5OwnedINS_15ObjectApproversEEE+0xaf (/home/bevers/src/mesos/worktrees/state-benchmarking/build-alexr/src/.libs/libmesos-1.8.0.so)
	    7fa493b904c8 _ZN7process20AsyncExecutorProcess7executeIZNK5mesos8internal6master6Master4Http20processRequestsBatchEvEUlMNS5_15ReadOnlyHandlerEKFNS_4http8ResponseERKNS8_7RequestERKNS_5OwnedINS2_15ObjectApproversEEEESC_SH_E_SJ_SA_SF_Li0EEENSt9result_ofIFT_T0_T1_T2_EE4typeERKSM_SN_SO_SP_+0x88 (/home/bevers/src/mesos/worktrees/state-benchmarking/build-alexr/src/.libs/libmesos-1.8.0.so)
	    7fa493b9e937 _ZZN7process8dispatchINS_4http8ResponseENS_20AsyncExecutorProcessERKZNK5mesos8internal6master6Master4Http20processRequestsBatchEvEUlMNS7_15ReadOnlyHandlerEKFS2_RKNS1_7RequestERKNS_5OwnedINS4_15ObjectApproversEEEESC_SH_E_SJ_SA_SF_SM_RSJ_RSA_RSF_EENS_6FutureIT_EERKNS_3PIDIT0_EEMSU_FSR_T1_T2_T3_T4_EOT5_OT6_OT7_OT8_ENKUlSt10unique_ptrINS_7PromiseIS2_EESt14default_deleteIS1E_EEOSK_OSJ_OSA_OSF_PNS_11ProcessBaseEE_clES1H_S1I_S1J_S1K_S1L_S1N_+0x387 (/home/bevers/src/mesos/worktrees/state-benchmarking/build-alexr/src/.libs/libmesos-1.8.0.so)
	    7fa493b9eb09 _ZNO6lambda12CallableOnceIFvPN7process11ProcessBaseEEE10CallableFnINS_8internal7PartialIZNS1_8dispatchINS1_4http8ResponseENS1_20AsyncExecutorProcessERKZNK5mesos8internal6master6Master4Http20processRequestsBatchEvEUlMNSG_15ReadOnlyHandlerEKFSB_RKNSA_7RequestERKNS1_5OwnedINSD_15ObjectApproversEEEESL_SQ_E_SS_SJ_SO_SV_RSS_RSJ_RSO_EENS1_6FutureIT_EERKNS1_3PIDIT0_EEMS13_FS10_T1_T2_T3_T4_EOT5_OT6_OT7_OT8_EUlSt10unique_ptrINS1_7PromiseISB_EESt14default_deleteIS1N_EEOST_OSS_OSJ_OSO_S3_E_JS1Q_ST_SS_SJ_SO_St12_PlaceholderILi1EEEEEEclEOS3_+0x59 (/home/bevers/src/mesos/worktrees/state-benchmarking/build-alexr/src/.libs/libmesos-1.8.0.so)
	    7fa494cb80e2 _ZN7process11ProcessBase7consumeEONS_13DispatchEventE+0x32 (/home/bevers/src/mesos/worktrees/state-benchmarking/build-alexr/src/.libs/libmesos-1.8.0.so)
	    7fa494ccd332 _ZN7process14ProcessManager6resumeEPNS_11ProcessBaseE+0x492 (/home/bevers/src/mesos/worktrees/state-benchmarking/build-alexr/src/.libs/libmesos-1.8.0.so)
	    7fa494cd3606 _ZNSt6thread11_State_implINS_8_InvokerISt5tupleIJZN7process14ProcessManager12init_threadsEvEUlvE_EEEEE6_M_runEv+0x46 (/home/bevers/src/mesos/worktrees/state-benchmarking/build-alexr/src/.libs/libmesos-1.8.0.so)
	    7fa491e43733 [unknown] (/usr/lib/x86_64-linux-gnu/libstdc++.so.6.0.25)

__async_executor__(1)@127.0.1.1:5050 14787 182029.130905:       5000 cycles:uh: 
	    7fa491eae8f0 _ZNSt7__cxx1112basic_stringIcSt11char_traitsIcESaIcEE6resizeEmc+0x20 (/usr/lib/x86_64-linux-gnu/libstdc++.so.6.0.25)
	    7fa46c005e80 [unknown] ([unknown])
	               1 [unknown] ([unknown])

__async_executor__(1)@127.0.1.1:5050 14787 182029.130909:       5000 cycles:uh: 
	    7fa494eca353 _ZN6google8protobuf8internal24UTF8GenericScanFastAsciiEPKNS1_19UTF8StateMachineObjEPKciPi+0xb3 (/home/bevers/src/mesos/worktrees/state-benchmarking/build-alexr/src/.libs/libmesos-1.8.0.so)
	    7fa494eca404 _ZN6google8protobuf8internal23IsStructurallyValidUTF8EPKci+0x44 (/home/bevers/src/mesos/worktrees/state-benchmarking/build-alexr/src/.libs/libmesos-1.8.0.so)
	    7fa494e045fa _ZN6google8protobuf8internal14WireFormatLite16VerifyUtf8StringEPKciNS2_9OperationES4_+0x2a (/home/bevers/src/mesos/worktrees/state-benchmarking/build-alexr/src/.libs/libmesos-1.8.0.so)
	    7fa494e4f9f6 _ZN6google8protobuf20FieldDescriptorProto27MergePartialFromCodedStreamEPNS0_2io16CodedInputStreamE+0x276 (/home/bevers/src/mesos/worktrees/state-benchmarking/build-alexr/src/.libs/libmesos-1.8.0.so)
	    7fa4946190b9 _ZN6google8protobuf8internal14WireFormatLite11ReadMessageEPNS0_2io16CodedInputStreamEPNS0_11MessageLiteE+0x69 (/home/bevers/src/mesos/worktrees/state-benchmarking/build-alexr/src/.libs/libmesos-1.8.0.so)
	    7fa494e58a80 _ZN6google8protobuf15DescriptorProto27MergePartialFromCodedStreamEPNS0_2io16CodedInputStreamE+0x4a0 (/home/bevers/src/mesos/worktrees/state-benchmarking/build-alexr/src/.libs/libmesos-1.8.0.so)
	    7fa4946190b9 _ZN6google8protobuf8internal14WireFormatLite11ReadMessageEPNS0_2io16CodedInputStreamEPNS0_11MessageLiteE+0x69 (/home/bevers/src/mesos/worktrees/state-benchmarking/build-alexr/src/.libs/libmesos-1.8.0.so)
	    7fa494e5814b _ZN6google8protobuf19FileDescriptorProto27MergePartialFromCodedStreamEPNS0_2io16CodedInputStreamE+0x2bb (/home/bevers/src/mesos/worktrees/state-benchmarking/build-alexr/src/.libs/libmesos-1.8.0.so)
	    7fa494e01636 _ZN6google8protobuf11MessageLite14ParseFromArrayEPKvi+0xc6 (/home/bevers/src/mesos/worktrees/state-benchmarking/build-alexr/src/.libs/libmesos-1.8.0.so)
	    7fa494e2b177 _ZNK6google8protobuf14DescriptorPool29TryFindFileInFallbackDatabaseERKNSt7__cxx1112basic_stringIcSt11char_traitsIcESaIcEEE+0x97 (/home/bevers/src/mesos/worktrees/state-benchmarking/build-alexr/src/.libs/libmesos-1.8.0.so)
	    7fa494e2b304 _ZNK6google8protobuf14DescriptorPool14FindFileByNameERKNSt7__cxx1112basic_stringIcSt11char_traitsIcESaIcEEE+0xe4 (/home/bevers/src/mesos/worktrees/state-benchmarking/build-alexr/src/.libs/libmesos-1.8.0.so)
	    7fa494e7e96c _ZN6google8protobuf8internal17AssignDescriptorsERKNSt7__cxx1112basic_stringIcSt11char_traitsIcESaIcEEEPKNS1_15MigrationSchemaEPKPKNS0_7MessageEPKjPNS0_14MessageFactoryEPNS0_8MetadataEPPKNS0_14EnumDescriptorEPPKNS0_17ServiceDescriptorE+0x5c (/home/bevers/src/mesos/worktrees/state-benchmarking/build-alexr/src/.libs/libmesos-1.8.0.so)
	    7fa494561c5d _ZN30protobuf_mesos_2fmesos_2eproto26protobuf_AssignDescriptorsEv+0x6d (/home/bevers/src/mesos/worktrees/state-benchmarking/build-alexr/src/.libs/libmesos-1.8.0.so)
	    7fa494df7da8 _ZN6google8protobuf18GoogleOnceInitImplEPlPNS0_7ClosureE+0x58 (/home/bevers/src/mesos/worktrees/state-benchmarking/build-alexr/src/.libs/libmesos-1.8.0.so)
	    7fa4945607a8 _ZN30protobuf_mesos_2fmesos_2eproto30protobuf_AssignDescriptorsOnceEv+0x58 (/home/bevers/src/mesos/worktrees/state-benchmarking/build-alexr/src/.libs/libmesos-1.8.0.so)
	    7fa494561db9 _ZN5mesos37MasterInfo_Capability_Type_descriptorEv+0x9 (/home/bevers/src/mesos/worktrees/state-benchmarking/build-alexr/src/.libs/libmesos-1.8.0.so)
	    7fa4939fd753 _ZN5mesos4jsonEPN4JSON12StringWriterERKNS_21MasterInfo_CapabilityE+0x13 (/home/bevers/src/mesos/worktrees/state-benchmarking/build-alexr/src/.libs/libmesos-1.8.0.so)
	    7fa493cf8025 _ZZNK5mesos8internal6master6Master15ReadOnlyHandler5stateERKN7process4http7RequestERKNS4_5OwnedINS_15ObjectApproversEEEENKUlPN4JSON12ObjectWriterEE_clESG_+0x5e5 (/home/bevers/src/mesos/worktrees/state-benchmarking/build-alexr/src/.libs/libmesos-1.8.0.so)
	    7fa493cf99e4 _ZNSt17_Function_handlerIFvPN9rapidjson6WriterINS0_19GenericStringBufferINS0_4UTF8IcEENS0_12CrtAllocatorEEES4_S4_S5_Lj0EEEEZN4JSON8internal7jsonifyIZNK5mesos8internal6master6Master15ReadOnlyHandler5stateERKN7process4http7RequestERKNSI_5OwnedINSD_15ObjectApproversEEEEUlPNSA_12ObjectWriterEE_vEESt8functionIS9_ERKT_NSB_6PreferEEUlS8_E_E9_M_invokeERKSt9_Any_dataOS8_+0x44 (/home/bevers/src/mesos/worktrees/state-benchmarking/build-alexr/src/.libs/libmesos-1.8.0.so)
	    7fa493a0c402 _ZNO4JSON5ProxycvNSt7__cxx1112basic_stringIcSt11char_traitsIcESaIcEEEB5cxx11Ev+0xc2 (/home/bevers/src/mesos/worktrees/state-benchmarking/build-alexr/src/.libs/libmesos-1.8.0.so)
	    7fa494c159c1 _ZN7process4http2OKC2EON4JSON5ProxyERK6OptionINSt7__cxx1112basic_stringIcSt11char_traitsIcESaIcEEEE+0x151 (/home/bevers/src/mesos/worktrees/state-benchmarking/build-alexr/src/.libs/libmesos-1.8.0.so)
	    7fa493ceaa0f _ZNK5mesos8internal6master6Master15ReadOnlyHandler5stateERKN7process4http7RequestERKNS4_5OwnedINS_15ObjectApproversEEE+0xaf (/home/bevers/src/mesos/worktrees/state-benchmarking/build-alexr/src/.libs/libmesos-1.8.0.so)
	    7fa493b904c8 _ZN7process20AsyncExecutorProcess7executeIZNK5mesos8internal6master6Master4Http20processRequestsBatchEvEUlMNS5_15ReadOnlyHandlerEKFNS_4http8ResponseERKNS8_7RequestERKNS_5OwnedINS2_15ObjectApproversEEEESC_SH_E_SJ_SA_SF_Li0EEENSt9result_ofIFT_T0_T1_T2_EE4typeERKSM_SN_SO_SP_+0x88 (/home/bevers/src/mesos/worktrees/state-benchmarking/build-alexr/src/.libs/libmesos-1.8.0.so)
	    7fa493b9e937 _ZZN7process8dispatchINS_4http8ResponseENS_20AsyncExecutorProcessERKZNK5mesos8internal6master6Master4Http20processRequestsBatchEvEUlMNS7_15ReadOnlyHandlerEKFS2_RKNS1_7RequestERKNS_5OwnedINS4_15ObjectApproversEEEESC_SH_E_SJ_SA_SF_SM_RSJ_RSA_RSF_EENS_6FutureIT_EERKNS_3PIDIT0_EEMSU_FSR_T1_T2_T3_T4_EOT5_OT6_OT7_OT8_ENKUlSt10unique_ptrINS_7PromiseIS2_EESt14default_deleteIS1E_EEOSK_OSJ_OSA_OSF_PNS_11ProcessBaseEE_clES1H_S1I_S1J_S1K_S1L_S1N_+0x387 (/home/bevers/src/mesos/worktrees/state-benchmarking/build-alexr/src/.libs/libmesos-1.8.0.so)
